
========================================================================

** ELF Header Information

    File Name: .\obj\ADC_SingleMode.axf

    Machine class: ELFCLASS32 (32-bit)
    Data encoding: ELFDATA2LSB (Little endian)
    Header version: EV_CURRENT (Current version)
    Operating System ABI: none
    ABI Version: 0
    File Type: ET_EXEC (Executable) (2)
    Machine: EM_ARM (ARM)

    Image Entry point: 0x000000f1
    Flags: EF_ARM_HASENTRY + EF_ARM_ABI_FLOAT_SOFT (0x05000202)

    ARM ELF revision: 5 (ABI version 2)

    Conforms to Soft float procedure-call standard

    Built with
    Component: ARM Compiler 5.06 update 5 (build 528) Tool: armasm [4d35e1]
    Component: ARM Compiler 5.06 update 5 (build 528) Tool: armlink [4d35e2]

    Header size: 52 bytes (0x34)
    Program header entry size: 32 bytes (0x20)
    Section header entry size: 40 bytes (0x28)

    Program header entries: 1
    Section header entries: 16

    Program header offset: 338292 (0x00052974)
    Section header offset: 338324 (0x00052994)

    Section header string table index: 15

========================================================================

** Program header #0 (PT_LOAD) [PF_X + PF_W + PF_R + PF_ARM_ENTRY]
    Size : 21292 bytes (19140 bytes in file)
    Virtual address: 0x00000000 (Alignment 8)


========================================================================

** Section #1 'ER_RO' (SHT_PROGBITS) [SHF_ALLOC + SHF_EXECINSTR]
    Size   : 15692 bytes (alignment 8)
    Address: 0x00000000

    $d.realdata
    RESET
    __Vectors
        0x00000000:    200015e0    ...     DCD    536876512
        0x00000004:    000000f1    ....    DCD    241
        0x00000008:    00000111    ....    DCD    273
        0x0000000c:    000000d5    ....    DCD    213
        0x00000010:    00000000    ....    DCD    0
        0x00000014:    00000000    ....    DCD    0
        0x00000018:    00000000    ....    DCD    0
        0x0000001c:    00000000    ....    DCD    0
        0x00000020:    00000000    ....    DCD    0
        0x00000024:    00000000    ....    DCD    0
        0x00000028:    00000000    ....    DCD    0
        0x0000002c:    00000115    ....    DCD    277
        0x00000030:    00000000    ....    DCD    0
        0x00000034:    00000000    ....    DCD    0
        0x00000038:    00000117    ....    DCD    279
        0x0000003c:    00000119    ....    DCD    281
        0x00000040:    0000011b    ....    DCD    283
        0x00000044:    0000011b    ....    DCD    283
        0x00000048:    0000011b    ....    DCD    283
        0x0000004c:    0000011b    ....    DCD    283
        0x00000050:    0000011b    ....    DCD    283
        0x00000054:    0000011b    ....    DCD    283
        0x00000058:    0000011b    ....    DCD    283
        0x0000005c:    0000011b    ....    DCD    283
        0x00000060:    0000011b    ....    DCD    283
        0x00000064:    0000011b    ....    DCD    283
        0x00000068:    0000011b    ....    DCD    283
        0x0000006c:    0000011b    ....    DCD    283
        0x00000070:    0000011b    ....    DCD    283
        0x00000074:    0000011b    ....    DCD    283
        0x00000078:    0000011b    ....    DCD    283
        0x0000007c:    0000011b    ....    DCD    283
        0x00000080:    0000011b    ....    DCD    283
        0x00000084:    0000011b    ....    DCD    283
        0x00000088:    0000011b    ....    DCD    283
        0x0000008c:    0000011b    ....    DCD    283
        0x00000090:    0000011b    ....    DCD    283
        0x00000094:    0000011b    ....    DCD    283
        0x00000098:    0000011b    ....    DCD    283
        0x0000009c:    0000011b    ....    DCD    283
        0x000000a0:    0000011b    ....    DCD    283
        0x000000a4:    0000011b    ....    DCD    283
        0x000000a8:    0000011b    ....    DCD    283
        0x000000ac:    0000011b    ....    DCD    283
        0x000000b0:    0000011b    ....    DCD    283
        0x000000b4:    0000011b    ....    DCD    283
        0x000000b8:    0000011b    ....    DCD    283
        0x000000bc:    0000011b    ....    DCD    283
    $t
    .ARM.Collect$$$$00000000
    .ARM.Collect$$$$00000001
    __main
    _main_stk
        0x000000c0:    4803        .H      LDR      r0,__lit__00000000 ; [0xd0] = 0x200015e0
        0x000000c2:    4685        .F      MOV      sp,r0
    .ARM.Collect$$$$00000004
    _main_scatterload
        0x000000c4:    f000fd0c    ....    BL       __scatterload ; 0xae0
    .ARM.Collect$$$$00000008
    .ARM.Collect$$$$0000000A
    .ARM.Collect$$$$0000000B
    __main_after_scatterload
    _main_clock
    _main_cpp_init
    _main_init
        0x000000c8:    4800        .H      LDR      r0,[pc,#0] ; [0xcc] = 0x23d5
        0x000000ca:    4700        .G      BX       r0
    $d
        0x000000cc:    000023d5    .#..    DCD    9173
    .ARM.Collect$$$$00002712
    __lit__00000000
    .ARM.Collect$$$$0000000D
    .ARM.Collect$$$$0000000F
    __rt_final_cpp
    __rt_final_exit
        0x000000d0:    200015e0    ...     DCD    536876512
    $t
    .emb_text
    HardFault_Handler
        0x000000d4:    2004        .       MOVS     r0,#4
        0x000000d6:    4671        qF      MOV      r1,lr
        0x000000d8:    4208        .B      TST      r0,r1
        0x000000da:    d002        ..      BEQ      0xe2 ; HardFault_Handler + 14
        0x000000dc:    f3ef8009    ....    MRS      r0,PSP
        0x000000e0:    e001        ..      B        0xe6 ; HardFault_Handler + 18
        0x000000e2:    f3ef8008    ....    MRS      r0,MSP
        0x000000e6:    4671        qF      MOV      r1,lr
        0x000000e8:    4a00        .J      LDR      r2,[pc,#0] ; [0xec] = 0x12f9
        0x000000ea:    4710        .G      BX       r2
    $d
        0x000000ec:    000012f9    ....    DCD    4857
    $t
    .text
    Reset_Handler
        0x000000f0:    480a        .H      LDR      r0,[pc,#40] ; [0x11c] = 0x50000100
        0x000000f2:    490b        .I      LDR      r1,[pc,#44] ; [0x120] = 0x59
        0x000000f4:    6001        .`      STR      r1,[r0,#0]
        0x000000f6:    490b        .I      LDR      r1,[pc,#44] ; [0x124] = 0x16
        0x000000f8:    6001        .`      STR      r1,[r0,#0]
        0x000000fa:    490b        .I      LDR      r1,[pc,#44] ; [0x128] = 0x88
        0x000000fc:    6001        .`      STR      r1,[r0,#0]
        0x000000fe:    4a0b        .J      LDR      r2,[pc,#44] ; [0x12c] = 0x50000024
        0x00000100:    490b        .I      LDR      r1,[pc,#44] ; [0x130] = 0x5aa5
        0x00000102:    6011        .`      STR      r1,[r2,#0]
        0x00000104:    2100        .!      MOVS     r1,#0
        0x00000106:    6001        .`      STR      r1,[r0,#0]
        0x00000108:    480a        .H      LDR      r0,[pc,#40] ; [0x134] = 0x1489
        0x0000010a:    4780        .G      BLX      r0
        0x0000010c:    480a        .H      LDR      r0,[pc,#40] ; [0x138] = 0xc1
        0x0000010e:    4700        .G      BX       r0
    NMI_Handler
        0x00000110:    e7fe        ..      B        NMI_Handler ; 0x110
        0x00000112:    e7fe        ..      B        0x112 ; NMI_Handler + 2
    SVC_Handler
        0x00000114:    e7fe        ..      B        SVC_Handler ; 0x114
    PendSV_Handler
        0x00000116:    e7fe        ..      B        PendSV_Handler ; 0x116
    SysTick_Handler
        0x00000118:    e7fe        ..      B        SysTick_Handler ; 0x118
    Default_Handler
    ACMP_IRQHandler
    ADC_IRQHandler
    BOD_IRQHandler
    CAN0_IRQHandler
    CAN1_IRQHandler
    EINT0_IRQHandler
    EINT1_IRQHandler
    GPAB_IRQHandler
    GPCDEF_IRQHandler
    I2C0_IRQHandler
    I2C1_IRQHandler
    I2S_IRQHandler
    PDMA_IRQHandler
    PS2_IRQHandler
    PWMA_IRQHandler
    PWMB_IRQHandler
    PWRWU_IRQHandler
    RTC_IRQHandler
    SC012_IRQHandler
    SPI0_IRQHandler
    SPI1_IRQHandler
    SPI2_IRQHandler
    SPI3_IRQHandler
    TMR0_IRQHandler
    TMR1_IRQHandler
    TMR2_IRQHandler
    TMR3_IRQHandler
    UART02_IRQHandler
    UART1_IRQHandler
    USBD_IRQHandler
    WDT_IRQHandler
        0x0000011a:    e7fe        ..      B        Default_Handler ; 0x11a
    $d
        0x0000011c:    50000100    ...P    DCD    1342177536
        0x00000120:    00000059    Y...    DCD    89
        0x00000124:    00000016    ....    DCD    22
        0x00000128:    00000088    ....    DCD    136
        0x0000012c:    50000024    $..P    DCD    1342177316
        0x00000130:    00005aa5    .Z..    DCD    23205
        0x00000134:    00001489    ....    DCD    5257
        0x00000138:    000000c1    ....    DCD    193
    $t
    .text
    __aeabi_uidiv
    __aeabi_uidivmod
        0x0000013c:    b530        0.      PUSH     {r4,r5,lr}
        0x0000013e:    460b        .F      MOV      r3,r1
        0x00000140:    4601        .F      MOV      r1,r0
        0x00000142:    2000        .       MOVS     r0,#0
        0x00000144:    2220         "      MOVS     r2,#0x20
        0x00000146:    2401        .$      MOVS     r4,#1
        0x00000148:    e009        ..      B        0x15e ; __aeabi_uidiv + 34
        0x0000014a:    460d        .F      MOV      r5,r1
        0x0000014c:    40d5        .@      LSRS     r5,r5,r2
        0x0000014e:    429d        .B      CMP      r5,r3
        0x00000150:    d305        ..      BCC      0x15e ; __aeabi_uidiv + 34
        0x00000152:    461d        .F      MOV      r5,r3
        0x00000154:    4095        .@      LSLS     r5,r5,r2
        0x00000156:    1b49        I.      SUBS     r1,r1,r5
        0x00000158:    4625        %F      MOV      r5,r4
        0x0000015a:    4095        .@      LSLS     r5,r5,r2
        0x0000015c:    1940        @.      ADDS     r0,r0,r5
        0x0000015e:    4615        .F      MOV      r5,r2
        0x00000160:    1e52        R.      SUBS     r2,r2,#1
        0x00000162:    2d00        .-      CMP      r5,#0
        0x00000164:    dcf1        ..      BGT      0x14a ; __aeabi_uidiv + 14
        0x00000166:    bd30        0.      POP      {r4,r5,pc}
    .text
    __aeabi_idiv
    __aeabi_idivmod
        0x00000168:    b570        p.      PUSH     {r4-r6,lr}
        0x0000016a:    2400        .$      MOVS     r4,#0
        0x0000016c:    4625        %F      MOV      r5,r4
        0x0000016e:    2800        .(      CMP      r0,#0
        0x00000170:    da01        ..      BGE      0x176 ; __aeabi_idiv + 14
        0x00000172:    2401        .$      MOVS     r4,#1
        0x00000174:    4240        @B      RSBS     r0,r0,#0
        0x00000176:    2900        .)      CMP      r1,#0
        0x00000178:    da01        ..      BGE      0x17e ; __aeabi_idiv + 22
        0x0000017a:    2501        .%      MOVS     r5,#1
        0x0000017c:    4249        IB      RSBS     r1,r1,#0
        0x0000017e:    f7ffffdd    ....    BL       __aeabi_uidiv ; 0x13c
        0x00000182:    42ac        .B      CMP      r4,r5
        0x00000184:    d000        ..      BEQ      0x188 ; __aeabi_idiv + 32
        0x00000186:    4240        @B      RSBS     r0,r0,#0
        0x00000188:    2c00        .,      CMP      r4,#0
        0x0000018a:    d000        ..      BEQ      0x18e ; __aeabi_idiv + 38
        0x0000018c:    4249        IB      RSBS     r1,r1,#0
        0x0000018e:    bd70        p.      POP      {r4-r6,pc}
    .text
    rand
        0x00000190:    4905        .I      LDR      r1,[pc,#20] ; [0x1a8] = 0x20000d70
        0x00000192:    4a06        .J      LDR      r2,[pc,#24] ; [0x1ac] = 0x41c64e6d
        0x00000194:    6808        .h      LDR      r0,[r1,#0]
        0x00000196:    4350        PC      MULS     r0,r2,r0
        0x00000198:    4a05        .J      LDR      r2,[pc,#20] ; [0x1b0] = 0x3039
        0x0000019a:    1880        ..      ADDS     r0,r0,r2
        0x0000019c:    6008        .`      STR      r0,[r1,#0]
        0x0000019e:    0840        @.      LSRS     r0,r0,#1
        0x000001a0:    4770        pG      BX       lr
    srand
        0x000001a2:    4901        .I      LDR      r1,[pc,#4] ; [0x1a8] = 0x20000d70
        0x000001a4:    6008        .`      STR      r0,[r1,#0]
        0x000001a6:    4770        pG      BX       lr
    $d
        0x000001a8:    20000d70    p..     DCD    536874352
        0x000001ac:    41c64e6d    mN.A    DCD    1103515245
        0x000001b0:    00003039    90..    DCD    12345
    $t
    .text
    strcpy
        0x000001b4:    4603        .F      MOV      r3,r0
        0x000001b6:    780a        .x      LDRB     r2,[r1,#0]
        0x000001b8:    7002        .p      STRB     r2,[r0,#0]
        0x000001ba:    1c40        @.      ADDS     r0,r0,#1
        0x000001bc:    1c49        I.      ADDS     r1,r1,#1
        0x000001be:    2a00        .*      CMP      r2,#0
        0x000001c0:    d1f9        ..      BNE      0x1b6 ; strcpy + 2
        0x000001c2:    4618        .F      MOV      r0,r3
        0x000001c4:    4770        pG      BX       lr
    .text
    __aeabi_fadd
        0x000001c6:    b5f8        ..      PUSH     {r3-r7,lr}
        0x000001c8:    4602        .F      MOV      r2,r0
        0x000001ca:    404a        J@      EORS     r2,r2,r1
        0x000001cc:    0fd4        ..      LSRS     r4,r2,#31
        0x000001ce:    0042        B.      LSLS     r2,r0,#1
        0x000001d0:    004b        K.      LSLS     r3,r1,#1
        0x000001d2:    0852        R.      LSRS     r2,r2,#1
        0x000001d4:    085b        [.      LSRS     r3,r3,#1
        0x000001d6:    429a        .B      CMP      r2,r3
        0x000001d8:    d202        ..      BCS      0x1e0 ; __aeabi_fadd + 26
        0x000001da:    4602        .F      MOV      r2,r0
        0x000001dc:    4608        .F      MOV      r0,r1
        0x000001de:    4611        .F      MOV      r1,r2
        0x000001e0:    004a        J.      LSLS     r2,r1,#1
        0x000001e2:    d023        #.      BEQ      0x22c ; __aeabi_fadd + 102
        0x000001e4:    0dc3        ..      LSRS     r3,r0,#23
        0x000001e6:    004a        J.      LSLS     r2,r1,#1
        0x000001e8:    b2dd        ..      UXTB     r5,r3
        0x000001ea:    0e12        ..      LSRS     r2,r2,#24
        0x000001ec:    1aad        ..      SUBS     r5,r5,r2
        0x000001ee:    2d20         -      CMP      r5,#0x20
        0x000001f0:    da35        5.      BGE      0x25e ; __aeabi_fadd + 152
        0x000001f2:    0249        I.      LSLS     r1,r1,#9
        0x000001f4:    2601        .&      MOVS     r6,#1
        0x000001f6:    0a49        I.      LSRS     r1,r1,#9
        0x000001f8:    05f6        ..      LSLS     r6,r6,#23
        0x000001fa:    198a        ..      ADDS     r2,r1,r6
        0x000001fc:    2c00        .,      CMP      r4,#0
        0x000001fe:    d000        ..      BEQ      0x202 ; __aeabi_fadd + 60
        0x00000200:    4252        RB      RSBS     r2,r2,#0
        0x00000202:    2120         !      MOVS     r1,#0x20
        0x00000204:    1b4f        O.      SUBS     r7,r1,r5
        0x00000206:    4611        .F      MOV      r1,r2
        0x00000208:    40b9        .@      LSLS     r1,r1,r7
        0x0000020a:    412a        *A      ASRS     r2,r2,r5
        0x0000020c:    1810        ..      ADDS     r0,r2,r0
        0x0000020e:    0dc2        ..      LSRS     r2,r0,#23
        0x00000210:    429a        .B      CMP      r2,r3
        0x00000212:    d021        !.      BEQ      0x258 ; __aeabi_fadd + 146
        0x00000214:    2c00        .,      CMP      r4,#0
        0x00000216:    d017        ..      BEQ      0x248 ; __aeabi_fadd + 130
        0x00000218:    2d01        .-      CMP      r5,#1
        0x0000021a:    dc08        ..      BGT      0x22e ; __aeabi_fadd + 104
        0x0000021c:    05da        ..      LSLS     r2,r3,#23
        0x0000021e:    1a80        ..      SUBS     r0,r0,r2
        0x00000220:    0fd2        ..      LSRS     r2,r2,#31
        0x00000222:    1980        ..      ADDS     r0,r0,r6
        0x00000224:    07d2        ..      LSLS     r2,r2,#31
        0x00000226:    b2db        ..      UXTB     r3,r3
        0x00000228:    f000faf1    ....    BL       _float_epilogue ; 0x80e
        0x0000022c:    bdf8        ..      POP      {r3-r7,pc}
        0x0000022e:    05da        ..      LSLS     r2,r3,#23
        0x00000230:    1a80        ..      SUBS     r0,r0,r2
        0x00000232:    2301        .#      MOVS     r3,#1
        0x00000234:    0040        @.      LSLS     r0,r0,#1
        0x00000236:    061b        ..      LSLS     r3,r3,#24
        0x00000238:    18c0        ..      ADDS     r0,r0,r3
        0x0000023a:    1880        ..      ADDS     r0,r0,r2
        0x0000023c:    425a        ZB      RSBS     r2,r3,#0
        0x0000023e:    1880        ..      ADDS     r0,r0,r2
        0x00000240:    0fca        ..      LSRS     r2,r1,#31
        0x00000242:    4310        .C      ORRS     r0,r0,r2
        0x00000244:    0049        I.      LSLS     r1,r1,#1
        0x00000246:    e007        ..      B        0x258 ; __aeabi_fadd + 146
        0x00000248:    0849        I.      LSRS     r1,r1,#1
        0x0000024a:    07c2        ..      LSLS     r2,r0,#31
        0x0000024c:    4311        .C      ORRS     r1,r1,r2
        0x0000024e:    05da        ..      LSLS     r2,r3,#23
        0x00000250:    1a80        ..      SUBS     r0,r0,r2
        0x00000252:    1980        ..      ADDS     r0,r0,r6
        0x00000254:    0840        @.      LSRS     r0,r0,#1
        0x00000256:    1880        ..      ADDS     r0,r0,r2
        0x00000258:    f000fad1    ....    BL       __I$use$fp ; 0x7fe
        0x0000025c:    bdf8        ..      POP      {r3-r7,pc}
        0x0000025e:    0061        a.      LSLS     r1,r4,#1
        0x00000260:    2201        ."      MOVS     r2,#1
        0x00000262:    1a51        Q.      SUBS     r1,r2,r1
        0x00000264:    1b00        ..      SUBS     r0,r0,r4
        0x00000266:    e7f7        ..      B        0x258 ; __aeabi_fadd + 146
    __aeabi_fsub
        0x00000268:    2201        ."      MOVS     r2,#1
        0x0000026a:    07d2        ..      LSLS     r2,r2,#31
        0x0000026c:    4051        Q@      EORS     r1,r1,r2
        0x0000026e:    e7aa        ..      B        __aeabi_fadd ; 0x1c6
    __aeabi_frsub
        0x00000270:    2201        ."      MOVS     r2,#1
        0x00000272:    07d2        ..      LSLS     r2,r2,#31
        0x00000274:    4050        P@      EORS     r0,r0,r2
        0x00000276:    e7a6        ..      B        __aeabi_fadd ; 0x1c6
    .text
    __aeabi_fmul
        0x00000278:    4602        .F      MOV      r2,r0
        0x0000027a:    b570        p.      PUSH     {r4-r6,lr}
        0x0000027c:    404a        J@      EORS     r2,r2,r1
        0x0000027e:    0fd3        ..      LSRS     r3,r2,#31
        0x00000280:    07db        ..      LSLS     r3,r3,#31
        0x00000282:    0040        @.      LSLS     r0,r0,#1
        0x00000284:    d02d        -.      BEQ      0x2e2 ; __aeabi_fmul + 106
        0x00000286:    004a        J.      LSLS     r2,r1,#1
        0x00000288:    d02a        *.      BEQ      0x2e0 ; __aeabi_fmul + 104
        0x0000028a:    0e01        ..      LSRS     r1,r0,#24
        0x0000028c:    0e14        ..      LSRS     r4,r2,#24
        0x0000028e:    0200        ..      LSLS     r0,r0,#8
        0x00000290:    0212        ..      LSLS     r2,r2,#8
        0x00000292:    1909        ..      ADDS     r1,r1,r4
        0x00000294:    0a40        @.      LSRS     r0,r0,#9
        0x00000296:    0a52        R.      LSRS     r2,r2,#9
        0x00000298:    1884        ..      ADDS     r4,r0,r2
        0x0000029a:    01e5        ..      LSLS     r5,r4,#7
        0x0000029c:    4604        .F      MOV      r4,r0
        0x0000029e:    4354        TC      MULS     r4,r2,r4
        0x000002a0:    0a00        ..      LSRS     r0,r0,#8
        0x000002a2:    0a12        ..      LSRS     r2,r2,#8
        0x000002a4:    042e        ..      LSLS     r6,r5,#16
        0x000002a6:    4350        PC      MULS     r0,r2,r0
        0x000002a8:    19a4        ..      ADDS     r4,r4,r6
        0x000002aa:    1942        B.      ADDS     r2,r0,r5
        0x000002ac:    0c20         .      LSRS     r0,r4,#16
        0x000002ae:    43c5        .C      MVNS     r5,r0
        0x000002b0:    18aa        ..      ADDS     r2,r5,r2
        0x000002b2:    0c12        ..      LSRS     r2,r2,#16
        0x000002b4:    2501        .%      MOVS     r5,#1
        0x000002b6:    03ad        ..      LSLS     r5,r5,#14
        0x000002b8:    1c52        R.      ADDS     r2,r2,#1
        0x000002ba:    1952        R.      ADDS     r2,r2,r5
        0x000002bc:    0412        ..      LSLS     r2,r2,#16
        0x000002be:    397f        .9      SUBS     r1,r1,#0x7f
        0x000002c0:    0424        $.      LSLS     r4,r4,#16
        0x000002c2:    d000        ..      BEQ      0x2c6 ; __aeabi_fmul + 78
        0x000002c4:    1c52        R.      ADDS     r2,r2,#1
        0x000002c6:    4310        .C      ORRS     r0,r0,r2
        0x000002c8:    d401        ..      BMI      0x2ce ; __aeabi_fmul + 86
        0x000002ca:    0040        @.      LSLS     r0,r0,#1
        0x000002cc:    1e49        I.      SUBS     r1,r1,#1
        0x000002ce:    b2c2        ..      UXTB     r2,r0
        0x000002d0:    060c        ..      LSLS     r4,r1,#24
        0x000002d2:    09c0        ..      LSRS     r0,r0,#7
        0x000002d4:    1820         .      ADDS     r0,r4,r0
        0x000002d6:    1c40        @.      ADDS     r0,r0,#1
        0x000002d8:    0840        @.      LSRS     r0,r0,#1
        0x000002da:    2a80        .*      CMP      r2,#0x80
        0x000002dc:    d002        ..      BEQ      0x2e4 ; __aeabi_fmul + 108
        0x000002de:    e003        ..      B        0x2e8 ; __aeabi_fmul + 112
        0x000002e0:    2000        .       MOVS     r0,#0
        0x000002e2:    bd70        p.      POP      {r4-r6,pc}
        0x000002e4:    0840        @.      LSRS     r0,r0,#1
        0x000002e6:    0040        @.      LSLS     r0,r0,#1
        0x000002e8:    2900        .)      CMP      r1,#0
        0x000002ea:    da00        ..      BGE      0x2ee ; __aeabi_fmul + 118
        0x000002ec:    2000        .       MOVS     r0,#0
        0x000002ee:    4318        .C      ORRS     r0,r0,r3
        0x000002f0:    bd70        p.      POP      {r4-r6,pc}
    .text
    __aeabi_fdiv
        0x000002f2:    b570        p.      PUSH     {r4-r6,lr}
        0x000002f4:    4602        .F      MOV      r2,r0
        0x000002f6:    404a        J@      EORS     r2,r2,r1
        0x000002f8:    0fd5        ..      LSRS     r5,r2,#31
        0x000002fa:    0040        @.      LSLS     r0,r0,#1
        0x000002fc:    004a        J.      LSLS     r2,r1,#1
        0x000002fe:    07ed        ..      LSLS     r5,r5,#31
        0x00000300:    0840        @.      LSRS     r0,r0,#1
        0x00000302:    0852        R.      LSRS     r2,r2,#1
        0x00000304:    2800        .(      CMP      r0,#0
        0x00000306:    d014        ..      BEQ      0x332 ; __aeabi_fdiv + 64
        0x00000308:    2a00        .*      CMP      r2,#0
        0x0000030a:    d012        ..      BEQ      0x332 ; __aeabi_fdiv + 64
        0x0000030c:    0dc4        ..      LSRS     r4,r0,#23
        0x0000030e:    0dd3        ..      LSRS     r3,r2,#23
        0x00000310:    0241        A.      LSLS     r1,r0,#9
        0x00000312:    2001        .       MOVS     r0,#1
        0x00000314:    05c0        ..      LSLS     r0,r0,#23
        0x00000316:    0252        R.      LSLS     r2,r2,#9
        0x00000318:    0a49        I.      LSRS     r1,r1,#9
        0x0000031a:    0a52        R.      LSRS     r2,r2,#9
        0x0000031c:    1ae4        ..      SUBS     r4,r4,r3
        0x0000031e:    1809        ..      ADDS     r1,r1,r0
        0x00000320:    1812        ..      ADDS     r2,r2,r0
        0x00000322:    347d        }4      ADDS     r4,r4,#0x7d
        0x00000324:    4291        .B      CMP      r1,r2
        0x00000326:    d301        ..      BCC      0x32c ; __aeabi_fdiv + 58
        0x00000328:    1c64        d.      ADDS     r4,r4,#1
        0x0000032a:    e000        ..      B        0x32e ; __aeabi_fdiv + 60
        0x0000032c:    0049        I.      LSLS     r1,r1,#1
        0x0000032e:    2c00        .,      CMP      r4,#0
        0x00000330:    da01        ..      BGE      0x336 ; __aeabi_fdiv + 68
        0x00000332:    2000        .       MOVS     r0,#0
        0x00000334:    bd70        p.      POP      {r4-r6,pc}
        0x00000336:    2300        .#      MOVS     r3,#0
        0x00000338:    4291        .B      CMP      r1,r2
        0x0000033a:    d301        ..      BCC      0x340 ; __aeabi_fdiv + 78
        0x0000033c:    1a89        ..      SUBS     r1,r1,r2
        0x0000033e:    4303        .C      ORRS     r3,r3,r0
        0x00000340:    0840        @.      LSRS     r0,r0,#1
        0x00000342:    0049        I.      LSLS     r1,r1,#1
        0x00000344:    2800        .(      CMP      r0,#0
        0x00000346:    d1f7        ..      BNE      0x338 ; __aeabi_fdiv + 70
        0x00000348:    2900        .)      CMP      r1,#0
        0x0000034a:    d00a        ..      BEQ      0x362 ; __aeabi_fdiv + 112
        0x0000034c:    4291        .B      CMP      r1,r2
        0x0000034e:    d102        ..      BNE      0x356 ; __aeabi_fdiv + 100
        0x00000350:    2101        .!      MOVS     r1,#1
        0x00000352:    07c9        ..      LSLS     r1,r1,#31
        0x00000354:    e005        ..      B        0x362 ; __aeabi_fdiv + 112
        0x00000356:    4291        .B      CMP      r1,r2
        0x00000358:    d201        ..      BCS      0x35e ; __aeabi_fdiv + 108
        0x0000035a:    2101        .!      MOVS     r1,#1
        0x0000035c:    e001        ..      B        0x362 ; __aeabi_fdiv + 112
        0x0000035e:    2101        .!      MOVS     r1,#1
        0x00000360:    43c9        .C      MVNS     r1,r1
        0x00000362:    05e0        ..      LSLS     r0,r4,#23
        0x00000364:    18c0        ..      ADDS     r0,r0,r3
        0x00000366:    1940        @.      ADDS     r0,r0,r5
        0x00000368:    f000fa49    ..I.    BL       __I$use$fp ; 0x7fe
        0x0000036c:    bd70        p.      POP      {r4-r6,pc}
        0x0000036e:    0000        ..      MOVS     r0,r0
    .text
    __aeabi_dadd
        0x00000370:    b5f0        ..      PUSH     {r4-r7,lr}
        0x00000372:    4607        .F      MOV      r7,r0
        0x00000374:    4608        .F      MOV      r0,r1
        0x00000376:    4058        X@      EORS     r0,r0,r3
        0x00000378:    b087        ..      SUB      sp,sp,#0x1c
        0x0000037a:    0fc0        ..      LSRS     r0,r0,#31
        0x0000037c:    9004        ..      STR      r0,[sp,#0x10]
        0x0000037e:    0048        H.      LSLS     r0,r1,#1
        0x00000380:    460e        .F      MOV      r6,r1
        0x00000382:    0059        Y.      LSLS     r1,r3,#1
        0x00000384:    0840        @.      LSRS     r0,r0,#1
        0x00000386:    0849        I.      LSRS     r1,r1,#1
        0x00000388:    1abc        ..      SUBS     r4,r7,r2
        0x0000038a:    4188        .A      SBCS     r0,r0,r1
        0x0000038c:    d205        ..      BCS      0x39a ; __aeabi_dadd + 42
        0x0000038e:    4638        8F      MOV      r0,r7
        0x00000390:    4631        1F      MOV      r1,r6
        0x00000392:    461e        .F      MOV      r6,r3
        0x00000394:    4617        .F      MOV      r7,r2
        0x00000396:    460b        .F      MOV      r3,r1
        0x00000398:    4602        .F      MOV      r2,r0
        0x0000039a:    0058        X.      LSLS     r0,r3,#1
        0x0000039c:    0840        @.      LSRS     r0,r0,#1
        0x0000039e:    4310        .C      ORRS     r0,r0,r2
        0x000003a0:    d04c        L.      BEQ      0x43c ; __aeabi_dadd + 204
        0x000003a2:    0d30        0.      LSRS     r0,r6,#20
        0x000003a4:    9003        ..      STR      r0,[sp,#0xc]
        0x000003a6:    0540        @.      LSLS     r0,r0,#21
        0x000003a8:    0059        Y.      LSLS     r1,r3,#1
        0x000003aa:    0d40        @.      LSRS     r0,r0,#21
        0x000003ac:    0d49        I.      LSRS     r1,r1,#21
        0x000003ae:    9005        ..      STR      r0,[sp,#0x14]
        0x000003b0:    1a40        @.      SUBS     r0,r0,r1
        0x000003b2:    9002        ..      STR      r0,[sp,#8]
        0x000003b4:    2840        @(      CMP      r0,#0x40
        0x000003b6:    da72        r.      BGE      0x49e ; __aeabi_dadd + 302
        0x000003b8:    0318        ..      LSLS     r0,r3,#12
        0x000003ba:    2101        .!      MOVS     r1,#1
        0x000003bc:    0b00        ..      LSRS     r0,r0,#12
        0x000003be:    0509        ..      LSLS     r1,r1,#20
        0x000003c0:    4308        .C      ORRS     r0,r0,r1
        0x000003c2:    9001        ..      STR      r0,[sp,#4]
        0x000003c4:    9804        ..      LDR      r0,[sp,#0x10]
        0x000003c6:    9200        ..      STR      r2,[sp,#0]
        0x000003c8:    2800        .(      CMP      r0,#0
        0x000003ca:    d005        ..      BEQ      0x3d8 ; __aeabi_dadd + 104
        0x000003cc:    9901        ..      LDR      r1,[sp,#4]
        0x000003ce:    4252        RB      RSBS     r2,r2,#0
        0x000003d0:    2000        .       MOVS     r0,#0
        0x000003d2:    4188        .A      SBCS     r0,r0,r1
        0x000003d4:    9200        ..      STR      r2,[sp,#0]
        0x000003d6:    9001        ..      STR      r0,[sp,#4]
        0x000003d8:    9802        ..      LDR      r0,[sp,#8]
        0x000003da:    2140        @!      MOVS     r1,#0x40
        0x000003dc:    1a0a        ..      SUBS     r2,r1,r0
        0x000003de:    9901        ..      LDR      r1,[sp,#4]
        0x000003e0:    9800        ..      LDR      r0,[sp,#0]
        0x000003e2:    f000f9e9    ....    BL       __aeabi_llsl ; 0x7b8
        0x000003e6:    4605        .F      MOV      r5,r0
        0x000003e8:    460c        .F      MOV      r4,r1
        0x000003ea:    466b        kF      MOV      r3,sp
        0x000003ec:    cb07        ..      LDM      r3!,{r0-r2}
        0x000003ee:    f000f9f3    ....    BL       __aeabi_lasr ; 0x7d8
        0x000003f2:    19c0        ..      ADDS     r0,r0,r7
        0x000003f4:    4171        qA      ADCS     r1,r1,r6
        0x000003f6:    9a03        ..      LDR      r2,[sp,#0xc]
        0x000003f8:    0d0e        ..      LSRS     r6,r1,#20
        0x000003fa:    2300        .#      MOVS     r3,#0
        0x000003fc:    17d7        ..      ASRS     r7,r2,#31
        0x000003fe:    4056        V@      EORS     r6,r6,r2
        0x00000400:    461a        .F      MOV      r2,r3
        0x00000402:    407a        z@      EORS     r2,r2,r7
        0x00000404:    4316        .C      ORRS     r6,r6,r2
        0x00000406:    d044        D.      BEQ      0x492 ; __aeabi_dadd + 290
        0x00000408:    9a04        ..      LDR      r2,[sp,#0x10]
        0x0000040a:    2a00        .*      CMP      r2,#0
        0x0000040c:    d02d        -.      BEQ      0x46a ; __aeabi_dadd + 250
        0x0000040e:    9a02        ..      LDR      r2,[sp,#8]
        0x00000410:    2a01        .*      CMP      r2,#1
        0x00000412:    9a03        ..      LDR      r2,[sp,#0xc]
        0x00000414:    dc15        ..      BGT      0x442 ; __aeabi_dadd + 210
        0x00000416:    0512        ..      LSLS     r2,r2,#20
        0x00000418:    1ac0        ..      SUBS     r0,r0,r3
        0x0000041a:    4191        .A      SBCS     r1,r1,r2
        0x0000041c:    2601        .&      MOVS     r6,#1
        0x0000041e:    0536        6.      LSLS     r6,r6,#20
        0x00000420:    1c00        ..      ADDS     r0,r0,#0
        0x00000422:    4171        qA      ADCS     r1,r1,r6
        0x00000424:    0fd2        ..      LSRS     r2,r2,#31
        0x00000426:    9e05        ..      LDR      r6,[sp,#0x14]
        0x00000428:    07d2        ..      LSLS     r2,r2,#31
        0x0000042a:    9300        ..      STR      r3,[sp,#0]
        0x0000042c:    9201        ..      STR      r2,[sp,#4]
        0x0000042e:    9602        ..      STR      r6,[sp,#8]
        0x00000430:    462a        *F      MOV      r2,r5
        0x00000432:    4623        #F      MOV      r3,r4
        0x00000434:    f000fa31    ..1.    BL       _double_epilogue ; 0x89a
        0x00000438:    b007        ..      ADD      sp,sp,#0x1c
        0x0000043a:    bdf0        ..      POP      {r4-r7,pc}
        0x0000043c:    4638        8F      MOV      r0,r7
        0x0000043e:    4631        1F      MOV      r1,r6
        0x00000440:    e7fa        ..      B        0x438 ; __aeabi_dadd + 200
        0x00000442:    0516        ..      LSLS     r6,r2,#20
        0x00000444:    4a22        "J      LDR      r2,[pc,#136] ; [0x4d0] = 0xffe00000
        0x00000446:    460f        .F      MOV      r7,r1
        0x00000448:    18b2        ..      ADDS     r2,r6,r2
        0x0000044a:    1ac0        ..      SUBS     r0,r0,r3
        0x0000044c:    41b7        .A      SBCS     r7,r7,r6
        0x0000044e:    2101        .!      MOVS     r1,#1
        0x00000450:    0509        ..      LSLS     r1,r1,#20
        0x00000452:    1c00        ..      ADDS     r0,r0,#0
        0x00000454:    414f        OA      ADCS     r7,r7,r1
        0x00000456:    1800        ..      ADDS     r0,r0,r0
        0x00000458:    417f        .A      ADCS     r7,r7,r7
        0x0000045a:    4611        .F      MOV      r1,r2
        0x0000045c:    1818        ..      ADDS     r0,r3,r0
        0x0000045e:    4179        yA      ADCS     r1,r1,r7
        0x00000460:    0fe2        ..      LSRS     r2,r4,#31
        0x00000462:    4310        .C      ORRS     r0,r0,r2
        0x00000464:    196d        m.      ADDS     r5,r5,r5
        0x00000466:    4164        dA      ADCS     r4,r4,r4
        0x00000468:    e013        ..      B        0x492 ; __aeabi_dadd + 290
        0x0000046a:    07e2        ..      LSLS     r2,r4,#31
        0x0000046c:    086d        m.      LSRS     r5,r5,#1
        0x0000046e:    4315        .C      ORRS     r5,r5,r2
        0x00000470:    0864        d.      LSRS     r4,r4,#1
        0x00000472:    07c2        ..      LSLS     r2,r0,#31
        0x00000474:    4314        .C      ORRS     r4,r4,r2
        0x00000476:    9a03        ..      LDR      r2,[sp,#0xc]
        0x00000478:    2601        .&      MOVS     r6,#1
        0x0000047a:    0512        ..      LSLS     r2,r2,#20
        0x0000047c:    1ac0        ..      SUBS     r0,r0,r3
        0x0000047e:    4191        .A      SBCS     r1,r1,r2
        0x00000480:    0536        6.      LSLS     r6,r6,#20
        0x00000482:    1c00        ..      ADDS     r0,r0,#0
        0x00000484:    4171        qA      ADCS     r1,r1,r6
        0x00000486:    07ce        ..      LSLS     r6,r1,#31
        0x00000488:    0840        @.      LSRS     r0,r0,#1
        0x0000048a:    4330        0C      ORRS     r0,r0,r6
        0x0000048c:    0849        I.      LSRS     r1,r1,#1
        0x0000048e:    18c0        ..      ADDS     r0,r0,r3
        0x00000490:    4151        QA      ADCS     r1,r1,r2
        0x00000492:    462a        *F      MOV      r2,r5
        0x00000494:    4623        #F      MOV      r3,r4
        0x00000496:    f000f9f3    ....    BL       _double_round ; 0x880
        0x0000049a:    e7cd        ..      B        0x438 ; __aeabi_dadd + 200
        0x0000049c:    e7ff        ..      B        0x49e ; __aeabi_dadd + 302
        0x0000049e:    9804        ..      LDR      r0,[sp,#0x10]
        0x000004a0:    2201        ."      MOVS     r2,#1
        0x000004a2:    0040        @.      LSLS     r0,r0,#1
        0x000004a4:    17c1        ..      ASRS     r1,r0,#31
        0x000004a6:    1a12        ..      SUBS     r2,r2,r0
        0x000004a8:    2300        .#      MOVS     r3,#0
        0x000004aa:    418b        .A      SBCS     r3,r3,r1
        0x000004ac:    9804        ..      LDR      r0,[sp,#0x10]
        0x000004ae:    4631        1F      MOV      r1,r6
        0x000004b0:    17c4        ..      ASRS     r4,r0,#31
        0x000004b2:    1a38        8.      SUBS     r0,r7,r0
        0x000004b4:    41a1        .A      SBCS     r1,r1,r4
        0x000004b6:    e7ee        ..      B        0x496 ; __aeabi_dadd + 294
    __aeabi_dsub
        0x000004b8:    b430        0.      PUSH     {r4,r5}
        0x000004ba:    2401        .$      MOVS     r4,#1
        0x000004bc:    07e4        ..      LSLS     r4,r4,#31
        0x000004be:    4063        c@      EORS     r3,r3,r4
        0x000004c0:    bc30        0.      POP      {r4,r5}
        0x000004c2:    e755        U.      B        __aeabi_dadd ; 0x370
    __aeabi_drsub
        0x000004c4:    b430        0.      PUSH     {r4,r5}
        0x000004c6:    2401        .$      MOVS     r4,#1
        0x000004c8:    07e4        ..      LSLS     r4,r4,#31
        0x000004ca:    4061        a@      EORS     r1,r1,r4
        0x000004cc:    bc30        0.      POP      {r4,r5}
        0x000004ce:    e74f        O.      B        __aeabi_dadd ; 0x370
    $d
        0x000004d0:    ffe00000    ....    DCD    4292870144
    $t
    .text
    __aeabi_dmul
        0x000004d4:    b5f0        ..      PUSH     {r4-r7,lr}
        0x000004d6:    b41f        ..      PUSH     {r0-r4}
        0x000004d8:    b088        ..      SUB      sp,sp,#0x20
        0x000004da:    990b        ..      LDR      r1,[sp,#0x2c]
        0x000004dc:    9809        ..      LDR      r0,[sp,#0x24]
        0x000004de:    2400        .$      MOVS     r4,#0
        0x000004e0:    4048        H@      EORS     r0,r0,r1
        0x000004e2:    9909        ..      LDR      r1,[sp,#0x24]
        0x000004e4:    0fc0        ..      LSRS     r0,r0,#31
        0x000004e6:    0049        I.      LSLS     r1,r1,#1
        0x000004e8:    0849        I.      LSRS     r1,r1,#1
        0x000004ea:    9109        ..      STR      r1,[sp,#0x24]
        0x000004ec:    07c0        ..      LSLS     r0,r0,#31
        0x000004ee:    990b        ..      LDR      r1,[sp,#0x2c]
        0x000004f0:    9000        ..      STR      r0,[sp,#0]
        0x000004f2:    0049        I.      LSLS     r1,r1,#1
        0x000004f4:    0849        I.      LSRS     r1,r1,#1
        0x000004f6:    910b        ..      STR      r1,[sp,#0x2c]
        0x000004f8:    9909        ..      LDR      r1,[sp,#0x24]
        0x000004fa:    9808        ..      LDR      r0,[sp,#0x20]
        0x000004fc:    46a6        .F      MOV      lr,r4
        0x000004fe:    4308        .C      ORRS     r0,r0,r1
        0x00000500:    d01c        ..      BEQ      0x53c ; __aeabi_dmul + 104
        0x00000502:    990b        ..      LDR      r1,[sp,#0x2c]
        0x00000504:    980a        ..      LDR      r0,[sp,#0x28]
        0x00000506:    4308        .C      ORRS     r0,r0,r1
        0x00000508:    d018        ..      BEQ      0x53c ; __aeabi_dmul + 104
        0x0000050a:    9809        ..      LDR      r0,[sp,#0x24]
        0x0000050c:    2401        .$      MOVS     r4,#1
        0x0000050e:    0040        @.      LSLS     r0,r0,#1
        0x00000510:    0d42        B.      LSRS     r2,r0,#21
        0x00000512:    0048        H.      LSLS     r0,r1,#1
        0x00000514:    0d41        A.      LSRS     r1,r0,#21
        0x00000516:    9809        ..      LDR      r0,[sp,#0x24]
        0x00000518:    0524        $.      LSLS     r4,r4,#20
        0x0000051a:    0300        ..      LSLS     r0,r0,#12
        0x0000051c:    0b00        ..      LSRS     r0,r0,#12
        0x0000051e:    4320         C      ORRS     r0,r0,r4
        0x00000520:    9009        ..      STR      r0,[sp,#0x24]
        0x00000522:    980b        ..      LDR      r0,[sp,#0x2c]
        0x00000524:    0300        ..      LSLS     r0,r0,#12
        0x00000526:    0b00        ..      LSRS     r0,r0,#12
        0x00000528:    4320         C      ORRS     r0,r0,r4
        0x0000052a:    900b        ..      STR      r0,[sp,#0x2c]
        0x0000052c:    1850        P.      ADDS     r0,r2,r1
        0x0000052e:    491c        .I      LDR      r1,[pc,#112] ; [0x5a0] = 0xfffffc0d
        0x00000530:    1840        @.      ADDS     r0,r0,r1
        0x00000532:    2200        ."      MOVS     r2,#0
        0x00000534:    9001        ..      STR      r0,[sp,#4]
        0x00000536:    4614        .F      MOV      r4,r2
        0x00000538:    4610        .F      MOV      r0,r2
        0x0000053a:    e005        ..      B        0x548 ; __aeabi_dmul + 116
        0x0000053c:    2000        .       MOVS     r0,#0
        0x0000053e:    4601        .F      MOV      r1,r0
        0x00000540:    b00d        ..      ADD      sp,sp,#0x34
        0x00000542:    bdf0        ..      POP      {r4-r7,pc}
        0x00000544:    2803        .(      CMP      r0,#3
        0x00000546:    da01        ..      BGE      0x54c ; __aeabi_dmul + 120
        0x00000548:    4603        .F      MOV      r3,r0
        0x0000054a:    e000        ..      B        0x54e ; __aeabi_dmul + 122
        0x0000054c:    2303        .#      MOVS     r3,#3
        0x0000054e:    469c        .F      MOV      r12,r3
        0x00000550:    1ac1        ..      SUBS     r1,r0,r3
        0x00000552:    ae0a        ..      ADD      r6,sp,#0x28
        0x00000554:    e00a        ..      B        0x56c ; __aeabi_dmul + 152
        0x00000556:    005f        _.      LSLS     r7,r3,#1
        0x00000558:    ad08        ..      ADD      r5,sp,#0x20
        0x0000055a:    5bed        .[      LDRH     r5,[r5,r7]
        0x0000055c:    004f        O.      LSLS     r7,r1,#1
        0x0000055e:    5bf7        .[      LDRH     r7,[r6,r7]
        0x00000560:    437d        }C      MULS     r5,r7,r5
        0x00000562:    2700        .'      MOVS     r7,#0
        0x00000564:    18aa        ..      ADDS     r2,r5,r2
        0x00000566:    417c        |A      ADCS     r4,r4,r7
        0x00000568:    1c49        I.      ADDS     r1,r1,#1
        0x0000056a:    1e5b        [.      SUBS     r3,r3,#1
        0x0000056c:    4561        aE      CMP      r1,r12
        0x0000056e:    ddf2        ..      BLE      0x556 ; __aeabi_dmul + 130
        0x00000570:    0041        A.      LSLS     r1,r0,#1
        0x00000572:    ab04        ..      ADD      r3,sp,#0x10
        0x00000574:    525a        ZR      STRH     r2,[r3,r1]
        0x00000576:    0421        !.      LSLS     r1,r4,#16
        0x00000578:    0c12        ..      LSRS     r2,r2,#16
        0x0000057a:    430a        .C      ORRS     r2,r2,r1
        0x0000057c:    0c24        $.      LSRS     r4,r4,#16
        0x0000057e:    1c40        @.      ADDS     r0,r0,#1
        0x00000580:    2808        .(      CMP      r0,#8
        0x00000582:    dbdf        ..      BLT      0x544 ; __aeabi_dmul + 112
        0x00000584:    9801        ..      LDR      r0,[sp,#4]
        0x00000586:    9002        ..      STR      r0,[sp,#8]
        0x00000588:    9900        ..      LDR      r1,[sp,#0]
        0x0000058a:    4670        pF      MOV      r0,lr
        0x0000058c:    9101        ..      STR      r1,[sp,#4]
        0x0000058e:    9000        ..      STR      r0,[sp,#0]
        0x00000590:    9b05        ..      LDR      r3,[sp,#0x14]
        0x00000592:    9a04        ..      LDR      r2,[sp,#0x10]
        0x00000594:    9907        ..      LDR      r1,[sp,#0x1c]
        0x00000596:    9806        ..      LDR      r0,[sp,#0x18]
        0x00000598:    f000f97f    ....    BL       _double_epilogue ; 0x89a
        0x0000059c:    e7d0        ..      B        0x540 ; __aeabi_dmul + 108
    $d
        0x0000059e:    0000        ..      DCW    0
        0x000005a0:    fffffc0d    ....    DCD    4294966285
    $t
    .text
    __aeabi_ddiv
        0x000005a4:    b5f0        ..      PUSH     {r4-r7,lr}
        0x000005a6:    460c        .F      MOV      r4,r1
        0x000005a8:    405c        \@      EORS     r4,r4,r3
        0x000005aa:    b085        ..      SUB      sp,sp,#0x14
        0x000005ac:    0fe4        ..      LSRS     r4,r4,#31
        0x000005ae:    07e4        ..      LSLS     r4,r4,#31
        0x000005b0:    9403        ..      STR      r4,[sp,#0xc]
        0x000005b2:    004c        L.      LSLS     r4,r1,#1
        0x000005b4:    2600        .&      MOVS     r6,#0
        0x000005b6:    0864        d.      LSRS     r4,r4,#1
        0x000005b8:    0059        Y.      LSLS     r1,r3,#1
        0x000005ba:    4694        .F      MOV      r12,r2
        0x000005bc:    0849        I.      LSRS     r1,r1,#1
        0x000005be:    4602        .F      MOV      r2,r0
        0x000005c0:    9602        ..      STR      r6,[sp,#8]
        0x000005c2:    4322        "C      ORRS     r2,r2,r4
        0x000005c4:    d021        !.      BEQ      0x60a ; __aeabi_ddiv + 102
        0x000005c6:    4662        bF      MOV      r2,r12
        0x000005c8:    430a        .C      ORRS     r2,r2,r1
        0x000005ca:    d01e        ..      BEQ      0x60a ; __aeabi_ddiv + 102
        0x000005cc:    0062        b.      LSLS     r2,r4,#1
        0x000005ce:    0d57        W.      LSRS     r7,r2,#21
        0x000005d0:    004a        J.      LSLS     r2,r1,#1
        0x000005d2:    030e        ..      LSLS     r6,r1,#12
        0x000005d4:    0323        #.      LSLS     r3,r4,#12
        0x000005d6:    0d55        U.      LSRS     r5,r2,#21
        0x000005d8:    2401        .$      MOVS     r4,#1
        0x000005da:    4602        .F      MOV      r2,r0
        0x000005dc:    492c        ,I      LDR      r1,[pc,#176] ; [0x690] = 0x3fd
        0x000005de:    0524        $.      LSLS     r4,r4,#20
        0x000005e0:    1b78        x.      SUBS     r0,r7,r5
        0x000005e2:    0b1b        ..      LSRS     r3,r3,#12
        0x000005e4:    0b36        6.      LSRS     r6,r6,#12
        0x000005e6:    1840        @.      ADDS     r0,r0,r1
        0x000005e8:    4323        #C      ORRS     r3,r3,r4
        0x000005ea:    4326        &C      ORRS     r6,r6,r4
        0x000005ec:    4661        aF      MOV      r1,r12
        0x000005ee:    9000        ..      STR      r0,[sp,#0]
        0x000005f0:    461c        .F      MOV      r4,r3
        0x000005f2:    1a50        P.      SUBS     r0,r2,r1
        0x000005f4:    41b4        .A      SBCS     r4,r4,r6
        0x000005f6:    d303        ..      BCC      0x600 ; __aeabi_ddiv + 92
        0x000005f8:    9800        ..      LDR      r0,[sp,#0]
        0x000005fa:    1c40        @.      ADDS     r0,r0,#1
        0x000005fc:    9000        ..      STR      r0,[sp,#0]
        0x000005fe:    e002        ..      B        0x606 ; __aeabi_ddiv + 98
        0x00000600:    1892        ..      ADDS     r2,r2,r2
        0x00000602:    9800        ..      LDR      r0,[sp,#0]
        0x00000604:    415b        [A      ADCS     r3,r3,r3
        0x00000606:    2800        .(      CMP      r0,#0
        0x00000608:    da03        ..      BGE      0x612 ; __aeabi_ddiv + 110
        0x0000060a:    2000        .       MOVS     r0,#0
        0x0000060c:    4601        .F      MOV      r1,r0
        0x0000060e:    b005        ..      ADD      sp,sp,#0x14
        0x00000610:    bdf0        ..      POP      {r4-r7,pc}
        0x00000612:    2000        .       MOVS     r0,#0
        0x00000614:    2101        .!      MOVS     r1,#1
        0x00000616:    0509        ..      LSLS     r1,r1,#20
        0x00000618:    4607        .F      MOV      r7,r0
        0x0000061a:    4686        .F      MOV      lr,r0
        0x0000061c:    e011        ..      B        0x642 ; __aeabi_ddiv + 158
        0x0000061e:    4664        dF      MOV      r4,r12
        0x00000620:    461d        .F      MOV      r5,r3
        0x00000622:    1b14        ..      SUBS     r4,r2,r4
        0x00000624:    41b5        .A      SBCS     r5,r5,r6
        0x00000626:    d306        ..      BCC      0x636 ; __aeabi_ddiv + 146
        0x00000628:    4665        eF      MOV      r5,r12
        0x0000062a:    1b52        R.      SUBS     r2,r2,r5
        0x0000062c:    41b3        .A      SBCS     r3,r3,r6
        0x0000062e:    4674        tF      MOV      r4,lr
        0x00000630:    4307        .C      ORRS     r7,r7,r0
        0x00000632:    430c        .C      ORRS     r4,r4,r1
        0x00000634:    46a6        .F      MOV      lr,r4
        0x00000636:    07cd        ..      LSLS     r5,r1,#31
        0x00000638:    0840        @.      LSRS     r0,r0,#1
        0x0000063a:    0849        I.      LSRS     r1,r1,#1
        0x0000063c:    4328        (C      ORRS     r0,r0,r5
        0x0000063e:    1892        ..      ADDS     r2,r2,r2
        0x00000640:    415b        [A      ADCS     r3,r3,r3
        0x00000642:    4605        .F      MOV      r5,r0
        0x00000644:    430d        .C      ORRS     r5,r5,r1
        0x00000646:    d1ea        ..      BNE      0x61e ; __aeabi_ddiv + 122
        0x00000648:    4610        .F      MOV      r0,r2
        0x0000064a:    4318        .C      ORRS     r0,r0,r3
        0x0000064c:    d013        ..      BEQ      0x676 ; __aeabi_ddiv + 210
        0x0000064e:    4660        `F      MOV      r0,r12
        0x00000650:    4619        .F      MOV      r1,r3
        0x00000652:    4050        P@      EORS     r0,r0,r2
        0x00000654:    4071        q@      EORS     r1,r1,r6
        0x00000656:    4308        .C      ORRS     r0,r0,r1
        0x00000658:    d006        ..      BEQ      0x668 ; __aeabi_ddiv + 196
        0x0000065a:    4660        `F      MOV      r0,r12
        0x0000065c:    1a10        ..      SUBS     r0,r2,r0
        0x0000065e:    41b3        .A      SBCS     r3,r3,r6
        0x00000660:    d206        ..      BCS      0x670 ; __aeabi_ddiv + 204
        0x00000662:    2201        ."      MOVS     r2,#1
        0x00000664:    2300        .#      MOVS     r3,#0
        0x00000666:    e006        ..      B        0x676 ; __aeabi_ddiv + 210
        0x00000668:    2200        ."      MOVS     r2,#0
        0x0000066a:    2301        .#      MOVS     r3,#1
        0x0000066c:    07db        ..      LSLS     r3,r3,#31
        0x0000066e:    e002        ..      B        0x676 ; __aeabi_ddiv + 210
        0x00000670:    2201        ."      MOVS     r2,#1
        0x00000672:    43d2        .C      MVNS     r2,r2
        0x00000674:    1053        S.      ASRS     r3,r2,#1
        0x00000676:    9800        ..      LDR      r0,[sp,#0]
        0x00000678:    4674        tF      MOV      r4,lr
        0x0000067a:    0501        ..      LSLS     r1,r0,#20
        0x0000067c:    1c38        8.      ADDS     r0,r7,#0
        0x0000067e:    4161        aA      ADCS     r1,r1,r4
        0x00000680:    9c02        ..      LDR      r4,[sp,#8]
        0x00000682:    9d03        ..      LDR      r5,[sp,#0xc]
        0x00000684:    1900        ..      ADDS     r0,r0,r4
        0x00000686:    4169        iA      ADCS     r1,r1,r5
        0x00000688:    f000f8fa    ....    BL       _double_round ; 0x880
        0x0000068c:    e7bf        ..      B        0x60e ; __aeabi_ddiv + 106
    $d
        0x0000068e:    0000        ..      DCW    0
        0x00000690:    000003fd    ....    DCD    1021
    $t
    .text
    __ARM_scalbn
    scalbn
        0x00000694:    b570        p.      PUSH     {r4-r6,lr}
        0x00000696:    004b        K.      LSLS     r3,r1,#1
        0x00000698:    085b        [.      LSRS     r3,r3,#1
        0x0000069a:    4303        .C      ORRS     r3,r3,r0
        0x0000069c:    d00b        ..      BEQ      0x6b6 ; __ARM_scalbn + 34
        0x0000069e:    004b        K.      LSLS     r3,r1,#1
        0x000006a0:    0d5c        \.      LSRS     r4,r3,#21
        0x000006a2:    2600        .&      MOVS     r6,#0
        0x000006a4:    4633        3F      MOV      r3,r6
        0x000006a6:    4265        eB      RSBS     r5,r4,#0
        0x000006a8:    41b3        .A      SBCS     r3,r3,r6
        0x000006aa:    17d4        ..      ASRS     r4,r2,#31
        0x000006ac:    1aad        ..      SUBS     r5,r5,r2
        0x000006ae:    41a3        .A      SBCS     r3,r3,r4
        0x000006b0:    db02        ..      BLT      0x6b8 ; __ARM_scalbn + 36
        0x000006b2:    2000        .       MOVS     r0,#0
        0x000006b4:    4601        .F      MOV      r1,r0
        0x000006b6:    bd70        p.      POP      {r4-r6,pc}
        0x000006b8:    0512        ..      LSLS     r2,r2,#20
        0x000006ba:    1830        0.      ADDS     r0,r6,r0
        0x000006bc:    4151        QA      ADCS     r1,r1,r2
        0x000006be:    bd70        p.      POP      {r4-r6,pc}
    .text
    __aeabi_i2f
        0x000006c0:    17c2        ..      ASRS     r2,r0,#31
        0x000006c2:    0fc1        ..      LSRS     r1,r0,#31
        0x000006c4:    4050        P@      EORS     r0,r0,r2
        0x000006c6:    b510        ..      PUSH     {r4,lr}
        0x000006c8:    1840        @.      ADDS     r0,r0,r1
        0x000006ca:    07ca        ..      LSLS     r2,r1,#31
        0x000006cc:    2396        .#      MOVS     r3,#0x96
        0x000006ce:    2100        .!      MOVS     r1,#0
        0x000006d0:    f000f89d    ....    BL       _float_epilogue ; 0x80e
        0x000006d4:    bd10        ..      POP      {r4,pc}
    .text
    __aeabi_ui2f
        0x000006d6:    b510        ..      PUSH     {r4,lr}
        0x000006d8:    2200        ."      MOVS     r2,#0
        0x000006da:    2396        .#      MOVS     r3,#0x96
        0x000006dc:    4611        .F      MOV      r1,r2
        0x000006de:    f000f896    ....    BL       _float_epilogue ; 0x80e
        0x000006e2:    bd10        ..      POP      {r4,pc}
    .text
    __aeabi_f2d
        0x000006e4:    0fc2        ..      LSRS     r2,r0,#31
        0x000006e6:    07d2        ..      LSLS     r2,r2,#31
        0x000006e8:    0040        @.      LSLS     r0,r0,#1
        0x000006ea:    0840        @.      LSRS     r0,r0,#1
        0x000006ec:    d00b        ..      BEQ      0x706 ; __aeabi_f2d + 34
        0x000006ee:    0dc1        ..      LSRS     r1,r0,#23
        0x000006f0:    2307        .#      MOVS     r3,#7
        0x000006f2:    01db        ..      LSLS     r3,r3,#7
        0x000006f4:    18c9        ..      ADDS     r1,r1,r3
        0x000006f6:    0240        @.      LSLS     r0,r0,#9
        0x000006f8:    0509        ..      LSLS     r1,r1,#20
        0x000006fa:    0a40        @.      LSRS     r0,r0,#9
        0x000006fc:    4311        .C      ORRS     r1,r1,r2
        0x000006fe:    08c2        ..      LSRS     r2,r0,#3
        0x00000700:    0740        @.      LSLS     r0,r0,#29
        0x00000702:    4311        .C      ORRS     r1,r1,r2
        0x00000704:    4770        pG      BX       lr
        0x00000706:    2000        .       MOVS     r0,#0
        0x00000708:    4601        .F      MOV      r1,r0
        0x0000070a:    4770        pG      BX       lr
    .text
    __aeabi_d2f
        0x0000070c:    0fcb        ..      LSRS     r3,r1,#31
        0x0000070e:    07db        ..      LSLS     r3,r3,#31
        0x00000710:    0049        I.      LSLS     r1,r1,#1
        0x00000712:    b510        ..      PUSH     {r4,lr}
        0x00000714:    0849        I.      LSRS     r1,r1,#1
        0x00000716:    4602        .F      MOV      r2,r0
        0x00000718:    430a        .C      ORRS     r2,r2,r1
        0x0000071a:    d007        ..      BEQ      0x72c ; __aeabi_d2f + 32
        0x0000071c:    0d0a        ..      LSRS     r2,r1,#20
        0x0000071e:    2407        .$      MOVS     r4,#7
        0x00000720:    0309        ..      LSLS     r1,r1,#12
        0x00000722:    01e4        ..      LSLS     r4,r4,#7
        0x00000724:    0b09        ..      LSRS     r1,r1,#12
        0x00000726:    1b12        ..      SUBS     r2,r2,r4
        0x00000728:    2a00        .*      CMP      r2,#0
        0x0000072a:    dc01        ..      BGT      0x730 ; __aeabi_d2f + 36
        0x0000072c:    2000        .       MOVS     r0,#0
        0x0000072e:    bd10        ..      POP      {r4,pc}
        0x00000730:    00c9        ..      LSLS     r1,r1,#3
        0x00000732:    0f44        D.      LSRS     r4,r0,#29
        0x00000734:    430c        .C      ORRS     r4,r4,r1
        0x00000736:    00c1        ..      LSLS     r1,r0,#3
        0x00000738:    18e0        ..      ADDS     r0,r4,r3
        0x0000073a:    05d2        ..      LSLS     r2,r2,#23
        0x0000073c:    1880        ..      ADDS     r0,r0,r2
        0x0000073e:    f000f85e    ..^.    BL       __I$use$fp ; 0x7fe
        0x00000742:    bd10        ..      POP      {r4,pc}
    .text
    __aeabi_cfrcmple
        0x00000744:    2201        ."      MOVS     r2,#1
        0x00000746:    07d2        ..      LSLS     r2,r2,#31
        0x00000748:    2800        .(      CMP      r0,#0
        0x0000074a:    db00        ..      BLT      0x74e ; __aeabi_cfrcmple + 10
        0x0000074c:    1a10        ..      SUBS     r0,r2,r0
        0x0000074e:    2900        .)      CMP      r1,#0
        0x00000750:    db00        ..      BLT      0x754 ; __aeabi_cfrcmple + 16
        0x00000752:    1a51        Q.      SUBS     r1,r2,r1
        0x00000754:    4288        .B      CMP      r0,r1
        0x00000756:    4770        pG      BX       lr
    .text
    __aeabi_uldivmod
        0x00000758:    b5f0        ..      PUSH     {r4-r7,lr}
        0x0000075a:    b41f        ..      PUSH     {r0-r4}
        0x0000075c:    4606        .F      MOV      r6,r0
        0x0000075e:    2000        .       MOVS     r0,#0
        0x00000760:    b082        ..      SUB      sp,sp,#8
        0x00000762:    4605        .F      MOV      r5,r0
        0x00000764:    2440        @$      MOVS     r4,#0x40
        0x00000766:    9101        ..      STR      r1,[sp,#4]
        0x00000768:    9000        ..      STR      r0,[sp,#0]
        0x0000076a:    e01b        ..      B        0x7a4 ; __aeabi_uldivmod + 76
        0x0000076c:    9901        ..      LDR      r1,[sp,#4]
        0x0000076e:    4622        "F      MOV      r2,r4
        0x00000770:    460f        .F      MOV      r7,r1
        0x00000772:    4630        0F      MOV      r0,r6
        0x00000774:    f000f9c6    ....    BL       __aeabi_llsr ; 0xb04
        0x00000778:    9a04        ..      LDR      r2,[sp,#0x10]
        0x0000077a:    9b05        ..      LDR      r3,[sp,#0x14]
        0x0000077c:    1a80        ..      SUBS     r0,r0,r2
        0x0000077e:    4199        .A      SBCS     r1,r1,r3
        0x00000780:    d310        ..      BCC      0x7a4 ; __aeabi_uldivmod + 76
        0x00000782:    4610        .F      MOV      r0,r2
        0x00000784:    4619        .F      MOV      r1,r3
        0x00000786:    4622        "F      MOV      r2,r4
        0x00000788:    f000f816    ....    BL       __aeabi_llsl ; 0x7b8
        0x0000078c:    1a36        6.      SUBS     r6,r6,r0
        0x0000078e:    418f        .A      SBCS     r7,r7,r1
        0x00000790:    9701        ..      STR      r7,[sp,#4]
        0x00000792:    4622        "F      MOV      r2,r4
        0x00000794:    2001        .       MOVS     r0,#1
        0x00000796:    2100        .!      MOVS     r1,#0
        0x00000798:    9f00        ..      LDR      r7,[sp,#0]
        0x0000079a:    f000f80d    ....    BL       __aeabi_llsl ; 0x7b8
        0x0000079e:    1838        8.      ADDS     r0,r7,r0
        0x000007a0:    414d        MA      ADCS     r5,r5,r1
        0x000007a2:    9000        ..      STR      r0,[sp,#0]
        0x000007a4:    4620         F      MOV      r0,r4
        0x000007a6:    1e64        d.      SUBS     r4,r4,#1
        0x000007a8:    2800        .(      CMP      r0,#0
        0x000007aa:    dcdf        ..      BGT      0x76c ; __aeabi_uldivmod + 20
        0x000007ac:    9b01        ..      LDR      r3,[sp,#4]
        0x000007ae:    9800        ..      LDR      r0,[sp,#0]
        0x000007b0:    4629        )F      MOV      r1,r5
        0x000007b2:    4632        2F      MOV      r2,r6
        0x000007b4:    b007        ..      ADD      sp,sp,#0x1c
        0x000007b6:    bdf0        ..      POP      {r4-r7,pc}
    .text
    __aeabi_llsl
    _ll_shift_l
        0x000007b8:    b510        ..      PUSH     {r4,lr}
        0x000007ba:    2a20         *      CMP      r2,#0x20
        0x000007bc:    db04        ..      BLT      0x7c8 ; __aeabi_llsl + 16
        0x000007be:    4601        .F      MOV      r1,r0
        0x000007c0:    3a20         :      SUBS     r2,r2,#0x20
        0x000007c2:    4091        .@      LSLS     r1,r1,r2
        0x000007c4:    2000        .       MOVS     r0,#0
        0x000007c6:    bd10        ..      POP      {r4,pc}
        0x000007c8:    4091        .@      LSLS     r1,r1,r2
        0x000007ca:    2320         #      MOVS     r3,#0x20
        0x000007cc:    1a9c        ..      SUBS     r4,r3,r2
        0x000007ce:    4603        .F      MOV      r3,r0
        0x000007d0:    40e3        .@      LSRS     r3,r3,r4
        0x000007d2:    4319        .C      ORRS     r1,r1,r3
        0x000007d4:    4090        .@      LSLS     r0,r0,r2
        0x000007d6:    bd10        ..      POP      {r4,pc}
    .text
    __aeabi_lasr
    _ll_sshift_r
        0x000007d8:    b510        ..      PUSH     {r4,lr}
        0x000007da:    2a20         *      CMP      r2,#0x20
        0x000007dc:    db06        ..      BLT      0x7ec ; __aeabi_lasr + 20
        0x000007de:    17cb        ..      ASRS     r3,r1,#31
        0x000007e0:    4608        .F      MOV      r0,r1
        0x000007e2:    3a20         :      SUBS     r2,r2,#0x20
        0x000007e4:    4110        .A      ASRS     r0,r0,r2
        0x000007e6:    17c1        ..      ASRS     r1,r0,#31
        0x000007e8:    430b        .C      ORRS     r3,r3,r1
        0x000007ea:    e006        ..      B        0x7fa ; __aeabi_lasr + 34
        0x000007ec:    460b        .F      MOV      r3,r1
        0x000007ee:    4113        .A      ASRS     r3,r3,r2
        0x000007f0:    40d0        .@      LSRS     r0,r0,r2
        0x000007f2:    2420         $      MOVS     r4,#0x20
        0x000007f4:    1aa2        ..      SUBS     r2,r4,r2
        0x000007f6:    4091        .@      LSLS     r1,r1,r2
        0x000007f8:    4308        .C      ORRS     r0,r0,r1
        0x000007fa:    4619        .F      MOV      r1,r3
        0x000007fc:    bd10        ..      POP      {r4,pc}
    .text
    .text
    __I$use$fp
    _float_round
        0x000007fe:    2900        .)      CMP      r1,#0
        0x00000800:    da04        ..      BGE      0x80c ; __I$use$fp + 14
        0x00000802:    1c40        @.      ADDS     r0,r0,#1
        0x00000804:    0049        I.      LSLS     r1,r1,#1
        0x00000806:    d101        ..      BNE      0x80c ; __I$use$fp + 14
        0x00000808:    0840        @.      LSRS     r0,r0,#1
        0x0000080a:    0040        @.      LSLS     r0,r0,#1
        0x0000080c:    4770        pG      BX       lr
    _float_epilogue
        0x0000080e:    b470        p.      PUSH     {r4-r6}
        0x00000810:    2400        .$      MOVS     r4,#0
        0x00000812:    0c05        ..      LSRS     r5,r0,#16
        0x00000814:    d105        ..      BNE      0x822 ; _float_epilogue + 20
        0x00000816:    2410        .$      MOVS     r4,#0x10
        0x00000818:    0400        ..      LSLS     r0,r0,#16
        0x0000081a:    d102        ..      BNE      0x822 ; _float_epilogue + 20
        0x0000081c:    2900        .)      CMP      r1,#0
        0x0000081e:    d021        !.      BEQ      0x864 ; _float_epilogue + 86
        0x00000820:    2411        .$      MOVS     r4,#0x11
        0x00000822:    0e05        ..      LSRS     r5,r0,#24
        0x00000824:    d101        ..      BNE      0x82a ; _float_epilogue + 28
        0x00000826:    0200        ..      LSLS     r0,r0,#8
        0x00000828:    3408        .4      ADDS     r4,r4,#8
        0x0000082a:    0f05        ..      LSRS     r5,r0,#28
        0x0000082c:    d101        ..      BNE      0x832 ; _float_epilogue + 36
        0x0000082e:    0100        ..      LSLS     r0,r0,#4
        0x00000830:    1d24        $.      ADDS     r4,r4,#4
        0x00000832:    0f85        ..      LSRS     r5,r0,#30
        0x00000834:    d101        ..      BNE      0x83a ; _float_epilogue + 44
        0x00000836:    0080        ..      LSLS     r0,r0,#2
        0x00000838:    1ca4        ..      ADDS     r4,r4,#2
        0x0000083a:    2800        .(      CMP      r0,#0
        0x0000083c:    db01        ..      BLT      0x842 ; _float_epilogue + 52
        0x0000083e:    0040        @.      LSLS     r0,r0,#1
        0x00000840:    1c64        d.      ADDS     r4,r4,#1
        0x00000842:    2900        .)      CMP      r1,#0
        0x00000844:    d008        ..      BEQ      0x858 ; _float_epilogue + 74
        0x00000846:    2520         %      MOVS     r5,#0x20
        0x00000848:    1b2e        ..      SUBS     r6,r5,r4
        0x0000084a:    460d        .F      MOV      r5,r1
        0x0000084c:    40f5        .@      LSRS     r5,r5,r6
        0x0000084e:    40a1        .@      LSLS     r1,r1,r4
        0x00000850:    d000        ..      BEQ      0x854 ; _float_epilogue + 70
        0x00000852:    2101        .!      MOVS     r1,#1
        0x00000854:    4329        )C      ORRS     r1,r1,r5
        0x00000856:    4308        .C      ORRS     r0,r0,r1
        0x00000858:    0601        ..      LSLS     r1,r0,#24
        0x0000085a:    1b1b        ..      SUBS     r3,r3,r4
        0x0000085c:    0a00        ..      LSRS     r0,r0,#8
        0x0000085e:    1ddb        ..      ADDS     r3,r3,#7
        0x00000860:    d502        ..      BPL      0x868 ; _float_epilogue + 90
        0x00000862:    2000        .       MOVS     r0,#0
        0x00000864:    bc70        p.      POP      {r4-r6}
        0x00000866:    4770        pG      BX       lr
        0x00000868:    05db        ..      LSLS     r3,r3,#23
        0x0000086a:    1818        ..      ADDS     r0,r3,r0
        0x0000086c:    1880        ..      ADDS     r0,r0,r2
        0x0000086e:    2900        .)      CMP      r1,#0
        0x00000870:    daf8        ..      BGE      0x864 ; _float_epilogue + 86
        0x00000872:    1c40        @.      ADDS     r0,r0,#1
        0x00000874:    0049        I.      LSLS     r1,r1,#1
        0x00000876:    d1f5        ..      BNE      0x864 ; _float_epilogue + 86
        0x00000878:    bc70        p.      POP      {r4-r6}
        0x0000087a:    0840        @.      LSRS     r0,r0,#1
        0x0000087c:    0040        @.      LSLS     r0,r0,#1
        0x0000087e:    4770        pG      BX       lr
    .text
    _double_round
        0x00000880:    b510        ..      PUSH     {r4,lr}
        0x00000882:    2b00        .+      CMP      r3,#0
        0x00000884:    da08        ..      BGE      0x898 ; _double_round + 24
        0x00000886:    2400        .$      MOVS     r4,#0
        0x00000888:    1c40        @.      ADDS     r0,r0,#1
        0x0000088a:    4161        aA      ADCS     r1,r1,r4
        0x0000088c:    1892        ..      ADDS     r2,r2,r2
        0x0000088e:    415b        [A      ADCS     r3,r3,r3
        0x00000890:    431a        .C      ORRS     r2,r2,r3
        0x00000892:    d101        ..      BNE      0x898 ; _double_round + 24
        0x00000894:    0840        @.      LSRS     r0,r0,#1
        0x00000896:    0040        @.      LSLS     r0,r0,#1
        0x00000898:    bd10        ..      POP      {r4,pc}
    _double_epilogue
        0x0000089a:    b5f0        ..      PUSH     {r4-r7,lr}
        0x0000089c:    b41f        ..      PUSH     {r0-r4}
        0x0000089e:    b082        ..      SUB      sp,sp,#8
        0x000008a0:    4605        .F      MOV      r5,r0
        0x000008a2:    000c        ..      MOVS     r4,r1
        0x000008a4:    d003        ..      BEQ      0x8ae ; _double_epilogue + 20
        0x000008a6:    4608        .F      MOV      r0,r1
        0x000008a8:    f000fe52    ..R.    BL       __ARM_clz ; 0x1550
        0x000008ac:    e002        ..      B        0x8b4 ; _double_epilogue + 26
        0x000008ae:    f000fe4f    ..O.    BL       __ARM_clz ; 0x1550
        0x000008b2:    3020         0      ADDS     r0,r0,#0x20
        0x000008b4:    4602        .F      MOV      r2,r0
        0x000008b6:    9000        ..      STR      r0,[sp,#0]
        0x000008b8:    4621        !F      MOV      r1,r4
        0x000008ba:    4628        (F      MOV      r0,r5
        0x000008bc:    f7ffff7c    ..|.    BL       __aeabi_llsl ; 0x7b8
        0x000008c0:    9b04        ..      LDR      r3,[sp,#0x10]
        0x000008c2:    9a05        ..      LDR      r2,[sp,#0x14]
        0x000008c4:    4604        .F      MOV      r4,r0
        0x000008c6:    460f        .F      MOV      r7,r1
        0x000008c8:    4318        .C      ORRS     r0,r0,r3
        0x000008ca:    4311        .C      ORRS     r1,r1,r2
        0x000008cc:    4308        .C      ORRS     r0,r0,r1
        0x000008ce:    d014        ..      BEQ      0x8fa ; _double_epilogue + 96
        0x000008d0:    4618        .F      MOV      r0,r3
        0x000008d2:    4310        .C      ORRS     r0,r0,r2
        0x000008d4:    d01b        ..      BEQ      0x90e ; _double_epilogue + 116
        0x000008d6:    9800        ..      LDR      r0,[sp,#0]
        0x000008d8:    2140        @!      MOVS     r1,#0x40
        0x000008da:    1a0a        ..      SUBS     r2,r1,r0
        0x000008dc:    4618        .F      MOV      r0,r3
        0x000008de:    9905        ..      LDR      r1,[sp,#0x14]
        0x000008e0:    f000f910    ....    BL       __aeabi_llsr ; 0xb04
        0x000008e4:    4605        .F      MOV      r5,r0
        0x000008e6:    460e        .F      MOV      r6,r1
        0x000008e8:    9a00        ..      LDR      r2,[sp,#0]
        0x000008ea:    9905        ..      LDR      r1,[sp,#0x14]
        0x000008ec:    9804        ..      LDR      r0,[sp,#0x10]
        0x000008ee:    f7ffff63    ..c.    BL       __aeabi_llsl ; 0x7b8
        0x000008f2:    4308        .C      ORRS     r0,r0,r1
        0x000008f4:    d005        ..      BEQ      0x902 ; _double_epilogue + 104
        0x000008f6:    2001        .       MOVS     r0,#1
        0x000008f8:    e004        ..      B        0x904 ; _double_epilogue + 106
        0x000008fa:    4620         F      MOV      r0,r4
        0x000008fc:    4639        9F      MOV      r1,r7
        0x000008fe:    b007        ..      ADD      sp,sp,#0x1c
        0x00000900:    bdf0        ..      POP      {r4-r7,pc}
        0x00000902:    2000        .       MOVS     r0,#0
        0x00000904:    17c1        ..      ASRS     r1,r0,#31
        0x00000906:    4305        .C      ORRS     r5,r5,r0
        0x00000908:    430e        .C      ORRS     r6,r6,r1
        0x0000090a:    432c        ,C      ORRS     r4,r4,r5
        0x0000090c:    4337        7C      ORRS     r7,r7,r6
        0x0000090e:    9900        ..      LDR      r1,[sp,#0]
        0x00000910:    980e        ..      LDR      r0,[sp,#0x38]
        0x00000912:    0563        c.      LSLS     r3,r4,#21
        0x00000914:    1a40        @.      SUBS     r0,r0,r1
        0x00000916:    0579        y.      LSLS     r1,r7,#21
        0x00000918:    0ae4        ..      LSRS     r4,r4,#11
        0x0000091a:    2200        ."      MOVS     r2,#0
        0x0000091c:    430c        .C      ORRS     r4,r4,r1
        0x0000091e:    0afd        ..      LSRS     r5,r7,#11
        0x00000920:    300a        .0      ADDS     r0,r0,#0xa
        0x00000922:    d502        ..      BPL      0x92a ; _double_epilogue + 144
        0x00000924:    2000        .       MOVS     r0,#0
        0x00000926:    4601        .F      MOV      r1,r0
        0x00000928:    e7e9        ..      B        0x8fe ; _double_epilogue + 100
        0x0000092a:    0501        ..      LSLS     r1,r0,#20
        0x0000092c:    1910        ..      ADDS     r0,r2,r4
        0x0000092e:    4169        iA      ADCS     r1,r1,r5
        0x00000930:    9c0c        ..      LDR      r4,[sp,#0x30]
        0x00000932:    9d0d        ..      LDR      r5,[sp,#0x34]
        0x00000934:    1900        ..      ADDS     r0,r0,r4
        0x00000936:    4169        iA      ADCS     r1,r1,r5
        0x00000938:    f7ffffa2    ....    BL       _double_round ; 0x880
        0x0000093c:    e7df        ..      B        0x8fe ; _double_epilogue + 100
    .text
    _dsqrt
        0x0000093e:    b5fe        ..      PUSH     {r1-r7,lr}
        0x00000940:    2300        .#      MOVS     r3,#0
        0x00000942:    461a        .F      MOV      r2,r3
        0x00000944:    1a1b        ..      SUBS     r3,r3,r0
        0x00000946:    418a        .A      SBCS     r2,r2,r1
        0x00000948:    db03        ..      BLT      0x952 ; _dsqrt + 20
        0x0000094a:    2000        .       MOVS     r0,#0
        0x0000094c:    4601        .F      MOV      r1,r0
        0x0000094e:    b003        ..      ADD      sp,sp,#0xc
        0x00000950:    bdf0        ..      POP      {r4-r7,pc}
        0x00000952:    004a        J.      LSLS     r2,r1,#1
        0x00000954:    030d        ..      LSLS     r5,r1,#12
        0x00000956:    2101        .!      MOVS     r1,#1
        0x00000958:    0b2d        -.      LSRS     r5,r5,#12
        0x0000095a:    0509        ..      LSLS     r1,r1,#20
        0x0000095c:    0d52        R.      LSRS     r2,r2,#21
        0x0000095e:    430d        .C      ORRS     r5,r5,r1
        0x00000960:    07d1        ..      LSLS     r1,r2,#31
        0x00000962:    d102        ..      BNE      0x96a ; _dsqrt + 44
        0x00000964:    1800        ..      ADDS     r0,r0,r0
        0x00000966:    416d        mA      ADCS     r5,r5,r5
        0x00000968:    1e52        R.      SUBS     r2,r2,#1
        0x0000096a:    1051        Q.      ASRS     r1,r2,#1
        0x0000096c:    31ff        .1      ADDS     r1,r1,#0xff
        0x0000096e:    31ff        .1      ADDS     r1,r1,#0xff
        0x00000970:    3101        .1      ADDS     r1,#1
        0x00000972:    2700        .'      MOVS     r7,#0
        0x00000974:    4604        .F      MOV      r4,r0
        0x00000976:    463e        >F      MOV      r6,r7
        0x00000978:    4638        8F      MOV      r0,r7
        0x0000097a:    9700        ..      STR      r7,[sp,#0]
        0x0000097c:    9101        ..      STR      r1,[sp,#4]
        0x0000097e:    4602        .F      MOV      r2,r0
        0x00000980:    2101        .!      MOVS     r1,#1
        0x00000982:    2000        .       MOVS     r0,#0
        0x00000984:    0509        ..      LSLS     r1,r1,#20
        0x00000986:    f000f8bd    ....    BL       __aeabi_llsr ; 0xb04
        0x0000098a:    19c3        ..      ADDS     r3,r0,r7
        0x0000098c:    4171        qA      ADCS     r1,r1,r6
        0x0000098e:    18f8        ..      ADDS     r0,r7,r3
        0x00000990:    4632        2F      MOV      r2,r6
        0x00000992:    4684        .F      MOV      r12,r0
        0x00000994:    468e        .F      MOV      lr,r1
        0x00000996:    414a        JA      ADCS     r2,r2,r1
        0x00000998:    4661        aF      MOV      r1,r12
        0x0000099a:    4628        (F      MOV      r0,r5
        0x0000099c:    1a61        a.      SUBS     r1,r4,r1
        0x0000099e:    4190        .A      SBCS     r0,r0,r2
        0x000009a0:    d304        ..      BCC      0x9ac ; _dsqrt + 110
        0x000009a2:    4660        `F      MOV      r0,r12
        0x000009a4:    1a24        $.      SUBS     r4,r4,r0
        0x000009a6:    4195        .A      SBCS     r5,r5,r2
        0x000009a8:    4676        vF      MOV      r6,lr
        0x000009aa:    461f        .F      MOV      r7,r3
        0x000009ac:    1924        $.      ADDS     r4,r4,r4
        0x000009ae:    9800        ..      LDR      r0,[sp,#0]
        0x000009b0:    416d        mA      ADCS     r5,r5,r5
        0x000009b2:    1c40        @.      ADDS     r0,r0,#1
        0x000009b4:    9000        ..      STR      r0,[sp,#0]
        0x000009b6:    2834        4(      CMP      r0,#0x34
        0x000009b8:    dde1        ..      BLE      0x97e ; _dsqrt + 64
        0x000009ba:    19f9        ..      ADDS     r1,r7,r7
        0x000009bc:    4630        0F      MOV      r0,r6
        0x000009be:    4170        pA      ADCS     r0,r0,r6
        0x000009c0:    1b09        ..      SUBS     r1,r1,r4
        0x000009c2:    41a8        .A      SBCS     r0,r0,r5
        0x000009c4:    d203        ..      BCS      0x9ce ; _dsqrt + 144
        0x000009c6:    2200        ."      MOVS     r2,#0
        0x000009c8:    43d2        .C      MVNS     r2,r2
        0x000009ca:    4613        .F      MOV      r3,r2
        0x000009cc:    e001        ..      B        0x9d2 ; _dsqrt + 148
        0x000009ce:    2200        ."      MOVS     r2,#0
        0x000009d0:    4613        .F      MOV      r3,r2
        0x000009d2:    9801        ..      LDR      r0,[sp,#4]
        0x000009d4:    0501        ..      LSLS     r1,r0,#20
        0x000009d6:    1c38        8.      ADDS     r0,r7,#0
        0x000009d8:    4171        qA      ADCS     r1,r1,r6
        0x000009da:    f7ffff51    ..Q.    BL       _double_round ; 0x880
        0x000009de:    e7b6        ..      B        0x94e ; _dsqrt + 16
    .text
    __aeabi_i2d
        0x000009e0:    b50e        ..      PUSH     {r1-r3,lr}
        0x000009e2:    17c2        ..      ASRS     r2,r0,#31
        0x000009e4:    0fc1        ..      LSRS     r1,r0,#31
        0x000009e6:    4050        P@      EORS     r0,r0,r2
        0x000009e8:    07ca        ..      LSLS     r2,r1,#31
        0x000009ea:    1840        @.      ADDS     r0,r0,r1
        0x000009ec:    2100        .!      MOVS     r1,#0
        0x000009ee:    4b05        .K      LDR      r3,[pc,#20] ; [0xa04] = 0x433
        0x000009f0:    9302        ..      STR      r3,[sp,#8]
        0x000009f2:    9201        ..      STR      r2,[sp,#4]
        0x000009f4:    9100        ..      STR      r1,[sp,#0]
        0x000009f6:    460a        .F      MOV      r2,r1
        0x000009f8:    460b        .F      MOV      r3,r1
        0x000009fa:    f7ffff4e    ..N.    BL       _double_epilogue ; 0x89a
        0x000009fe:    b003        ..      ADD      sp,sp,#0xc
        0x00000a00:    bd00        ..      POP      {pc}
    $d
        0x00000a02:    0000        ..      DCW    0
        0x00000a04:    00000433    3...    DCD    1075
    $t
    .text
    __aeabi_d2iz
        0x00000a08:    b570        p.      PUSH     {r4-r6,lr}
        0x00000a0a:    0fcd        ..      LSRS     r5,r1,#31
        0x00000a0c:    004a        J.      LSLS     r2,r1,#1
        0x00000a0e:    0309        ..      LSLS     r1,r1,#12
        0x00000a10:    2301        .#      MOVS     r3,#1
        0x00000a12:    0b09        ..      LSRS     r1,r1,#12
        0x00000a14:    051b        ..      LSLS     r3,r3,#20
        0x00000a16:    4319        .C      ORRS     r1,r1,r3
        0x00000a18:    4b0b        .K      LDR      r3,[pc,#44] ; [0xa48] = 0x3ff
        0x00000a1a:    07ed        ..      LSLS     r5,r5,#31
        0x00000a1c:    2400        .$      MOVS     r4,#0
        0x00000a1e:    0d52        R.      LSRS     r2,r2,#21
        0x00000a20:    429a        .B      CMP      r2,r3
        0x00000a22:    da01        ..      BGE      0xa28 ; __aeabi_d2iz + 32
        0x00000a24:    2000        .       MOVS     r0,#0
        0x00000a26:    bd70        p.      POP      {r4-r6,pc}
        0x00000a28:    4b07        .K      LDR      r3,[pc,#28] ; [0xa48] = 0x3ff
        0x00000a2a:    3334        43      ADDS     r3,r3,#0x34
        0x00000a2c:    429a        .B      CMP      r2,r3
        0x00000a2e:    dc03        ..      BGT      0xa38 ; __aeabi_d2iz + 48
        0x00000a30:    1a9a        ..      SUBS     r2,r3,r2
        0x00000a32:    f000f867    ..g.    BL       __aeabi_llsr ; 0xb04
        0x00000a36:    e002        ..      B        0xa3e ; __aeabi_d2iz + 54
        0x00000a38:    4904        .I      LDR      r1,[pc,#16] ; [0xa4c] = 0xfffffbcd
        0x00000a3a:    1851        Q.      ADDS     r1,r2,r1
        0x00000a3c:    4088        .@      LSLS     r0,r0,r1
        0x00000a3e:    432c        ,C      ORRS     r4,r4,r5
        0x00000a40:    d0f1        ..      BEQ      0xa26 ; __aeabi_d2iz + 30
        0x00000a42:    4240        @B      RSBS     r0,r0,#0
        0x00000a44:    bd70        p.      POP      {r4-r6,pc}
    $d
        0x00000a46:    0000        ..      DCW    0
        0x00000a48:    000003ff    ....    DCD    1023
        0x00000a4c:    fffffbcd    ....    DCD    4294966221
    $t
    .text
    __aeabi_d2ulz
        0x00000a50:    004a        J.      LSLS     r2,r1,#1
        0x00000a52:    0309        ..      LSLS     r1,r1,#12
        0x00000a54:    2301        .#      MOVS     r3,#1
        0x00000a56:    0b09        ..      LSRS     r1,r1,#12
        0x00000a58:    051b        ..      LSLS     r3,r3,#20
        0x00000a5a:    4319        .C      ORRS     r1,r1,r3
        0x00000a5c:    4b0a        .K      LDR      r3,[pc,#40] ; [0xa88] = 0x3ff
        0x00000a5e:    b510        ..      PUSH     {r4,lr}
        0x00000a60:    0d52        R.      LSRS     r2,r2,#21
        0x00000a62:    429a        .B      CMP      r2,r3
        0x00000a64:    da02        ..      BGE      0xa6c ; __aeabi_d2ulz + 28
        0x00000a66:    2000        .       MOVS     r0,#0
        0x00000a68:    4601        .F      MOV      r1,r0
        0x00000a6a:    bd10        ..      POP      {r4,pc}
        0x00000a6c:    4b06        .K      LDR      r3,[pc,#24] ; [0xa88] = 0x3ff
        0x00000a6e:    3334        43      ADDS     r3,r3,#0x34
        0x00000a70:    429a        .B      CMP      r2,r3
        0x00000a72:    dc03        ..      BGT      0xa7c ; __aeabi_d2ulz + 44
        0x00000a74:    1a9a        ..      SUBS     r2,r3,r2
        0x00000a76:    f000f845    ..E.    BL       __aeabi_llsr ; 0xb04
        0x00000a7a:    bd10        ..      POP      {r4,pc}
        0x00000a7c:    4b03        .K      LDR      r3,[pc,#12] ; [0xa8c] = 0xfffffbcd
        0x00000a7e:    18d2        ..      ADDS     r2,r2,r3
        0x00000a80:    f7fffe9a    ....    BL       __aeabi_llsl ; 0x7b8
        0x00000a84:    bd10        ..      POP      {r4,pc}
    $d
        0x00000a86:    0000        ..      DCW    0
        0x00000a88:    000003ff    ....    DCD    1023
        0x00000a8c:    fffffbcd    ....    DCD    4294966221
    $t
    .text
    __aeabi_cdcmpeq
    __aeabi_cdcmple
        0x00000a90:    b510        ..      PUSH     {r4,lr}
        0x00000a92:    2900        .)      CMP      r1,#0
        0x00000a94:    db04        ..      BLT      0xaa0 ; __aeabi_cdcmpeq + 16
        0x00000a96:    2401        .$      MOVS     r4,#1
        0x00000a98:    07e4        ..      LSLS     r4,r4,#31
        0x00000a9a:    4240        @B      RSBS     r0,r0,#0
        0x00000a9c:    418c        .A      SBCS     r4,r4,r1
        0x00000a9e:    4621        !F      MOV      r1,r4
        0x00000aa0:    2b00        .+      CMP      r3,#0
        0x00000aa2:    db04        ..      BLT      0xaae ; __aeabi_cdcmpeq + 30
        0x00000aa4:    461c        .F      MOV      r4,r3
        0x00000aa6:    2301        .#      MOVS     r3,#1
        0x00000aa8:    07db        ..      LSLS     r3,r3,#31
        0x00000aaa:    4252        RB      RSBS     r2,r2,#0
        0x00000aac:    41a3        .A      SBCS     r3,r3,r4
        0x00000aae:    428b        .B      CMP      r3,r1
        0x00000ab0:    d100        ..      BNE      0xab4 ; __aeabi_cdcmpeq + 36
        0x00000ab2:    4282        .B      CMP      r2,r0
        0x00000ab4:    bd10        ..      POP      {r4,pc}
    $d
        0x00000ab6:    0000        ..      DCW    0
    $t
    .text
    __aeabi_cdrcmple
        0x00000ab8:    b510        ..      PUSH     {r4,lr}
        0x00000aba:    2900        .)      CMP      r1,#0
        0x00000abc:    db04        ..      BLT      0xac8 ; __aeabi_cdrcmple + 16
        0x00000abe:    2401        .$      MOVS     r4,#1
        0x00000ac0:    07e4        ..      LSLS     r4,r4,#31
        0x00000ac2:    4240        @B      RSBS     r0,r0,#0
        0x00000ac4:    418c        .A      SBCS     r4,r4,r1
        0x00000ac6:    4621        !F      MOV      r1,r4
        0x00000ac8:    2b00        .+      CMP      r3,#0
        0x00000aca:    db04        ..      BLT      0xad6 ; __aeabi_cdrcmple + 30
        0x00000acc:    461c        .F      MOV      r4,r3
        0x00000ace:    2301        .#      MOVS     r3,#1
        0x00000ad0:    07db        ..      LSLS     r3,r3,#31
        0x00000ad2:    4252        RB      RSBS     r2,r2,#0
        0x00000ad4:    41a3        .A      SBCS     r3,r3,r4
        0x00000ad6:    4299        .B      CMP      r1,r3
        0x00000ad8:    d100        ..      BNE      0xadc ; __aeabi_cdrcmple + 36
        0x00000ada:    4290        .B      CMP      r0,r2
        0x00000adc:    bd10        ..      POP      {r4,pc}
    $d
        0x00000ade:    0000        ..      DCW    0
    $t
    .text
    __scatterload
    __scatterload_rt2
        0x00000ae0:    4c06        .L      LDR      r4,[pc,#24] ; [0xafc] = 0x3d2c
        0x00000ae2:    2501        .%      MOVS     r5,#1
        0x00000ae4:    4e06        .N      LDR      r6,[pc,#24] ; [0xb00] = 0x3d4c
        0x00000ae6:    e005        ..      B        0xaf4 ; __scatterload + 20
        0x00000ae8:    68e3        .h      LDR      r3,[r4,#0xc]
        0x00000aea:    cc07        ..      LDM      r4!,{r0-r2}
        0x00000aec:    432b        +C      ORRS     r3,r3,r5
        0x00000aee:    3c0c        .<      SUBS     r4,r4,#0xc
        0x00000af0:    4798        .G      BLX      r3
        0x00000af2:    3410        .4      ADDS     r4,r4,#0x10
        0x00000af4:    42b4        .B      CMP      r4,r6
        0x00000af6:    d3f7        ..      BCC      0xae8 ; __scatterload + 8
        0x00000af8:    f7fffae6    ....    BL       __main_after_scatterload ; 0xc8
    $d
        0x00000afc:    00003d2c    ,=..    DCD    15660
        0x00000b00:    00003d4c    L=..    DCD    15692
    $t
    .text
    __aeabi_llsr
    _ll_ushift_r
        0x00000b04:    b510        ..      PUSH     {r4,lr}
        0x00000b06:    2a20         *      CMP      r2,#0x20
        0x00000b08:    db04        ..      BLT      0xb14 ; __aeabi_llsr + 16
        0x00000b0a:    4608        .F      MOV      r0,r1
        0x00000b0c:    3a20         :      SUBS     r2,r2,#0x20
        0x00000b0e:    40d0        .@      LSRS     r0,r0,r2
        0x00000b10:    2100        .!      MOVS     r1,#0
        0x00000b12:    bd10        ..      POP      {r4,pc}
        0x00000b14:    460b        .F      MOV      r3,r1
        0x00000b16:    40d3        .@      LSRS     r3,r3,r2
        0x00000b18:    40d0        .@      LSRS     r0,r0,r2
        0x00000b1a:    2420         $      MOVS     r4,#0x20
        0x00000b1c:    1aa2        ..      SUBS     r2,r4,r2
        0x00000b1e:    4091        .@      LSLS     r1,r1,r2
        0x00000b20:    4308        .C      ORRS     r0,r0,r1
        0x00000b22:    4619        .F      MOV      r1,r3
        0x00000b24:    bd10        ..      POP      {r4,pc}
        0x00000b26:    0000        ..      MOVS     r0,r0
    i.ADC_Open
    ADC_Open
        0x00000b28:    b530        0.      PUSH     {r4,r5,lr}
        0x00000b2a:    6a04        .j      LDR      r4,[r0,#0x20]
        0x00000b2c:    4d05        .M      LDR      r5,[pc,#20] ; [0xb44] = 0xfffffbf3
        0x00000b2e:    402c        ,@      ANDS     r4,r4,r5
        0x00000b30:    430c        .C      ORRS     r4,r4,r1
        0x00000b32:    4314        .C      ORRS     r4,r4,r2
        0x00000b34:    6204        .b      STR      r4,[r0,#0x20]
        0x00000b36:    6a41        Aj      LDR      r1,[r0,#0x24]
        0x00000b38:    0a09        ..      LSRS     r1,r1,#8
        0x00000b3a:    0209        ..      LSLS     r1,r1,#8
        0x00000b3c:    4319        .C      ORRS     r1,r1,r3
        0x00000b3e:    6241        Ab      STR      r1,[r0,#0x24]
        0x00000b40:    bd30        0.      POP      {r4,r5,pc}
    $d
        0x00000b42:    0000        ..      DCW    0
        0x00000b44:    fffffbf3    ....    DCD    4294966259
    $t
    i.AdcSingleCycleScanModeTest
    AdcSingleCycleScanModeTest
        0x00000b48:    b086        ..      SUB      sp,sp,#0x18
        0x00000b4a:    2000        .       MOVS     r0,#0
        0x00000b4c:    9000        ..      STR      r0,[sp,#0]
        0x00000b4e:    9001        ..      STR      r0,[sp,#4]
        0x00000b50:    9002        ..      STR      r0,[sp,#8]
        0x00000b52:    a065        e.      ADR      r0,{pc}+0x196 ; 0xce8
        0x00000b54:    f000fcec    ....    BL       __0printf ; 0x1530
        0x00000b58:    a064        d.      ADR      r0,{pc}+0x194 ; 0xcec
        0x00000b5a:    f000fce9    ....    BL       __0printf ; 0x1530
        0x00000b5e:    496c        lI      LDR      r1,[pc,#432] ; [0xd10] = 0x50004240
        0x00000b60:    2001        .       MOVS     r0,#1
        0x00000b62:    6088        .`      STR      r0,[r1,#8]
        0x00000b64:    4f6b        kO      LDR      r7,[pc,#428] ; [0xd14] = 0x400e0000
        0x00000b66:    2307        .#      MOVS     r3,#7
        0x00000b68:    2208        ."      MOVS     r2,#8
        0x00000b6a:    2100        .!      MOVS     r1,#0
        0x00000b6c:    4638        8F      MOV      r0,r7
        0x00000b6e:    f7ffffdb    ....    BL       ADC_Open ; 0xb28
        0x00000b72:    6a39        9j      LDR      r1,[r7,#0x20]
        0x00000b74:    2001        .       MOVS     r0,#1
        0x00000b76:    4301        .C      ORRS     r1,r1,r0
        0x00000b78:    6239        9b      STR      r1,[r7,#0x20]
        0x00000b7a:    6338        8c      STR      r0,[r7,#0x30]
        0x00000b7c:    6a38        8j      LDR      r0,[r7,#0x20]
        0x00000b7e:    2101        .!      MOVS     r1,#1
        0x00000b80:    02c9        ..      LSLS     r1,r1,#11
        0x00000b82:    4308        .C      ORRS     r0,r0,r1
        0x00000b84:    6238        8b      STR      r0,[r7,#0x20]
        0x00000b86:    6b38        8k      LDR      r0,[r7,#0x30]
        0x00000b88:    07c0        ..      LSLS     r0,r0,#31
        0x00000b8a:    d0fc        ..      BEQ      0xb86 ; AdcSingleCycleScanModeTest + 62
        0x00000b8c:    2400        .$      MOVS     r4,#0
        0x00000b8e:    ae03        ..      ADD      r6,sp,#0xc
        0x00000b90:    00a5        ..      LSLS     r5,r4,#2
        0x00000b92:    19e8        ..      ADDS     r0,r5,r7
        0x00000b94:    6800        .h      LDR      r0,[r0,#0]
        0x00000b96:    b280        ..      UXTH     r0,r0
        0x00000b98:    f7fffd9d    ....    BL       __aeabi_ui2f ; 0x6d6
        0x00000b9c:    1c64        d.      ADDS     r4,r4,#1
        0x00000b9e:    5170        pQ      STR      r0,[r6,r5]
        0x00000ba0:    2c03        .,      CMP      r4,#3
        0x00000ba2:    d3f5        ..      BCC      0xb90 ; AdcSingleCycleScanModeTest + 72
        0x00000ba4:    a803        ..      ADD      r0,sp,#0xc
        0x00000ba6:    f001ff69    ..i.    BL       normalize ; 0x2a7c
        0x00000baa:    4f5b        [O      LDR      r7,[pc,#364] ; [0xd18] = 0x2000002c
        0x00000bac:    2500        .%      MOVS     r5,#0
        0x00000bae:    485b        [H      LDR      r0,[pc,#364] ; [0xd1c] = 0x20000f08
        0x00000bb0:    00ae        ..      LSLS     r6,r5,#2
        0x00000bb2:    1831        1.      ADDS     r1,r6,r0
        0x00000bb4:    6f89        .o      LDR      r1,[r1,#0x78]
        0x00000bb6:    2400        .$      MOVS     r4,#0
        0x00000bb8:    6139        9a      STR      r1,[r7,#0x10]
        0x00000bba:    2028        (       MOVS     r0,#0x28
        0x00000bbc:    4957        WI      LDR      r1,[pc,#348] ; [0xd1c] = 0x20000f08
        0x00000bbe:    4360        `C      MULS     r0,r4,r0
        0x00000bc0:    1840        @.      ADDS     r0,r0,r1
        0x00000bc2:    5981        .Y      LDR      r1,[r0,r6]
        0x00000bc4:    00a2        ..      LSLS     r2,r4,#2
        0x00000bc6:    a803        ..      ADD      r0,sp,#0xc
        0x00000bc8:    5880        .X      LDR      r0,[r0,r2]
        0x00000bca:    f7fffb55    ..U.    BL       __aeabi_fmul ; 0x278
        0x00000bce:    6939        9i      LDR      r1,[r7,#0x10]
        0x00000bd0:    f7fffaf9    ....    BL       __aeabi_fadd ; 0x1c6
        0x00000bd4:    1c64        d.      ADDS     r4,r4,#1
        0x00000bd6:    6138        8a      STR      r0,[r7,#0x10]
        0x00000bd8:    2c03        .,      CMP      r4,#3
        0x00000bda:    dbee        ..      BLT      0xbba ; AdcSingleCycleScanModeTest + 114
        0x00000bdc:    2101        .!      MOVS     r1,#1
        0x00000bde:    07c9        ..      LSLS     r1,r1,#31
        0x00000be0:    4048        H@      EORS     r0,r0,r1
        0x00000be2:    f7fffd7f    ....    BL       __aeabi_f2d ; 0x6e4
        0x00000be6:    f001fa1f    ....    BL       exp ; 0x2028
        0x00000bea:    4c4d        ML      LDR      r4,[pc,#308] ; [0xd20] = 0x3ff00000
        0x00000bec:    2200        ."      MOVS     r2,#0
        0x00000bee:    4623        #F      MOV      r3,r4
        0x00000bf0:    f7fffbbe    ....    BL       __aeabi_dadd ; 0x370
        0x00000bf4:    4602        .F      MOV      r2,r0
        0x00000bf6:    460b        .F      MOV      r3,r1
        0x00000bf8:    2000        .       MOVS     r0,#0
        0x00000bfa:    4621        !F      MOV      r1,r4
        0x00000bfc:    f7fffcd2    ....    BL       __aeabi_ddiv ; 0x5a4
        0x00000c00:    f7fffd84    ....    BL       __aeabi_d2f ; 0x70c
        0x00000c04:    4945        EI      LDR      r1,[pc,#276] ; [0xd1c] = 0x20000f08
        0x00000c06:    1c6d        m.      ADDS     r5,r5,#1
        0x00000c08:    3938        89      SUBS     r1,r1,#0x38
        0x00000c0a:    5188        .Q      STR      r0,[r1,r6]
        0x00000c0c:    2d0a        .-      CMP      r5,#0xa
        0x00000c0e:    dbce        ..      BLT      0xbae ; AdcSingleCycleScanModeTest + 102
        0x00000c10:    2400        .$      MOVS     r4,#0
        0x00000c12:    4942        BI      LDR      r1,[pc,#264] ; [0xd1c] = 0x20000f08
        0x00000c14:    00a5        ..      LSLS     r5,r4,#2
        0x00000c16:    31a0        .1      ADDS     r1,r1,#0xa0
        0x00000c18:    1868        h.      ADDS     r0,r5,r1
        0x00000c1a:    3080        .0      ADDS     r0,r0,#0x80
        0x00000c1c:    6a00        .j      LDR      r0,[r0,#0x20]
        0x00000c1e:    2600        .&      MOVS     r6,#0
        0x00000c20:    6138        8a      STR      r0,[r7,#0x10]
        0x00000c22:    483e        >H      LDR      r0,[pc,#248] ; [0xd1c] = 0x20000f08
        0x00000c24:    0131        1.      LSLS     r1,r6,#4
        0x00000c26:    30a0        .0      ADDS     r0,r0,#0xa0
        0x00000c28:    1808        ..      ADDS     r0,r1,r0
        0x00000c2a:    5941        AY      LDR      r1,[r0,r5]
        0x00000c2c:    483b        ;H      LDR      r0,[pc,#236] ; [0xd1c] = 0x20000f08
        0x00000c2e:    00b2        ..      LSLS     r2,r6,#2
        0x00000c30:    3838        88      SUBS     r0,r0,#0x38
        0x00000c32:    5880        .X      LDR      r0,[r0,r2]
        0x00000c34:    f7fffb20    .. .    BL       __aeabi_fmul ; 0x278
        0x00000c38:    6939        9i      LDR      r1,[r7,#0x10]
        0x00000c3a:    f7fffac4    ....    BL       __aeabi_fadd ; 0x1c6
        0x00000c3e:    1c76        v.      ADDS     r6,r6,#1
        0x00000c40:    6138        8a      STR      r0,[r7,#0x10]
        0x00000c42:    2e0a        ..      CMP      r6,#0xa
        0x00000c44:    dbed        ..      BLT      0xc22 ; AdcSingleCycleScanModeTest + 218
        0x00000c46:    2101        .!      MOVS     r1,#1
        0x00000c48:    07c9        ..      LSLS     r1,r1,#31
        0x00000c4a:    4048        H@      EORS     r0,r0,r1
        0x00000c4c:    f7fffd4a    ..J.    BL       __aeabi_f2d ; 0x6e4
        0x00000c50:    f001f9ea    ....    BL       exp ; 0x2028
        0x00000c54:    4e32        2N      LDR      r6,[pc,#200] ; [0xd20] = 0x3ff00000
        0x00000c56:    2200        ."      MOVS     r2,#0
        0x00000c58:    4633        3F      MOV      r3,r6
        0x00000c5a:    f7fffb89    ....    BL       __aeabi_dadd ; 0x370
        0x00000c5e:    4602        .F      MOV      r2,r0
        0x00000c60:    460b        .F      MOV      r3,r1
        0x00000c62:    2000        .       MOVS     r0,#0
        0x00000c64:    4631        1F      MOV      r1,r6
        0x00000c66:    f7fffc9d    ....    BL       __aeabi_ddiv ; 0x5a4
        0x00000c6a:    f7fffd4f    ..O.    BL       __aeabi_d2f ; 0x70c
        0x00000c6e:    4e2b        +N      LDR      r6,[pc,#172] ; [0xd1c] = 0x20000f08
        0x00000c70:    1c64        d.      ADDS     r4,r4,#1
        0x00000c72:    3e10        .>      SUBS     r6,r6,#0x10
        0x00000c74:    5170        pQ      STR      r0,[r6,r5]
        0x00000c76:    2c04        .,      CMP      r4,#4
        0x00000c78:    dbcb        ..      BLT      0xc12 ; AdcSingleCycleScanModeTest + 202
        0x00000c7a:    2500        .%      MOVS     r5,#0
        0x00000c7c:    2401        .$      MOVS     r4,#1
        0x00000c7e:    61fd        .a      STR      r5,[r7,#0x1c]
        0x00000c80:    69f8        .i      LDR      r0,[r7,#0x1c]
        0x00000c82:    0080        ..      LSLS     r0,r0,#2
        0x00000c84:    5831        1X      LDR      r1,[r6,r0]
        0x00000c86:    00a0        ..      LSLS     r0,r4,#2
        0x00000c88:    5830        0X      LDR      r0,[r6,r0]
        0x00000c8a:    f7fffd5b    ..[.    BL       __aeabi_cfrcmple ; 0x744
        0x00000c8e:    d200        ..      BCS      0xc92 ; AdcSingleCycleScanModeTest + 330
        0x00000c90:    61fc        .a      STR      r4,[r7,#0x1c]
        0x00000c92:    1c64        d.      ADDS     r4,r4,#1
        0x00000c94:    2c04        .,      CMP      r4,#4
        0x00000c96:    dbf3        ..      BLT      0xc80 ; AdcSingleCycleScanModeTest + 312
        0x00000c98:    69f8        .i      LDR      r0,[r7,#0x1c]
        0x00000c9a:    61b8        .a      STR      r0,[r7,#0x18]
        0x00000c9c:    2800        .(      CMP      r0,#0
        0x00000c9e:    d006        ..      BEQ      0xcae ; AdcSingleCycleScanModeTest + 358
        0x00000ca0:    2801        .(      CMP      r0,#1
        0x00000ca2:    d006        ..      BEQ      0xcb2 ; AdcSingleCycleScanModeTest + 362
        0x00000ca4:    2802        .(      CMP      r0,#2
        0x00000ca6:    d01a        ..      BEQ      0xcde ; AdcSingleCycleScanModeTest + 406
        0x00000ca8:    2803        .(      CMP      r0,#3
        0x00000caa:    d106        ..      BNE      0xcba ; AdcSingleCycleScanModeTest + 370
        0x00000cac:    e019        ..      B        0xce2 ; AdcSingleCycleScanModeTest + 410
        0x00000cae:    a11d        ..      ADR      r1,{pc}+0x76 ; 0xd24
        0x00000cb0:    e000        ..      B        0xcb4 ; AdcSingleCycleScanModeTest + 364
        0x00000cb2:    a11e        ..      ADR      r1,{pc}+0x7a ; 0xd2c
        0x00000cb4:    4668        hF      MOV      r0,sp
        0x00000cb6:    f7fffa7d    ..}.    BL       strcpy ; 0x1b4
        0x00000cba:    4669        iF      MOV      r1,sp
        0x00000cbc:    a01d        ..      ADR      r0,{pc}+0x78 ; 0xd34
        0x00000cbe:    f000fc37    ..7.    BL       __0printf ; 0x1530
        0x00000cc2:    4823        #H      LDR      r0,[pc,#140] ; [0xd50] = 0x20000004
        0x00000cc4:    6801        .h      LDR      r1,[r0,#0]
        0x00000cc6:    4823        #H      LDR      r0,[pc,#140] ; [0xd54] = 0x7a120
        0x00000cc8:    4341        AC      MULS     r1,r0,r1
        0x00000cca:    4823        #H      LDR      r0,[pc,#140] ; [0xd58] = 0xe000e000
        0x00000ccc:    6141        Aa      STR      r1,[r0,#0x14]
        0x00000cce:    6185        .a      STR      r5,[r0,#0x18]
        0x00000cd0:    2105        .!      MOVS     r1,#5
        0x00000cd2:    6101        .a      STR      r1,[r0,#0x10]
        0x00000cd4:    6901        .i      LDR      r1,[r0,#0x10]
        0x00000cd6:    03c9        ..      LSLS     r1,r1,#15
        0x00000cd8:    d5fc        ..      BPL      0xcd4 ; AdcSingleCycleScanModeTest + 396
        0x00000cda:    6105        .a      STR      r5,[r0,#0x10]
        0x00000cdc:    e742        B.      B        0xb64 ; AdcSingleCycleScanModeTest + 28
        0x00000cde:    a11f        ..      ADR      r1,{pc}+0x7e ; 0xd5c
        0x00000ce0:    e7e8        ..      B        0xcb4 ; AdcSingleCycleScanModeTest + 364
        0x00000ce2:    a11f        ..      ADR      r1,{pc}+0x7e ; 0xd60
        0x00000ce4:    e7e6        ..      B        0xcb4 ; AdcSingleCycleScanModeTest + 364
    $d
        0x00000ce6:    0000        ..      DCW    0
        0x00000ce8:    0000000a    ....    DCD    10
        0x00000cec:    6168505b    [Pha    DCD    1634226267
        0x00000cf0:    33206573    se 3    DCD    857761139
        0x00000cf4:    7453205d    ] St    DCD    1951604829
        0x00000cf8:    20747261    art     DCD    544502369
        0x00000cfc:    64657250    Pred    DCD    1684370000
        0x00000d00:    69746369    icti    DCD    1769235305
        0x00000d04:    2e206e6f    on .    DCD    773877359
        0x00000d08:    0a0a2e2e    ....    DCD    168439342
        0x00000d0c:    00000000    ....    DCD    0
        0x00000d10:    50004240    @B.P    DCD    1342194240
        0x00000d14:    400e0000    ...@    DCD    1074659328
        0x00000d18:    2000002c    ,..     DCD    536870956
        0x00000d1c:    20000f08    ...     DCD    536874760
        0x00000d20:    3ff00000    ...?    DCD    1072693248
        0x00000d24:    69626d41    Ambi    DCD    1768058177
        0x00000d28:    00746e65    ent.    DCD    7630437
        0x00000d2c:    65756c42    Blue    DCD    1702194242
        0x00000d30:    00000000    ....    DCD    0
        0x00000d34:    6572500d    .Pre    DCD    1701990413
        0x00000d38:    74636964    dict    DCD    1952672100
        0x00000d3c:    206e6f69    ion     DCD    544108393
        0x00000d40:    7074756f    outp    DCD    1886680431
        0x00000d44:    203a7475    ut:     DCD    540701813
        0x00000d48:    73382d25    %-8s    DCD    1933061413
        0x00000d4c:    00000000    ....    DCD    0
        0x00000d50:    20000004    ...     DCD    536870916
        0x00000d54:    0007a120     ...    DCD    500000
        0x00000d58:    e000e000    ....    DCD    3758153728
        0x00000d5c:    00646552    Red.    DCD    6579538
        0x00000d60:    65657247    Gree    DCD    1701147207
        0x00000d64:    0000006e    n...    DCD    110
    $t
    i.CLK_EnableModuleClock
    CLK_EnableModuleClock
        0x00000d68:    b51f        ..      PUSH     {r0-r4,lr}
        0x00000d6a:    4909        .I      LDR      r1,[pc,#36] ; [0xd90] = 0x3b10
        0x00000d6c:    c91e        ..      LDM      r1,{r1-r4}
        0x00000d6e:    9403        ..      STR      r4,[sp,#0xc]
        0x00000d70:    466c        lF      MOV      r4,sp
        0x00000d72:    c40e        ..      STM      r4!,{r1-r3}
        0x00000d74:    0f81        ..      LSRS     r1,r0,#30
        0x00000d76:    008a        ..      LSLS     r2,r1,#2
        0x00000d78:    4669        iF      MOV      r1,sp
        0x00000d7a:    588a        .X      LDR      r2,[r1,r2]
        0x00000d7c:    4905        .I      LDR      r1,[pc,#20] ; [0xd94] = 0x50000200
        0x00000d7e:    1851        Q.      ADDS     r1,r2,r1
        0x00000d80:    684a        Jh      LDR      r2,[r1,#4]
        0x00000d82:    06c3        ..      LSLS     r3,r0,#27
        0x00000d84:    0edb        ..      LSRS     r3,r3,#27
        0x00000d86:    2001        .       MOVS     r0,#1
        0x00000d88:    4098        .@      LSLS     r0,r0,r3
        0x00000d8a:    4302        .C      ORRS     r2,r2,r0
        0x00000d8c:    604a        J`      STR      r2,[r1,#4]
        0x00000d8e:    bd1f        ..      POP      {r0-r4,pc}
    $d
        0x00000d90:    00003b10    .;..    DCD    15120
        0x00000d94:    50000200    ...P    DCD    1342177792
    $t
    i.CLK_EnablePLL
    CLK_EnablePLL
        0x00000d98:    b5f0        ..      PUSH     {r4-r7,lr}
        0x00000d9a:    0007        ..      MOVS     r7,r0
        0x00000d9c:    460c        .F      MOV      r4,r1
        0x00000d9e:    4856        VH      LDR      r0,[pc,#344] ; [0xef8] = 0x50000200
        0x00000da0:    b085        ..      SUB      sp,sp,#0x14
        0x00000da2:    4954        TI      LDR      r1,[pc,#336] ; [0xef4] = 0x10000
        0x00000da4:    6201        .b      STR      r1,[r0,#0x20]
        0x00000da6:    4e55        UN      LDR      r6,[pc,#340] ; [0xefc] = 0xb71b00
        0x00000da8:    6801        .h      LDR      r1,[r0,#0]
        0x00000daa:    d013        ..      BEQ      0xdd4 ; CLK_EnablePLL + 60
        0x00000dac:    2204        ."      MOVS     r2,#4
        0x00000dae:    4311        .C      ORRS     r1,r1,r2
        0x00000db0:    6001        .`      STR      r1,[r0,#0]
        0x00000db2:    2010        .       MOVS     r0,#0x10
        0x00000db4:    f000f9b6    ....    BL       CLK_WaitClockReady ; 0x1124
        0x00000db8:    2001        .       MOVS     r0,#1
        0x00000dba:    04c0        ..      LSLS     r0,r0,#19
        0x00000dbc:    9002        ..      STR      r0,[sp,#8]
        0x00000dbe:    4850        PH      LDR      r0,[pc,#320] ; [0xf00] = 0x1518000
        0x00000dc0:    2504        .%      MOVS     r5,#4
        0x00000dc2:    9003        ..      STR      r0,[sp,#0xc]
        0x00000dc4:    484f        OH      LDR      r0,[pc,#316] ; [0xf04] = 0xfa0a1eff
        0x00000dc6:    4950        PI      LDR      r1,[pc,#320] ; [0xf08] = 0x5f5e0ff
        0x00000dc8:    1820         .      ADDS     r0,r4,r0
        0x00000dca:    4288        .B      CMP      r0,r1
        0x00000dcc:    d80d        ..      BHI      0xdea ; CLK_EnablePLL + 82
        0x00000dce:    2000        .       MOVS     r0,#0
        0x00000dd0:    9004        ..      STR      r0,[sp,#0x10]
        0x00000dd2:    e01c        ..      B        0xe0e ; CLK_EnablePLL + 118
        0x00000dd4:    2201        ."      MOVS     r2,#1
        0x00000dd6:    4311        .C      ORRS     r1,r1,r2
        0x00000dd8:    6001        .`      STR      r1,[r0,#0]
        0x00000dda:    4610        .F      MOV      r0,r2
        0x00000ddc:    f000f9a2    ....    BL       CLK_WaitClockReady ; 0x1124
        0x00000de0:    2000        .       MOVS     r0,#0
        0x00000de2:    2502        .%      MOVS     r5,#2
        0x00000de4:    9603        ..      STR      r6,[sp,#0xc]
        0x00000de6:    9002        ..      STR      r0,[sp,#8]
        0x00000de8:    e7ec        ..      B        0xdc4 ; CLK_EnablePLL + 44
        0x00000dea:    4848        HH      LDR      r0,[pc,#288] ; [0xf0c] = 0xfd050f7f
        0x00000dec:    4948        HI      LDR      r1,[pc,#288] ; [0xf10] = 0x2faf07f
        0x00000dee:    1820         .      ADDS     r0,r4,r0
        0x00000df0:    4288        .B      CMP      r0,r1
        0x00000df2:    d803        ..      BHI      0xdfc ; CLK_EnablePLL + 100
        0x00000df4:    2001        .       MOVS     r0,#1
        0x00000df6:    0064        d.      LSLS     r4,r4,#1
        0x00000df8:    9004        ..      STR      r0,[sp,#0x10]
        0x00000dfa:    e008        ..      B        0xe0e ; CLK_EnablePLL + 118
        0x00000dfc:    4845        EH      LDR      r0,[pc,#276] ; [0xf14] = 0xfe8287c0
        0x00000dfe:    4945        EI      LDR      r1,[pc,#276] ; [0xf14] = 0xfe8287c0
        0x00000e00:    1820         .      ADDS     r0,r4,r0
        0x00000e02:    4249        IB      RSBS     r1,r1,#0
        0x00000e04:    4288        .B      CMP      r0,r1
        0x00000e06:    d849        I.      BHI      0xe9c ; CLK_EnablePLL + 260
        0x00000e08:    2003        .       MOVS     r0,#3
        0x00000e0a:    00a4        ..      LSLS     r4,r4,#2
        0x00000e0c:    9004        ..      STR      r0,[sp,#0x10]
        0x00000e0e:    2600        .&      MOVS     r6,#0
        0x00000e10:    43f6        .C      MVNS     r6,r6
        0x00000e12:    2000        .       MOVS     r0,#0
        0x00000e14:    9000        ..      STR      r0,[sp,#0]
        0x00000e16:    9001        ..      STR      r0,[sp,#4]
        0x00000e18:    e021        !.      B        0xe5e ; CLK_EnablePLL + 198
        0x00000e1a:    4629        )F      MOV      r1,r5
        0x00000e1c:    9803        ..      LDR      r0,[sp,#0xc]
        0x00000e1e:    f7fff98d    ....    BL       __aeabi_uidiv ; 0x13c
        0x00000e22:    493d        =I      LDR      r1,[pc,#244] ; [0xf18] = 0xffe795ff
        0x00000e24:    4a3d        =J      LDR      r2,[pc,#244] ; [0xf1c] = 0xcc77bf
        0x00000e26:    1841        A.      ADDS     r1,r0,r1
        0x00000e28:    4291        .B      CMP      r1,r2
        0x00000e2a:    d217        ..      BCS      0xe5c ; CLK_EnablePLL + 196
        0x00000e2c:    2202        ."      MOVS     r2,#2
        0x00000e2e:    4b35        5K      LDR      r3,[pc,#212] ; [0xf04] = 0xfa0a1eff
        0x00000e30:    4601        .F      MOV      r1,r0
        0x00000e32:    4351        QC      MULS     r1,r2,r1
        0x00000e34:    1c5b        [.      ADDS     r3,r3,#1
        0x00000e36:    18cf        ..      ADDS     r7,r1,r3
        0x00000e38:    425b        [B      RSBS     r3,r3,#0
        0x00000e3a:    429f        .B      CMP      r7,r3
        0x00000e3c:    d80a        ..      BHI      0xe54 ; CLK_EnablePLL + 188
        0x00000e3e:    42a1        .B      CMP      r1,r4
        0x00000e40:    d901        ..      BLS      0xe46 ; CLK_EnablePLL + 174
        0x00000e42:    1b0b        ..      SUBS     r3,r1,r4
        0x00000e44:    e000        ..      B        0xe48 ; CLK_EnablePLL + 176
        0x00000e46:    1a63        c.      SUBS     r3,r4,r1
        0x00000e48:    42b3        .B      CMP      r3,r6
        0x00000e4a:    d203        ..      BCS      0xe54 ; CLK_EnablePLL + 188
        0x00000e4c:    001e        ..      MOVS     r6,r3
        0x00000e4e:    9500        ..      STR      r5,[sp,#0]
        0x00000e50:    9201        ..      STR      r2,[sp,#4]
        0x00000e52:    d003        ..      BEQ      0xe5c ; CLK_EnablePLL + 196
        0x00000e54:    4932        2I      LDR      r1,[pc,#200] ; [0xf20] = 0x201
        0x00000e56:    1c52        R.      ADDS     r2,r2,#1
        0x00000e58:    428a        .B      CMP      r2,r1
        0x00000e5a:    d9e8        ..      BLS      0xe2e ; CLK_EnablePLL + 150
        0x00000e5c:    1c6d        m.      ADDS     r5,r5,#1
        0x00000e5e:    2d21        !-      CMP      r5,#0x21
        0x00000e60:    d9db        ..      BLS      0xe1a ; CLK_EnablePLL + 130
        0x00000e62:    9804        ..      LDR      r0,[sp,#0x10]
        0x00000e64:    9902        ..      LDR      r1,[sp,#8]
        0x00000e66:    0380        ..      LSLS     r0,r0,#14
        0x00000e68:    4308        .C      ORRS     r0,r0,r1
        0x00000e6a:    9900        ..      LDR      r1,[sp,#0]
        0x00000e6c:    2201        ."      MOVS     r2,#1
        0x00000e6e:    0249        I.      LSLS     r1,r1,#9
        0x00000e70:    0292        ..      LSLS     r2,r2,#10
        0x00000e72:    1a89        ..      SUBS     r1,r1,r2
        0x00000e74:    4308        .C      ORRS     r0,r0,r1
        0x00000e76:    9901        ..      LDR      r1,[sp,#4]
        0x00000e78:    1e89        ..      SUBS     r1,r1,#2
        0x00000e7a:    4308        .C      ORRS     r0,r0,r1
        0x00000e7c:    491e        .I      LDR      r1,[pc,#120] ; [0xef8] = 0x50000200
        0x00000e7e:    6208        .b      STR      r0,[r1,#0x20]
        0x00000e80:    2004        .       MOVS     r0,#4
        0x00000e82:    f000f94f    ..O.    BL       CLK_WaitClockReady ; 0x1124
        0x00000e86:    9904        ..      LDR      r1,[sp,#0x10]
        0x00000e88:    9800        ..      LDR      r0,[sp,#0]
        0x00000e8a:    1c49        I.      ADDS     r1,r1,#1
        0x00000e8c:    4341        AC      MULS     r1,r0,r1
        0x00000e8e:    9803        ..      LDR      r0,[sp,#0xc]
        0x00000e90:    f7fff954    ..T.    BL       __aeabi_uidiv ; 0x13c
        0x00000e94:    9901        ..      LDR      r1,[sp,#4]
        0x00000e96:    4348        HC      MULS     r0,r1,r0
        0x00000e98:    b005        ..      ADD      sp,sp,#0x14
        0x00000e9a:    bdf0        ..      POP      {r4-r7,pc}
        0x00000e9c:    2f00        ./      CMP      r7,#0
        0x00000e9e:    d00f        ..      BEQ      0xec0 ; CLK_EnablePLL + 296
        0x00000ea0:    4920         I      LDR      r1,[pc,#128] ; [0xf24] = 0xd66f
        0x00000ea2:    4815        .H      LDR      r0,[pc,#84] ; [0xef8] = 0x50000200
        0x00000ea4:    6201        .b      STR      r1,[r0,#0x20]
        0x00000ea6:    2004        .       MOVS     r0,#4
        0x00000ea8:    f000f93c    ..<.    BL       CLK_WaitClockReady ; 0x1124
        0x00000eac:    a01e        ..      ADR      r0,{pc}+0x7c ; 0xf28
        0x00000eae:    6800        .h      LDR      r0,[r0,#0]
        0x00000eb0:    9000        ..      STR      r0,[sp,#0]
        0x00000eb2:    4811        .H      LDR      r0,[pc,#68] ; [0xef8] = 0x50000200
        0x00000eb4:    6a01        .j      LDR      r1,[r0,#0x20]
        0x00000eb6:    1300        ..      ASRS     r0,r0,#12
        0x00000eb8:    4201        .B      TST      r1,r0
        0x00000eba:    d003        ..      BEQ      0xec4 ; CLK_EnablePLL + 300
        0x00000ebc:    2000        .       MOVS     r0,#0
        0x00000ebe:    e7eb        ..      B        0xe98 ; CLK_EnablePLL + 256
        0x00000ec0:    491a        .I      LDR      r1,[pc,#104] ; [0xf2c] = 0xc22e
        0x00000ec2:    e7ee        ..      B        0xea2 ; CLK_EnablePLL + 266
        0x00000ec4:    0308        ..      LSLS     r0,r1,#12
        0x00000ec6:    d500        ..      BPL      0xeca ; CLK_EnablePLL + 306
        0x00000ec8:    4e0d        .N      LDR      r6,[pc,#52] ; [0xf00] = 0x1518000
        0x00000eca:    0388        ..      LSLS     r0,r1,#14
        0x00000ecc:    d501        ..      BPL      0xed2 ; CLK_EnablePLL + 314
        0x00000ece:    4630        0F      MOV      r0,r6
        0x00000ed0:    e7e2        ..      B        0xe98 ; CLK_EnablePLL + 256
        0x00000ed2:    0408        ..      LSLS     r0,r1,#16
        0x00000ed4:    0f80        ..      LSRS     r0,r0,#30
        0x00000ed6:    466a        jF      MOV      r2,sp
        0x00000ed8:    5c10        .\      LDRB     r0,[r2,r0]
        0x00000eda:    05ca        ..      LSLS     r2,r1,#23
        0x00000edc:    0489        ..      LSLS     r1,r1,#18
        0x00000ede:    0ec9        ..      LSRS     r1,r1,#27
        0x00000ee0:    1c89        ..      ADDS     r1,r1,#2
        0x00000ee2:    0dd2        ..      LSRS     r2,r2,#23
        0x00000ee4:    4341        AC      MULS     r1,r0,r1
        0x00000ee6:    08b0        ..      LSRS     r0,r6,#2
        0x00000ee8:    1c92        ..      ADDS     r2,r2,#2
        0x00000eea:    4350        PC      MULS     r0,r2,r0
        0x00000eec:    f7fff926    ..&.    BL       __aeabi_uidiv ; 0x13c
        0x00000ef0:    0080        ..      LSLS     r0,r0,#2
        0x00000ef2:    e7d1        ..      B        0xe98 ; CLK_EnablePLL + 256
    $d
        0x00000ef4:    00010000    ....    DCD    65536
        0x00000ef8:    50000200    ...P    DCD    1342177792
        0x00000efc:    00b71b00    ....    DCD    12000000
        0x00000f00:    01518000    ..Q.    DCD    22118400
        0x00000f04:    fa0a1eff    ....    DCD    4194967295
        0x00000f08:    05f5e0ff    ....    DCD    99999999
        0x00000f0c:    fd050f7f    ....    DCD    4244967295
        0x00000f10:    02faf07f    ....    DCD    49999999
        0x00000f14:    fe8287c0    ....    DCD    4269967296
        0x00000f18:    ffe795ff    ....    DCD    4293367295
        0x00000f1c:    00cc77bf    .w..    DCD    13399999
        0x00000f20:    00000201    ....    DCD    513
        0x00000f24:    0000d66f    o...    DCD    54895
        0x00000f28:    04020201    ....    DCD    67240449
        0x00000f2c:    0000c22e    ....    DCD    49710
    $t
    i.CLK_EnableXtalRC
    CLK_EnableXtalRC
        0x00000f30:    4902        .I      LDR      r1,[pc,#8] ; [0xf3c] = 0x50000200
        0x00000f32:    680a        .h      LDR      r2,[r1,#0]
        0x00000f34:    4302        .C      ORRS     r2,r2,r0
        0x00000f36:    600a        .`      STR      r2,[r1,#0]
        0x00000f38:    4770        pG      BX       lr
    $d
        0x00000f3a:    0000        ..      DCW    0
        0x00000f3c:    50000200    ...P    DCD    1342177792
    $t
    i.CLK_GetPLLClockFreq
    CLK_GetPLLClockFreq
        0x00000f40:    b508        ..      PUSH     {r3,lr}
        0x00000f42:    a011        ..      ADR      r0,{pc}+0x46 ; 0xf88
        0x00000f44:    6800        .h      LDR      r0,[r0,#0]
        0x00000f46:    9000        ..      STR      r0,[sp,#0]
        0x00000f48:    4810        .H      LDR      r0,[pc,#64] ; [0xf8c] = 0x50000200
        0x00000f4a:    6a01        .j      LDR      r1,[r0,#0x20]
        0x00000f4c:    1300        ..      ASRS     r0,r0,#12
        0x00000f4e:    4201        .B      TST      r1,r0
        0x00000f50:    d001        ..      BEQ      0xf56 ; CLK_GetPLLClockFreq + 22
        0x00000f52:    2000        .       MOVS     r0,#0
        0x00000f54:    bd08        ..      POP      {r3,pc}
        0x00000f56:    0308        ..      LSLS     r0,r1,#12
        0x00000f58:    d501        ..      BPL      0xf5e ; CLK_GetPLLClockFreq + 30
        0x00000f5a:    480d        .H      LDR      r0,[pc,#52] ; [0xf90] = 0x1518000
        0x00000f5c:    e000        ..      B        0xf60 ; CLK_GetPLLClockFreq + 32
        0x00000f5e:    480d        .H      LDR      r0,[pc,#52] ; [0xf94] = 0xb71b00
        0x00000f60:    038a        ..      LSLS     r2,r1,#14
        0x00000f62:    d4f7        ..      BMI      0xf54 ; CLK_GetPLLClockFreq + 20
        0x00000f64:    040a        ..      LSLS     r2,r1,#16
        0x00000f66:    0f92        ..      LSRS     r2,r2,#30
        0x00000f68:    466b        kF      MOV      r3,sp
        0x00000f6a:    5c9b        .\      LDRB     r3,[r3,r2]
        0x00000f6c:    05ca        ..      LSLS     r2,r1,#23
        0x00000f6e:    0489        ..      LSLS     r1,r1,#18
        0x00000f70:    0dd2        ..      LSRS     r2,r2,#23
        0x00000f72:    0ec9        ..      LSRS     r1,r1,#27
        0x00000f74:    1c89        ..      ADDS     r1,r1,#2
        0x00000f76:    0880        ..      LSRS     r0,r0,#2
        0x00000f78:    1c92        ..      ADDS     r2,r2,#2
        0x00000f7a:    4359        YC      MULS     r1,r3,r1
        0x00000f7c:    4350        PC      MULS     r0,r2,r0
        0x00000f7e:    f7fff8dd    ....    BL       __aeabi_uidiv ; 0x13c
        0x00000f82:    0080        ..      LSLS     r0,r0,#2
        0x00000f84:    bd08        ..      POP      {r3,pc}
    $d
        0x00000f86:    0000        ..      DCW    0
        0x00000f88:    04020201    ....    DCD    67240449
        0x00000f8c:    50000200    ...P    DCD    1342177792
        0x00000f90:    01518000    ..Q.    DCD    22118400
        0x00000f94:    00b71b00    ....    DCD    12000000
    $t
    i.CLK_SetCoreClock
    CLK_SetCoreClock
        0x00000f98:    b5f8        ..      PUSH     {r3-r7,lr}
        0x00000f9a:    4c1b        .L      LDR      r4,[pc,#108] ; [0x1008] = 0x50000200
        0x00000f9c:    68e5        .h      LDR      r5,[r4,#0xc]
        0x00000f9e:    2110        .!      MOVS     r1,#0x10
        0x00000fa0:    400d        .@      ANDS     r5,r5,r1
        0x00000fa2:    491a        .I      LDR      r1,[pc,#104] ; [0x100c] = 0x2faf080
        0x00000fa4:    4288        .B      CMP      r0,r1
        0x00000fa6:    d802        ..      BHI      0xfae ; CLK_SetCoreClock + 22
        0x00000fa8:    1049        I.      ASRS     r1,r1,#1
        0x00000faa:    4288        .B      CMP      r0,r1
        0x00000fac:    d200        ..      BCS      0xfb0 ; CLK_SetCoreClock + 24
        0x00000fae:    4608        .F      MOV      r0,r1
        0x00000fb0:    6821        !h      LDR      r1,[r4,#0]
        0x00000fb2:    2604        .&      MOVS     r6,#4
        0x00000fb4:    4331        1C      ORRS     r1,r1,r6
        0x00000fb6:    6021        !`      STR      r1,[r4,#0]
        0x00000fb8:    68e1        .h      LDR      r1,[r4,#0xc]
        0x00000fba:    06c9        ..      LSLS     r1,r1,#27
        0x00000fbc:    d5fc        ..      BPL      0xfb8 ; CLK_SetCoreClock + 32
        0x00000fbe:    6921        !i      LDR      r1,[r4,#0x10]
        0x00000fc0:    2207        ."      MOVS     r2,#7
        0x00000fc2:    4311        .C      ORRS     r1,r1,r2
        0x00000fc4:    6121        !a      STR      r1,[r4,#0x10]
        0x00000fc6:    6a21        !j      LDR      r1,[r4,#0x20]
        0x00000fc8:    2201        ."      MOVS     r2,#1
        0x00000fca:    0412        ..      LSLS     r2,r2,#16
        0x00000fcc:    4311        .C      ORRS     r1,r1,r2
        0x00000fce:    6221        !b      STR      r1,[r4,#0x20]
        0x00000fd0:    6821        !h      LDR      r1,[r4,#0]
        0x00000fd2:    07c9        ..      LSLS     r1,r1,#31
        0x00000fd4:    4601        .F      MOV      r1,r0
        0x00000fd6:    d004        ..      BEQ      0xfe2 ; CLK_SetCoreClock + 74
        0x00000fd8:    2000        .       MOVS     r0,#0
        0x00000fda:    f7fffedd    ....    BL       CLK_EnablePLL ; 0xd98
        0x00000fde:    4607        .F      MOV      r7,r0
        0x00000fe0:    e007        ..      B        0xff2 ; CLK_SetCoreClock + 90
        0x00000fe2:    2001        .       MOVS     r0,#1
        0x00000fe4:    04c0        ..      LSLS     r0,r0,#19
        0x00000fe6:    f7fffed7    ....    BL       CLK_EnablePLL ; 0xd98
        0x00000fea:    68e5        .h      LDR      r5,[r4,#0xc]
        0x00000fec:    4607        .F      MOV      r7,r0
        0x00000fee:    2010        .       MOVS     r0,#0x10
        0x00000ff0:    4005        .@      ANDS     r5,r5,r0
        0x00000ff2:    2100        .!      MOVS     r1,#0
        0x00000ff4:    2002        .       MOVS     r0,#2
        0x00000ff6:    f000f80b    ....    BL       CLK_SetHCLK ; 0x1010
        0x00000ffa:    2d00        .-      CMP      r5,#0
        0x00000ffc:    d102        ..      BNE      0x1004 ; CLK_SetCoreClock + 108
        0x00000ffe:    6820         h      LDR      r0,[r4,#0]
        0x00001000:    43b0        .C      BICS     r0,r0,r6
        0x00001002:    6020         `      STR      r0,[r4,#0]
        0x00001004:    4638        8F      MOV      r0,r7
        0x00001006:    bdf8        ..      POP      {r3-r7,pc}
    $d
        0x00001008:    50000200    ...P    DCD    1342177792
        0x0000100c:    02faf080    ....    DCD    50000000
    $t
    i.CLK_SetHCLK
    CLK_SetHCLK
        0x00001010:    b570        p.      PUSH     {r4-r6,lr}
        0x00001012:    4c10        .L      LDR      r4,[pc,#64] ; [0x1054] = 0x50000200
        0x00001014:    68e5        .h      LDR      r5,[r4,#0xc]
        0x00001016:    2610        .&      MOVS     r6,#0x10
        0x00001018:    6822        "h      LDR      r2,[r4,#0]
        0x0000101a:    4035        5@      ANDS     r5,r5,r6
        0x0000101c:    2304        .#      MOVS     r3,#4
        0x0000101e:    431a        .C      ORRS     r2,r2,r3
        0x00001020:    6022        "`      STR      r2,[r4,#0]
        0x00001022:    68e2        .h      LDR      r2,[r4,#0xc]
        0x00001024:    06d2        ..      LSLS     r2,r2,#27
        0x00001026:    d5fc        ..      BPL      0x1022 ; CLK_SetHCLK + 18
        0x00001028:    6922        "i      LDR      r2,[r4,#0x10]
        0x0000102a:    2307        .#      MOVS     r3,#7
        0x0000102c:    431a        .C      ORRS     r2,r2,r3
        0x0000102e:    6122        "a      STR      r2,[r4,#0x10]
        0x00001030:    69a2        .i      LDR      r2,[r4,#0x18]
        0x00001032:    0912        ..      LSRS     r2,r2,#4
        0x00001034:    0112        ..      LSLS     r2,r2,#4
        0x00001036:    430a        .C      ORRS     r2,r2,r1
        0x00001038:    61a2        .a      STR      r2,[r4,#0x18]
        0x0000103a:    6921        !i      LDR      r1,[r4,#0x10]
        0x0000103c:    4399        .C      BICS     r1,r1,r3
        0x0000103e:    4301        .C      ORRS     r1,r1,r0
        0x00001040:    6121        !a      STR      r1,[r4,#0x10]
        0x00001042:    f000f9d9    ....    BL       SystemCoreClockUpdate ; 0x13f8
        0x00001046:    2d00        .-      CMP      r5,#0
        0x00001048:    d102        ..      BNE      0x1050 ; CLK_SetHCLK + 64
        0x0000104a:    6820         h      LDR      r0,[r4,#0]
        0x0000104c:    43b0        .C      BICS     r0,r0,r6
        0x0000104e:    6020         `      STR      r0,[r4,#0]
        0x00001050:    bd70        p.      POP      {r4-r6,pc}
    $d
        0x00001052:    0000        ..      DCW    0
        0x00001054:    50000200    ...P    DCD    1342177792
    $t
    i.CLK_SetModuleClock
    CLK_SetModuleClock
        0x00001058:    b5f0        ..      PUSH     {r4-r7,lr}
        0x0000105a:    4b2c        ,K      LDR      r3,[pc,#176] ; [0x110c] = 0x3af8
        0x0000105c:    b086        ..      SUB      sp,sp,#0x18
        0x0000105e:    461c        .F      MOV      r4,r3
        0x00001060:    3408        .4      ADDS     r4,r4,#8
        0x00001062:    ccf0        ..      LDM      r4,{r4-r7}
        0x00001064:    9400        ..      STR      r4,[sp,#0]
        0x00001066:    ac01        ..      ADD      r4,sp,#4
        0x00001068:    c4e0        ..      STM      r4!,{r5-r7}
        0x0000106a:    cb18        ..      LDM      r3,{r3,r4}
        0x0000106c:    9304        ..      STR      r3,[sp,#0x10]
        0x0000106e:    0e43        C.      LSRS     r3,r0,#25
        0x00001070:    9405        ..      STR      r4,[sp,#0x14]
        0x00001072:    075b        [.      LSLS     r3,r3,#29
        0x00001074:    d034        4.      BEQ      0x10e0 ; CLK_SetModuleClock + 136
        0x00001076:    0083        ..      LSLS     r3,r0,#2
        0x00001078:    0f9b        ..      LSRS     r3,r3,#30
        0x0000107a:    009b        ..      LSLS     r3,r3,#2
        0x0000107c:    466c        lF      MOV      r4,sp
        0x0000107e:    58e3        .X      LDR      r3,[r4,r3]
        0x00001080:    4c23        #L      LDR      r4,[pc,#140] ; [0x1110] = 0x50000210
        0x00001082:    191b        ..      ADDS     r3,r3,r4
        0x00001084:    0104        ..      LSLS     r4,r0,#4
        0x00001086:    0f65        e.      LSRS     r5,r4,#29
        0x00001088:    01c4        ..      LSLS     r4,r0,#7
        0x0000108a:    0ee4        ..      LSRS     r4,r4,#27
        0x0000108c:    40a5        .@      LSLS     r5,r5,r4
        0x0000108e:    681c        .h      LDR      r4,[r3,#0]
        0x00001090:    43ac        .C      BICS     r4,r4,r5
        0x00001092:    430c        .C      ORRS     r4,r4,r1
        0x00001094:    601c        .`      STR      r4,[r3,#0]
        0x00001096:    4b1e        .K      LDR      r3,[pc,#120] ; [0x1110] = 0x50000210
        0x00001098:    4c1e        .L      LDR      r4,[pc,#120] ; [0x1114] = 0x57c00014
        0x0000109a:    3b10        .;      SUBS     r3,r3,#0x10
        0x0000109c:    42a0        .B      CMP      r0,r4
        0x0000109e:    d107        ..      BNE      0x10b0 ; CLK_SetModuleClock + 88
        0x000010a0:    69dd        .i      LDR      r5,[r3,#0x1c]
        0x000010a2:    24ff        .$      MOVS     r4,#0xff
        0x000010a4:    3401        .4      ADDS     r4,#1
        0x000010a6:    43a5        .C      BICS     r5,r5,r4
        0x000010a8:    4021        !@      ANDS     r1,r1,r4
        0x000010aa:    430d        .C      ORRS     r5,r5,r1
        0x000010ac:    61dd        .a      STR      r5,[r3,#0x1c]
        0x000010ae:    e017        ..      B        0x10e0 ; CLK_SetModuleClock + 136
        0x000010b0:    4c19        .L      LDR      r4,[pc,#100] ; [0x1118] = 0x57e00015
        0x000010b2:    42a0        .B      CMP      r0,r4
        0x000010b4:    d103        ..      BNE      0x10be ; CLK_SetModuleClock + 102
        0x000010b6:    69dc        .i      LDR      r4,[r3,#0x1c]
        0x000010b8:    2501        .%      MOVS     r5,#1
        0x000010ba:    026d        m.      LSLS     r5,r5,#9
        0x000010bc:    e00c        ..      B        0x10d8 ; CLK_SetModuleClock + 128
        0x000010be:    4c17        .L      LDR      r4,[pc,#92] ; [0x111c] = 0x66400016
        0x000010c0:    42a0        .B      CMP      r0,r4
        0x000010c2:    d103        ..      BNE      0x10cc ; CLK_SetModuleClock + 116
        0x000010c4:    69dc        .i      LDR      r4,[r3,#0x1c]
        0x000010c6:    2501        .%      MOVS     r5,#1
        0x000010c8:    02ad        ..      LSLS     r5,r5,#10
        0x000010ca:    e005        ..      B        0x10d8 ; CLK_SetModuleClock + 128
        0x000010cc:    4c14        .L      LDR      r4,[pc,#80] ; [0x1120] = 0x66600017
        0x000010ce:    42a0        .B      CMP      r0,r4
        0x000010d0:    d106        ..      BNE      0x10e0 ; CLK_SetModuleClock + 136
        0x000010d2:    69dc        .i      LDR      r4,[r3,#0x1c]
        0x000010d4:    2501        .%      MOVS     r5,#1
        0x000010d6:    02ed        ..      LSLS     r5,r5,#11
        0x000010d8:    43ac        .C      BICS     r4,r4,r5
        0x000010da:    4029        )@      ANDS     r1,r1,r5
        0x000010dc:    430c        .C      ORRS     r4,r4,r1
        0x000010de:    61dc        .a      STR      r4,[r3,#0x1c]
        0x000010e0:    0a83        ..      LSRS     r3,r0,#10
        0x000010e2:    0619        ..      LSLS     r1,r3,#24
        0x000010e4:    0e09        ..      LSRS     r1,r1,#24
        0x000010e6:    d00f        ..      BEQ      0x1108 ; CLK_SetModuleClock + 176
        0x000010e8:    0301        ..      LSLS     r1,r0,#12
        0x000010ea:    0f89        ..      LSRS     r1,r1,#30
        0x000010ec:    0089        ..      LSLS     r1,r1,#2
        0x000010ee:    ac04        ..      ADD      r4,sp,#0x10
        0x000010f0:    5861        aX      LDR      r1,[r4,r1]
        0x000010f2:    4c07        .L      LDR      r4,[pc,#28] ; [0x1110] = 0x50000210
        0x000010f4:    0580        ..      LSLS     r0,r0,#22
        0x000010f6:    3408        .4      ADDS     r4,r4,#8
        0x000010f8:    1909        ..      ADDS     r1,r1,r4
        0x000010fa:    b2db        ..      UXTB     r3,r3
        0x000010fc:    0ec0        ..      LSRS     r0,r0,#27
        0x000010fe:    4083        .@      LSLS     r3,r3,r0
        0x00001100:    6808        .h      LDR      r0,[r1,#0]
        0x00001102:    4398        .C      BICS     r0,r0,r3
        0x00001104:    4310        .C      ORRS     r0,r0,r2
        0x00001106:    6008        .`      STR      r0,[r1,#0]
        0x00001108:    b006        ..      ADD      sp,sp,#0x18
        0x0000110a:    bdf0        ..      POP      {r4-r7,pc}
    $d
        0x0000110c:    00003af8    .:..    DCD    15096
        0x00001110:    50000210    ...P    DCD    1342177808
        0x00001114:    57c00014    ...W    DCD    1472200724
        0x00001118:    57e00015    ...W    DCD    1474297877
        0x0000111c:    66400016    ..@f    DCD    1715470358
        0x00001120:    66600017    ..`f    DCD    1717567511
    $t
    i.CLK_WaitClockReady
    CLK_WaitClockReady
        0x00001124:    b510        ..      PUSH     {r4,lr}
        0x00001126:    4604        .F      MOV      r4,r0
        0x00001128:    4907        .I      LDR      r1,[pc,#28] ; [0x1148] = 0x124f80
        0x0000112a:    4b08        .K      LDR      r3,[pc,#32] ; [0x114c] = 0x50000200
        0x0000112c:    e005        ..      B        0x113a ; CLK_WaitClockReady + 22
        0x0000112e:    460a        .F      MOV      r2,r1
        0x00001130:    1e49        I.      SUBS     r1,r1,#1
        0x00001132:    2a00        .*      CMP      r2,#0
        0x00001134:    dc01        ..      BGT      0x113a ; CLK_WaitClockReady + 22
        0x00001136:    2000        .       MOVS     r0,#0
        0x00001138:    bd10        ..      POP      {r4,pc}
        0x0000113a:    68da        .h      LDR      r2,[r3,#0xc]
        0x0000113c:    4620         F      MOV      r0,r4
        0x0000113e:    4390        .C      BICS     r0,r0,r2
        0x00001140:    d1f5        ..      BNE      0x112e ; CLK_WaitClockReady + 10
        0x00001142:    2001        .       MOVS     r0,#1
        0x00001144:    bd10        ..      POP      {r4,pc}
    $d
        0x00001146:    0000        ..      DCW    0
        0x00001148:    00124f80    .O..    DCD    1200000
        0x0000114c:    50000200    ...P    DCD    1342177792
    $t
    i.GPIO_SetMode
    GPIO_SetMode
        0x00001150:    b5f0        ..      PUSH     {r4-r7,lr}
        0x00001152:    2300        .#      MOVS     r3,#0
        0x00001154:    2701        .'      MOVS     r7,#1
        0x00001156:    463c        <F      MOV      r4,r7
        0x00001158:    409c        .@      LSLS     r4,r4,r3
        0x0000115a:    420c        .B      TST      r4,r1
        0x0000115c:    d008        ..      BEQ      0x1170 ; GPIO_SetMode + 32
        0x0000115e:    6805        .h      LDR      r5,[r0,#0]
        0x00001160:    005c        \.      LSLS     r4,r3,#1
        0x00001162:    2603        .&      MOVS     r6,#3
        0x00001164:    40a6        .@      LSLS     r6,r6,r4
        0x00001166:    43b5        .C      BICS     r5,r5,r6
        0x00001168:    4616        .F      MOV      r6,r2
        0x0000116a:    40a6        .@      LSLS     r6,r6,r4
        0x0000116c:    4335        5C      ORRS     r5,r5,r6
        0x0000116e:    6005        .`      STR      r5,[r0,#0]
        0x00001170:    1c5b        [.      ADDS     r3,r3,#1
        0x00001172:    2b10        .+      CMP      r3,#0x10
        0x00001174:    d3ef        ..      BCC      0x1156 ; GPIO_SetMode + 6
        0x00001176:    bdf0        ..      POP      {r4-r7,pc}
    i.Get_Train_Accuracy
    Get_Train_Accuracy
        0x00001178:    b5fe        ..      PUSH     {r1-r7,lr}
        0x0000117a:    2000        .       MOVS     r0,#0
        0x0000117c:    4604        .F      MOV      r4,r0
        0x0000117e:    9000        ..      STR      r0,[sp,#0]
        0x00001180:    200c        .       MOVS     r0,#0xc
        0x00001182:    4958        XI      LDR      r1,[pc,#352] ; [0x12e4] = 0x2000004c
        0x00001184:    2500        .%      MOVS     r5,#0
        0x00001186:    4360        `C      MULS     r0,r4,r0
        0x00001188:    1840        @.      ADDS     r0,r0,r1
        0x0000118a:    9001        ..      STR      r0,[sp,#4]
        0x0000118c:    4856        VH      LDR      r0,[pc,#344] ; [0x12e8] = 0x20000f08
        0x0000118e:    00ae        ..      LSLS     r6,r5,#2
        0x00001190:    1831        1.      ADDS     r1,r6,r0
        0x00001192:    6f8a        .o      LDR      r2,[r1,#0x78]
        0x00001194:    4953        SI      LDR      r1,[pc,#332] ; [0x12e4] = 0x2000004c
        0x00001196:    3920         9      SUBS     r1,r1,#0x20
        0x00001198:    2700        .'      MOVS     r7,#0
        0x0000119a:    610a        .a      STR      r2,[r1,#0x10]
        0x0000119c:    2028        (       MOVS     r0,#0x28
        0x0000119e:    4952        RI      LDR      r1,[pc,#328] ; [0x12e8] = 0x20000f08
        0x000011a0:    4378        xC      MULS     r0,r7,r0
        0x000011a2:    1840        @.      ADDS     r0,r0,r1
        0x000011a4:    5981        .Y      LDR      r1,[r0,r6]
        0x000011a6:    9801        ..      LDR      r0,[sp,#4]
        0x000011a8:    00ba        ..      LSLS     r2,r7,#2
        0x000011aa:    5880        .X      LDR      r0,[r0,r2]
        0x000011ac:    f7fff864    ..d.    BL       __aeabi_fmul ; 0x278
        0x000011b0:    494c        LI      LDR      r1,[pc,#304] ; [0x12e4] = 0x2000004c
        0x000011b2:    3920         9      SUBS     r1,r1,#0x20
        0x000011b4:    6909        .i      LDR      r1,[r1,#0x10]
        0x000011b6:    f7fff806    ....    BL       __aeabi_fadd ; 0x1c6
        0x000011ba:    494a        JI      LDR      r1,[pc,#296] ; [0x12e4] = 0x2000004c
        0x000011bc:    1c7f        ..      ADDS     r7,r7,#1
        0x000011be:    3920         9      SUBS     r1,r1,#0x20
        0x000011c0:    6108        .a      STR      r0,[r1,#0x10]
        0x000011c2:    2f03        ./      CMP      r7,#3
        0x000011c4:    dbea        ..      BLT      0x119c ; Get_Train_Accuracy + 36
        0x000011c6:    460f        .F      MOV      r7,r1
        0x000011c8:    2101        .!      MOVS     r1,#1
        0x000011ca:    6938        8i      LDR      r0,[r7,#0x10]
        0x000011cc:    07c9        ..      LSLS     r1,r1,#31
        0x000011ce:    4048        H@      EORS     r0,r0,r1
        0x000011d0:    f7fffa88    ....    BL       __aeabi_f2d ; 0x6e4
        0x000011d4:    f000ff28    ..(.    BL       exp ; 0x2028
        0x000011d8:    2200        ."      MOVS     r2,#0
        0x000011da:    4b44        DK      LDR      r3,[pc,#272] ; [0x12ec] = 0x3ff00000
        0x000011dc:    f7fff8c8    ....    BL       __aeabi_dadd ; 0x370
        0x000011e0:    4602        .F      MOV      r2,r0
        0x000011e2:    460b        .F      MOV      r3,r1
        0x000011e4:    2000        .       MOVS     r0,#0
        0x000011e6:    4941        AI      LDR      r1,[pc,#260] ; [0x12ec] = 0x3ff00000
        0x000011e8:    f7fff9dc    ....    BL       __aeabi_ddiv ; 0x5a4
        0x000011ec:    f7fffa8e    ....    BL       __aeabi_d2f ; 0x70c
        0x000011f0:    493d        =I      LDR      r1,[pc,#244] ; [0x12e8] = 0x20000f08
        0x000011f2:    1c6d        m.      ADDS     r5,r5,#1
        0x000011f4:    3938        89      SUBS     r1,r1,#0x38
        0x000011f6:    5188        .Q      STR      r0,[r1,r6]
        0x000011f8:    2d0a        .-      CMP      r5,#0xa
        0x000011fa:    dbc7        ..      BLT      0x118c ; Get_Train_Accuracy + 20
        0x000011fc:    2500        .%      MOVS     r5,#0
        0x000011fe:    493a        :I      LDR      r1,[pc,#232] ; [0x12e8] = 0x20000f08
        0x00001200:    00af        ..      LSLS     r7,r5,#2
        0x00001202:    31a0        .1      ADDS     r1,r1,#0xa0
        0x00001204:    1878        x.      ADDS     r0,r7,r1
        0x00001206:    3080        .0      ADDS     r0,r0,#0x80
        0x00001208:    6a02        .j      LDR      r2,[r0,#0x20]
        0x0000120a:    4836        6H      LDR      r0,[pc,#216] ; [0x12e4] = 0x2000004c
        0x0000120c:    3820         8      SUBS     r0,r0,#0x20
        0x0000120e:    2600        .&      MOVS     r6,#0
        0x00001210:    6102        .a      STR      r2,[r0,#0x10]
        0x00001212:    4835        5H      LDR      r0,[pc,#212] ; [0x12e8] = 0x20000f08
        0x00001214:    0131        1.      LSLS     r1,r6,#4
        0x00001216:    30a0        .0      ADDS     r0,r0,#0xa0
        0x00001218:    1808        ..      ADDS     r0,r1,r0
        0x0000121a:    59c1        .Y      LDR      r1,[r0,r7]
        0x0000121c:    4832        2H      LDR      r0,[pc,#200] ; [0x12e8] = 0x20000f08
        0x0000121e:    00b2        ..      LSLS     r2,r6,#2
        0x00001220:    3838        88      SUBS     r0,r0,#0x38
        0x00001222:    5880        .X      LDR      r0,[r0,r2]
        0x00001224:    f7fff828    ..(.    BL       __aeabi_fmul ; 0x278
        0x00001228:    492e        .I      LDR      r1,[pc,#184] ; [0x12e4] = 0x2000004c
        0x0000122a:    3920         9      SUBS     r1,r1,#0x20
        0x0000122c:    6909        .i      LDR      r1,[r1,#0x10]
        0x0000122e:    f7feffca    ....    BL       __aeabi_fadd ; 0x1c6
        0x00001232:    492c        ,I      LDR      r1,[pc,#176] ; [0x12e4] = 0x2000004c
        0x00001234:    1c76        v.      ADDS     r6,r6,#1
        0x00001236:    3920         9      SUBS     r1,r1,#0x20
        0x00001238:    6108        .a      STR      r0,[r1,#0x10]
        0x0000123a:    2e0a        ..      CMP      r6,#0xa
        0x0000123c:    dbe9        ..      BLT      0x1212 ; Get_Train_Accuracy + 154
        0x0000123e:    4608        .F      MOV      r0,r1
        0x00001240:    6900        .i      LDR      r0,[r0,#0x10]
        0x00001242:    2101        .!      MOVS     r1,#1
        0x00001244:    07c9        ..      LSLS     r1,r1,#31
        0x00001246:    4048        H@      EORS     r0,r0,r1
        0x00001248:    f7fffa4c    ..L.    BL       __aeabi_f2d ; 0x6e4
        0x0000124c:    f000feec    ....    BL       exp ; 0x2028
        0x00001250:    4e26        &N      LDR      r6,[pc,#152] ; [0x12ec] = 0x3ff00000
        0x00001252:    2200        ."      MOVS     r2,#0
        0x00001254:    4633        3F      MOV      r3,r6
        0x00001256:    f7fff88b    ....    BL       __aeabi_dadd ; 0x370
        0x0000125a:    4602        .F      MOV      r2,r0
        0x0000125c:    460b        .F      MOV      r3,r1
        0x0000125e:    2000        .       MOVS     r0,#0
        0x00001260:    4631        1F      MOV      r1,r6
        0x00001262:    f7fff99f    ....    BL       __aeabi_ddiv ; 0x5a4
        0x00001266:    f7fffa51    ..Q.    BL       __aeabi_d2f ; 0x70c
        0x0000126a:    4e1f        .N      LDR      r6,[pc,#124] ; [0x12e8] = 0x20000f08
        0x0000126c:    1c6d        m.      ADDS     r5,r5,#1
        0x0000126e:    3e10        .>      SUBS     r6,r6,#0x10
        0x00001270:    51f0        .Q      STR      r0,[r6,r7]
        0x00001272:    2d04        .-      CMP      r5,#4
        0x00001274:    dbc3        ..      BLT      0x11fe ; Get_Train_Accuracy + 134
        0x00001276:    4d1b        .M      LDR      r5,[pc,#108] ; [0x12e4] = 0x2000004c
        0x00001278:    2700        .'      MOVS     r7,#0
        0x0000127a:    3d20         =      SUBS     r5,r5,#0x20
        0x0000127c:    491c        .I      LDR      r1,[pc,#112] ; [0x12f0] = 0x2000040c
        0x0000127e:    2001        .       MOVS     r0,#1
        0x00001280:    0122        ".      LSLS     r2,r4,#4
        0x00001282:    1851        Q.      ADDS     r1,r2,r1
        0x00001284:    61ef        .a      STR      r7,[r5,#0x1c]
        0x00001286:    69eb        .i      LDR      r3,[r5,#0x1c]
        0x00001288:    0082        ..      LSLS     r2,r0,#2
        0x0000128a:    009b        ..      LSLS     r3,r3,#2
        0x0000128c:    588a        .X      LDR      r2,[r1,r2]
        0x0000128e:    58cb        .X      LDR      r3,[r1,r3]
        0x00001290:    429a        .B      CMP      r2,r3
        0x00001292:    dd00        ..      BLE      0x1296 ; Get_Train_Accuracy + 286
        0x00001294:    61e8        .a      STR      r0,[r5,#0x1c]
        0x00001296:    1c40        @.      ADDS     r0,r0,#1
        0x00001298:    2804        .(      CMP      r0,#4
        0x0000129a:    dbf4        ..      BLT      0x1286 ; Get_Train_Accuracy + 270
        0x0000129c:    69e8        .i      LDR      r0,[r5,#0x1c]
        0x0000129e:    61ef        .a      STR      r7,[r5,#0x1c]
        0x000012a0:    6168        ha      STR      r0,[r5,#0x14]
        0x000012a2:    2701        .'      MOVS     r7,#1
        0x000012a4:    69e8        .i      LDR      r0,[r5,#0x1c]
        0x000012a6:    0080        ..      LSLS     r0,r0,#2
        0x000012a8:    5831        1X      LDR      r1,[r6,r0]
        0x000012aa:    00b8        ..      LSLS     r0,r7,#2
        0x000012ac:    5830        0X      LDR      r0,[r6,r0]
        0x000012ae:    f7fffa49    ..I.    BL       __aeabi_cfrcmple ; 0x744
        0x000012b2:    d200        ..      BCS      0x12b6 ; Get_Train_Accuracy + 318
        0x000012b4:    61ef        .a      STR      r7,[r5,#0x1c]
        0x000012b6:    1c7f        ..      ADDS     r7,r7,#1
        0x000012b8:    2f04        ./      CMP      r7,#4
        0x000012ba:    dbf3        ..      BLT      0x12a4 ; Get_Train_Accuracy + 300
        0x000012bc:    69e8        .i      LDR      r0,[r5,#0x1c]
        0x000012be:    61a8        .a      STR      r0,[r5,#0x18]
        0x000012c0:    6969        ii      LDR      r1,[r5,#0x14]
        0x000012c2:    4288        .B      CMP      r0,r1
        0x000012c4:    d102        ..      BNE      0x12cc ; Get_Train_Accuracy + 340
        0x000012c6:    9800        ..      LDR      r0,[sp,#0]
        0x000012c8:    1c40        @.      ADDS     r0,r0,#1
        0x000012ca:    9000        ..      STR      r0,[sp,#0]
        0x000012cc:    1c64        d.      ADDS     r4,r4,#1
        0x000012ce:    2c50        P,      CMP      r4,#0x50
        0x000012d0:    da00        ..      BGE      0x12d4 ; Get_Train_Accuracy + 348
        0x000012d2:    e755        U.      B        0x1180 ; Get_Train_Accuracy + 8
        0x000012d4:    9800        ..      LDR      r0,[sp,#0]
        0x000012d6:    f7fff9f3    ....    BL       __aeabi_i2f ; 0x6c0
        0x000012da:    4906        .I      LDR      r1,[pc,#24] ; [0x12f4] = 0x42a00000
        0x000012dc:    f7fff809    ....    BL       __aeabi_fdiv ; 0x2f2
        0x000012e0:    bdfe        ..      POP      {r1-r7,pc}
    $d
        0x000012e2:    0000        ..      DCW    0
        0x000012e4:    2000004c    L..     DCD    536870988
        0x000012e8:    20000f08    ...     DCD    536874760
        0x000012ec:    3ff00000    ...?    DCD    1072693248
        0x000012f0:    2000040c    ...     DCD    536871948
        0x000012f4:    42a00000    ...B    DCD    1117782016
    $t
    i.Hard_Fault_Handler
    Hard_Fault_Handler
    __tagsym$$used
        0x000012f8:    4604        .F      MOV      r4,r0
        0x000012fa:    a003        ..      ADR      r0,{pc}+0xe ; 0x1308
        0x000012fc:    f000f918    ....    BL       __0printf ; 0x1530
        0x00001300:    4620         F      MOV      r0,r4
        0x00001302:    f002fb85    ....    BL       stackDump ; 0x3a10
        0x00001306:    e7fe        ..      B        0x1306 ; Hard_Fault_Handler + 14
    $d
        0x00001308:    48206e49    In H    DCD    1210084937
        0x0000130c:    20647261    ard     DCD    543453793
        0x00001310:    6c756146    Faul    DCD    1819631942
        0x00001314:    61482074    t Ha    DCD    1632116852
        0x00001318:    656c646e    ndle    DCD    1701602414
        0x0000131c:    00000a72    r...    DCD    2674
    $t
    i.SYS_Init
    SYS_Init
        0x00001320:    b570        p.      PUSH     {r4-r6,lr}
        0x00001322:    2004        .       MOVS     r0,#4
        0x00001324:    f7fffe04    ....    BL       CLK_EnableXtalRC ; 0xf30
        0x00001328:    2010        .       MOVS     r0,#0x10
        0x0000132a:    f7fffefb    ....    BL       CLK_WaitClockReady ; 0x1124
        0x0000132e:    2100        .!      MOVS     r1,#0
        0x00001330:    2007        .       MOVS     r0,#7
        0x00001332:    f7fffe6d    ..m.    BL       CLK_SetHCLK ; 0x1010
        0x00001336:    2001        .       MOVS     r0,#1
        0x00001338:    f7fffdfa    ....    BL       CLK_EnableXtalRC ; 0xf30
        0x0000133c:    2001        .       MOVS     r0,#1
        0x0000133e:    f7fffef1    ....    BL       CLK_WaitClockReady ; 0x1124
        0x00001342:    4819        .H      LDR      r0,[pc,#100] ; [0x13a8] = 0x2faf080
        0x00001344:    f7fffe28    ..(.    BL       CLK_SetCoreClock ; 0xf98
        0x00001348:    4c18        .L      LDR      r4,[pc,#96] ; [0x13ac] = 0x57803d10
        0x0000134a:    4620         F      MOV      r0,r4
        0x0000134c:    f7fffd0c    ....    BL       CLK_EnableModuleClock ; 0xd68
        0x00001350:    4d17        .M      LDR      r5,[pc,#92] ; [0x13b0] = 0x5623fe1c
        0x00001352:    4628        (F      MOV      r0,r5
        0x00001354:    f7fffd08    ....    BL       CLK_EnableModuleClock ; 0xd68
        0x00001358:    2101        .!      MOVS     r1,#1
        0x0000135a:    2200        ."      MOVS     r2,#0
        0x0000135c:    0609        ..      LSLS     r1,r1,#24
        0x0000135e:    4620         F      MOV      r0,r4
        0x00001360:    f7fffe7a    ..z.    BL       CLK_SetModuleClock ; 0x1058
        0x00001364:    2203        ."      MOVS     r2,#3
        0x00001366:    0452        R.      LSLS     r2,r2,#17
        0x00001368:    210c        .!      MOVS     r1,#0xc
        0x0000136a:    4628        (F      MOV      r0,r5
        0x0000136c:    f7fffe74    ..t.    BL       CLK_SetModuleClock ; 0x1058
        0x00001370:    2005        .       MOVS     r0,#5
        0x00001372:    0700        ..      LSLS     r0,r0,#28
        0x00001374:    6b41        Ak      LDR      r1,[r0,#0x34]
        0x00001376:    0889        ..      LSRS     r1,r1,#2
        0x00001378:    0089        ..      LSLS     r1,r1,#2
        0x0000137a:    6341        Ac      STR      r1,[r0,#0x34]
        0x0000137c:    6b41        Ak      LDR      r1,[r0,#0x34]
        0x0000137e:    2203        ."      MOVS     r2,#3
        0x00001380:    4311        .C      ORRS     r1,r1,r2
        0x00001382:    6341        Ac      STR      r1,[r0,#0x34]
        0x00001384:    490b        .I      LDR      r1,[pc,#44] ; [0x13b4] = 0x50004000
        0x00001386:    684a        Jh      LDR      r2,[r1,#4]
        0x00001388:    230f        .#      MOVS     r3,#0xf
        0x0000138a:    041b        ..      LSLS     r3,r3,#16
        0x0000138c:    431a        .C      ORRS     r2,r2,r3
        0x0000138e:    604a        J`      STR      r2,[r1,#4]
        0x00001390:    6b01        .k      LDR      r1,[r0,#0x30]
        0x00001392:    0909        ..      LSRS     r1,r1,#4
        0x00001394:    0109        ..      LSLS     r1,r1,#4
        0x00001396:    6301        .c      STR      r1,[r0,#0x30]
        0x00001398:    6b01        .k      LDR      r1,[r0,#0x30]
        0x0000139a:    220f        ."      MOVS     r2,#0xf
        0x0000139c:    4311        .C      ORRS     r1,r1,r2
        0x0000139e:    6301        .c      STR      r1,[r0,#0x30]
        0x000013a0:    4905        .I      LDR      r1,[pc,#20] ; [0x13b8] = 0x50000040
        0x000013a2:    2000        .       MOVS     r0,#0
        0x000013a4:    6188        .a      STR      r0,[r1,#0x18]
        0x000013a6:    bd70        p.      POP      {r4-r6,pc}
    $d
        0x000013a8:    02faf080    ....    DCD    50000000
        0x000013ac:    57803d10    .=.W    DCD    1468022032
        0x000013b0:    5623fe1c    ..#V    DCD    1445199388
        0x000013b4:    50004000    .@.P    DCD    1342193664
        0x000013b8:    50000040    @..P    DCD    1342177344
    $t
    i.SYS_ResetModule
    SYS_ResetModule
        0x000013bc:    2105        .!      MOVS     r1,#5
        0x000013be:    0e02        ..      LSRS     r2,r0,#24
        0x000013c0:    0709        ..      LSLS     r1,r1,#28
        0x000013c2:    1851        Q.      ADDS     r1,r2,r1
        0x000013c4:    688b        .h      LDR      r3,[r1,#8]
        0x000013c6:    2201        ."      MOVS     r2,#1
        0x000013c8:    4082        .@      LSLS     r2,r2,r0
        0x000013ca:    4313        .C      ORRS     r3,r3,r2
        0x000013cc:    608b        .`      STR      r3,[r1,#8]
        0x000013ce:    6888        .h      LDR      r0,[r1,#8]
        0x000013d0:    4390        .C      BICS     r0,r0,r2
        0x000013d2:    6088        .`      STR      r0,[r1,#8]
        0x000013d4:    4770        pG      BX       lr
        0x000013d6:    0000        ..      MOVS     r0,r0
    i.SendChar_ToUART
    SendChar_ToUART
        0x000013d8:    4906        .I      LDR      r1,[pc,#24] ; [0x13f4] = 0x40050000
        0x000013da:    698a        .i      LDR      r2,[r1,#0x18]
        0x000013dc:    0212        ..      LSLS     r2,r2,#8
        0x000013de:    d4fc        ..      BMI      0x13da ; SendChar_ToUART + 2
        0x000013e0:    6008        .`      STR      r0,[r1,#0]
        0x000013e2:    280a        .(      CMP      r0,#0xa
        0x000013e4:    d104        ..      BNE      0x13f0 ; SendChar_ToUART + 24
        0x000013e6:    6988        .i      LDR      r0,[r1,#0x18]
        0x000013e8:    0200        ..      LSLS     r0,r0,#8
        0x000013ea:    d4fc        ..      BMI      0x13e6 ; SendChar_ToUART + 14
        0x000013ec:    200d        .       MOVS     r0,#0xd
        0x000013ee:    6008        .`      STR      r0,[r1,#0]
        0x000013f0:    4770        pG      BX       lr
    $d
        0x000013f2:    0000        ..      DCW    0
        0x000013f4:    40050000    ...@    DCD    1074069504
    $t
    i.SystemCoreClockUpdate
    SystemCoreClockUpdate
        0x000013f8:    b538        8.      PUSH     {r3-r5,lr}
        0x000013fa:    a01d        ..      ADR      r0,{pc}+0x76 ; 0x1470
        0x000013fc:    6800        .h      LDR      r0,[r0,#0]
        0x000013fe:    4c1d        .L      LDR      r4,[pc,#116] ; [0x1474] = 0x50000200
        0x00001400:    9000        ..      STR      r0,[sp,#0]
        0x00001402:    6a21        !j      LDR      r1,[r4,#0x20]
        0x00001404:    1320         .      ASRS     r0,r4,#12
        0x00001406:    4201        .B      TST      r1,r0
        0x00001408:    d001        ..      BEQ      0x140e ; SystemCoreClockUpdate + 22
        0x0000140a:    2000        .       MOVS     r0,#0
        0x0000140c:    e016        ..      B        0x143c ; SystemCoreClockUpdate + 68
        0x0000140e:    0308        ..      LSLS     r0,r1,#12
        0x00001410:    d501        ..      BPL      0x1416 ; SystemCoreClockUpdate + 30
        0x00001412:    4819        .H      LDR      r0,[pc,#100] ; [0x1478] = 0x1518000
        0x00001414:    e000        ..      B        0x1418 ; SystemCoreClockUpdate + 32
        0x00001416:    4819        .H      LDR      r0,[pc,#100] ; [0x147c] = 0xb71b00
        0x00001418:    038a        ..      LSLS     r2,r1,#14
        0x0000141a:    d40f        ..      BMI      0x143c ; SystemCoreClockUpdate + 68
        0x0000141c:    040a        ..      LSLS     r2,r1,#16
        0x0000141e:    0f92        ..      LSRS     r2,r2,#30
        0x00001420:    466b        kF      MOV      r3,sp
        0x00001422:    5c9b        .\      LDRB     r3,[r3,r2]
        0x00001424:    05ca        ..      LSLS     r2,r1,#23
        0x00001426:    0489        ..      LSLS     r1,r1,#18
        0x00001428:    0dd2        ..      LSRS     r2,r2,#23
        0x0000142a:    0ec9        ..      LSRS     r1,r1,#27
        0x0000142c:    1c89        ..      ADDS     r1,r1,#2
        0x0000142e:    0880        ..      LSRS     r0,r0,#2
        0x00001430:    1c92        ..      ADDS     r2,r2,#2
        0x00001432:    4359        YC      MULS     r1,r3,r1
        0x00001434:    4350        PC      MULS     r0,r2,r0
        0x00001436:    f7fefe81    ....    BL       __aeabi_uidiv ; 0x13c
        0x0000143a:    0080        ..      LSLS     r0,r0,#2
        0x0000143c:    4d10        .M      LDR      r5,[pc,#64] ; [0x1480] = 0x20000000
        0x0000143e:    60a8        .`      STR      r0,[r5,#8]
        0x00001440:    6921        !i      LDR      r1,[r4,#0x10]
        0x00001442:    0749        I.      LSLS     r1,r1,#29
        0x00001444:    0f49        I.      LSRS     r1,r1,#29
        0x00001446:    2902        .)      CMP      r1,#2
        0x00001448:    d003        ..      BEQ      0x1452 ; SystemCoreClockUpdate + 90
        0x0000144a:    0088        ..      LSLS     r0,r1,#2
        0x0000144c:    4629        )F      MOV      r1,r5
        0x0000144e:    310c        .1      ADDS     r1,r1,#0xc
        0x00001450:    5808        .X      LDR      r0,[r1,r0]
        0x00001452:    69a1        .i      LDR      r1,[r4,#0x18]
        0x00001454:    0709        ..      LSLS     r1,r1,#28
        0x00001456:    0f09        ..      LSRS     r1,r1,#28
        0x00001458:    1c49        I.      ADDS     r1,r1,#1
        0x0000145a:    f7fefe6f    ..o.    BL       __aeabi_uidiv ; 0x13c
        0x0000145e:    4909        .I      LDR      r1,[pc,#36] ; [0x1484] = 0xf4240
        0x00001460:    6028        (`      STR      r0,[r5,#0]
        0x00001462:    104a        J.      ASRS     r2,r1,#1
        0x00001464:    1880        ..      ADDS     r0,r0,r2
        0x00001466:    f7fefe69    ..i.    BL       __aeabi_uidiv ; 0x13c
        0x0000146a:    6068        h`      STR      r0,[r5,#4]
        0x0000146c:    bd38        8.      POP      {r3-r5,pc}
    $d
        0x0000146e:    0000        ..      DCW    0
        0x00001470:    04020201    ....    DCD    67240449
        0x00001474:    50000200    ...P    DCD    1342177792
        0x00001478:    01518000    ..Q.    DCD    22118400
        0x0000147c:    00b71b00    ....    DCD    12000000
        0x00001480:    20000000    ...     DCD    536870912
        0x00001484:    000f4240    @B..    DCD    1000000
    $t
    i.SystemInit
    SystemInit
        0x00001488:    4770        pG      BX       lr
        0x0000148a:    0000        ..      MOVS     r0,r0
    i.UART0_Init
    UART0_Init
        0x0000148c:    b510        ..      PUSH     {r4,lr}
        0x0000148e:    4804        .H      LDR      r0,[pc,#16] ; [0x14a0] = 0x4000010
        0x00001490:    f7ffff94    ....    BL       SYS_ResetModule ; 0x13bc
        0x00001494:    21e1        .!      MOVS     r1,#0xe1
        0x00001496:    0249        I.      LSLS     r1,r1,#9
        0x00001498:    4802        .H      LDR      r0,[pc,#8] ; [0x14a4] = 0x40050000
        0x0000149a:    f000f805    ....    BL       UART_Open ; 0x14a8
        0x0000149e:    bd10        ..      POP      {r4,pc}
    $d
        0x000014a0:    04000010    ....    DCD    67108880
        0x000014a4:    40050000    ...@    DCD    1074069504
    $t
    i.UART_Open
    UART_Open
        0x000014a8:    b5f0        ..      PUSH     {r4-r7,lr}
        0x000014aa:    4604        .F      MOV      r4,r0
        0x000014ac:    481c        .H      LDR      r0,[pc,#112] ; [0x1520] = 0x3b30
        0x000014ae:    460d        .F      MOV      r5,r1
        0x000014b0:    c80f        ..      LDM      r0,{r0-r3}
        0x000014b2:    b085        ..      SUB      sp,sp,#0x14
        0x000014b4:    466e        nF      MOV      r6,sp
        0x000014b6:    c60f        ..      STM      r6!,{r0-r3}
        0x000014b8:    481a        .H      LDR      r0,[pc,#104] ; [0x1524] = 0x50000200
        0x000014ba:    6941        Ai      LDR      r1,[r0,#0x14]
        0x000014bc:    6980        .i      LDR      r0,[r0,#0x18]
        0x000014be:    018a        ..      LSLS     r2,r1,#6
        0x000014c0:    2103        .!      MOVS     r1,#3
        0x000014c2:    0f96        ..      LSRS     r6,r2,#30
        0x000014c4:    0500        ..      LSLS     r0,r0,#20
        0x000014c6:    0f07        ..      LSRS     r7,r0,#28
        0x000014c8:    2000        .       MOVS     r0,#0
        0x000014ca:    6320         c      STR      r0,[r4,#0x30]
        0x000014cc:    60e1        .`      STR      r1,[r4,#0xc]
        0x000014ce:    68a0        .h      LDR      r0,[r4,#8]
        0x000014d0:    4915        .I      LDR      r1,[pc,#84] ; [0x1528] = 0xfff0ff0f
        0x000014d2:    4008        .@      ANDS     r0,r0,r1
        0x000014d4:    60a0        .`      STR      r0,[r4,#8]
        0x000014d6:    2e01        ..      CMP      r6,#1
        0x000014d8:    d102        ..      BNE      0x14e0 ; UART_Open + 56
        0x000014da:    f7fffd31    ..1.    BL       CLK_GetPLLClockFreq ; 0xf40
        0x000014de:    9001        ..      STR      r0,[sp,#4]
        0x000014e0:    2d00        .-      CMP      r5,#0
        0x000014e2:    d01b        ..      BEQ      0x151c ; UART_Open + 116
        0x000014e4:    00b1        ..      LSLS     r1,r6,#2
        0x000014e6:    4668        hF      MOV      r0,sp
        0x000014e8:    5840        @X      LDR      r0,[r0,r1]
        0x000014ea:    1c79        y.      ADDS     r1,r7,#1
        0x000014ec:    f7fefe26    ..&.    BL       __aeabi_uidiv ; 0x13c
        0x000014f0:    4606        .F      MOV      r6,r0
        0x000014f2:    0869        i.      LSRS     r1,r5,#1
        0x000014f4:    1840        @.      ADDS     r0,r0,r1
        0x000014f6:    4629        )F      MOV      r1,r5
        0x000014f8:    f7fefe20    .. .    BL       __aeabi_uidiv ; 0x13c
        0x000014fc:    490b        .I      LDR      r1,[pc,#44] ; [0x152c] = 0xffff
        0x000014fe:    1e80        ..      SUBS     r0,r0,#2
        0x00001500:    4288        .B      CMP      r0,r1
        0x00001502:    d907        ..      BLS      0x1514 ; UART_Open + 108
        0x00001504:    00e9        ..      LSLS     r1,r5,#3
        0x00001506:    1870        p.      ADDS     r0,r6,r1
        0x00001508:    4629        )F      MOV      r1,r5
        0x0000150a:    f7fefe17    ....    BL       __aeabi_uidiv ; 0x13c
        0x0000150e:    0900        ..      LSRS     r0,r0,#4
        0x00001510:    1e80        ..      SUBS     r0,r0,#2
        0x00001512:    e002        ..      B        0x151a ; UART_Open + 114
        0x00001514:    2103        .!      MOVS     r1,#3
        0x00001516:    0709        ..      LSLS     r1,r1,#28
        0x00001518:    4308        .C      ORRS     r0,r0,r1
        0x0000151a:    6260        `b      STR      r0,[r4,#0x24]
        0x0000151c:    b005        ..      ADD      sp,sp,#0x14
        0x0000151e:    bdf0        ..      POP      {r4-r7,pc}
    $d
        0x00001520:    00003b30    0;..    DCD    15152
        0x00001524:    50000200    ...P    DCD    1342177792
        0x00001528:    fff0ff0f    ....    DCD    4293984015
        0x0000152c:    0000ffff    ....    DCD    65535
    $t
    i.__0printf
    __0printf
    __1printf
    __2printf
    __c89printf
    printf
        0x00001530:    b40f        ..      PUSH     {r0-r3}
        0x00001532:    b510        ..      PUSH     {r4,lr}
        0x00001534:    a903        ..      ADD      r1,sp,#0xc
        0x00001536:    4b04        .K      LDR      r3,[pc,#16] ; [0x1548] = 0x22a5
        0x00001538:    4a04        .J      LDR      r2,[pc,#16] ; [0x154c] = 0x20000d6c
        0x0000153a:    9802        ..      LDR      r0,[sp,#8]
        0x0000153c:    f000f98c    ....    BL       _printf_core ; 0x1858
        0x00001540:    bc10        ..      POP      {r4}
        0x00001542:    bc08        ..      POP      {r3}
        0x00001544:    b004        ..      ADD      sp,sp,#0x10
        0x00001546:    4718        .G      BX       r3
    $d
        0x00001548:    000022a5    ."..    DCD    8869
        0x0000154c:    20000d6c    l..     DCD    536874348
    $t
    i.__ARM_clz
    __ARM_clz
        0x00001550:    2120         !      MOVS     r1,#0x20
        0x00001552:    0c02        ..      LSRS     r2,r0,#16
        0x00001554:    d001        ..      BEQ      0x155a ; __ARM_clz + 10
        0x00001556:    2110        .!      MOVS     r1,#0x10
        0x00001558:    4610        .F      MOV      r0,r2
        0x0000155a:    0a02        ..      LSRS     r2,r0,#8
        0x0000155c:    d001        ..      BEQ      0x1562 ; __ARM_clz + 18
        0x0000155e:    4610        .F      MOV      r0,r2
        0x00001560:    3908        .9      SUBS     r1,r1,#8
        0x00001562:    0902        ..      LSRS     r2,r0,#4
        0x00001564:    d001        ..      BEQ      0x156a ; __ARM_clz + 26
        0x00001566:    4610        .F      MOV      r0,r2
        0x00001568:    1f09        ..      SUBS     r1,r1,#4
        0x0000156a:    0882        ..      LSRS     r2,r0,#2
        0x0000156c:    d001        ..      BEQ      0x1572 ; __ARM_clz + 34
        0x0000156e:    4610        .F      MOV      r0,r2
        0x00001570:    1e89        ..      SUBS     r1,r1,#2
        0x00001572:    0842        B.      LSRS     r2,r0,#1
        0x00001574:    d001        ..      BEQ      0x157a ; __ARM_clz + 42
        0x00001576:    1e88        ..      SUBS     r0,r1,#2
        0x00001578:    4770        pG      BX       lr
        0x0000157a:    1a08        ..      SUBS     r0,r1,r0
        0x0000157c:    4770        pG      BX       lr
        0x0000157e:    0000        ..      MOVS     r0,r0
    i.__ARM_fpclassify
    __ARM_fpclassify
        0x00001580:    0049        I.      LSLS     r1,r1,#1
        0x00001582:    02ca        ..      LSLS     r2,r1,#11
        0x00001584:    4302        .C      ORRS     r2,r2,r0
        0x00001586:    0010        ..      MOVS     r0,r2
        0x00001588:    d000        ..      BEQ      0x158c ; __ARM_fpclassify + 12
        0x0000158a:    2004        .       MOVS     r0,#4
        0x0000158c:    0d4a        J.      LSRS     r2,r1,#21
        0x0000158e:    d001        ..      BEQ      0x1594 ; __ARM_fpclassify + 20
        0x00001590:    2201        ."      MOVS     r2,#1
        0x00001592:    4310        .C      ORRS     r0,r0,r2
        0x00001594:    4a04        .J      LDR      r2,[pc,#16] ; [0x15a8] = 0x7ff
        0x00001596:    0d49        I.      LSRS     r1,r1,#21
        0x00001598:    4291        .B      CMP      r1,r2
        0x0000159a:    d101        ..      BNE      0x15a0 ; __ARM_fpclassify + 32
        0x0000159c:    2102        .!      MOVS     r1,#2
        0x0000159e:    4308        .C      ORRS     r0,r0,r1
        0x000015a0:    2801        .(      CMP      r0,#1
        0x000015a2:    d100        ..      BNE      0x15a6 ; __ARM_fpclassify + 38
        0x000015a4:    2005        .       MOVS     r0,#5
        0x000015a6:    4770        pG      BX       lr
    $d
        0x000015a8:    000007ff    ....    DCD    2047
    $t
    i.__kernel_poly
    __kernel_poly
        0x000015ac:    b5f8        ..      PUSH     {r3-r7,lr}
        0x000015ae:    4604        .F      MOV      r4,r0
        0x000015b0:    1e4f        O.      SUBS     r7,r1,#1
        0x000015b2:    00c8        ..      LSLS     r0,r1,#3
        0x000015b4:    3808        .8      SUBS     r0,r0,#8
        0x000015b6:    1821        !.      ADDS     r1,r4,r0
        0x000015b8:    4615        .F      MOV      r5,r2
        0x000015ba:    461e        .F      MOV      r6,r3
        0x000015bc:    6808        .h      LDR      r0,[r1,#0]
        0x000015be:    6849        Ih      LDR      r1,[r1,#4]
        0x000015c0:    463a        :F      MOV      r2,r7
        0x000015c2:    2306        .#      MOVS     r3,#6
        0x000015c4:    439a        .C      BICS     r2,r2,r3
        0x000015c6:    d010        ..      BEQ      0x15ea ; __kernel_poly + 62
        0x000015c8:    462a        *F      MOV      r2,r5
        0x000015ca:    4633        3F      MOV      r3,r6
        0x000015cc:    f7feff82    ....    BL       __aeabi_dmul ; 0x4d4
        0x000015d0:    463a        :F      MOV      r2,r7
        0x000015d2:    00d2        ..      LSLS     r2,r2,#3
        0x000015d4:    3a08        .:      SUBS     r2,r2,#8
        0x000015d6:    18a3        ..      ADDS     r3,r4,r2
        0x000015d8:    681a        .h      LDR      r2,[r3,#0]
        0x000015da:    1e7f        ..      SUBS     r7,r7,#1
        0x000015dc:    685b        [h      LDR      r3,[r3,#4]
        0x000015de:    f7fefec7    ....    BL       __aeabi_dadd ; 0x370
        0x000015e2:    2206        ."      MOVS     r2,#6
        0x000015e4:    463b        ;F      MOV      r3,r7
        0x000015e6:    4393        .C      BICS     r3,r3,r2
        0x000015e8:    d1ee        ..      BNE      0x15c8 ; __kernel_poly + 28
        0x000015ea:    2f02        ./      CMP      r7,#2
        0x000015ec:    d023        #.      BEQ      0x1636 ; __kernel_poly + 138
        0x000015ee:    2f04        ./      CMP      r7,#4
        0x000015f0:    d011        ..      BEQ      0x1616 ; __kernel_poly + 106
        0x000015f2:    2f06        ./      CMP      r7,#6
        0x000015f4:    d12f        /.      BNE      0x1656 ; __kernel_poly + 170
        0x000015f6:    462a        *F      MOV      r2,r5
        0x000015f8:    4633        3F      MOV      r3,r6
        0x000015fa:    f7feff6b    ..k.    BL       __aeabi_dmul ; 0x4d4
        0x000015fe:    6ae3        .j      LDR      r3,[r4,#0x2c]
        0x00001600:    6aa2        .j      LDR      r2,[r4,#0x28]
        0x00001602:    f7fefeb5    ....    BL       __aeabi_dadd ; 0x370
        0x00001606:    462a        *F      MOV      r2,r5
        0x00001608:    4633        3F      MOV      r3,r6
        0x0000160a:    f7feff63    ..c.    BL       __aeabi_dmul ; 0x4d4
        0x0000160e:    6a63        cj      LDR      r3,[r4,#0x24]
        0x00001610:    6a22        "j      LDR      r2,[r4,#0x20]
        0x00001612:    f7fefead    ....    BL       __aeabi_dadd ; 0x370
        0x00001616:    462a        *F      MOV      r2,r5
        0x00001618:    4633        3F      MOV      r3,r6
        0x0000161a:    f7feff5b    ..[.    BL       __aeabi_dmul ; 0x4d4
        0x0000161e:    69e3        .i      LDR      r3,[r4,#0x1c]
        0x00001620:    69a2        .i      LDR      r2,[r4,#0x18]
        0x00001622:    f7fefea5    ....    BL       __aeabi_dadd ; 0x370
        0x00001626:    462a        *F      MOV      r2,r5
        0x00001628:    4633        3F      MOV      r3,r6
        0x0000162a:    f7feff53    ..S.    BL       __aeabi_dmul ; 0x4d4
        0x0000162e:    6963        ci      LDR      r3,[r4,#0x14]
        0x00001630:    6922        "i      LDR      r2,[r4,#0x10]
        0x00001632:    f7fefe9d    ....    BL       __aeabi_dadd ; 0x370
        0x00001636:    462a        *F      MOV      r2,r5
        0x00001638:    4633        3F      MOV      r3,r6
        0x0000163a:    f7feff4b    ..K.    BL       __aeabi_dmul ; 0x4d4
        0x0000163e:    68e3        .h      LDR      r3,[r4,#0xc]
        0x00001640:    68a2        .h      LDR      r2,[r4,#8]
        0x00001642:    f7fefe95    ....    BL       __aeabi_dadd ; 0x370
        0x00001646:    462a        *F      MOV      r2,r5
        0x00001648:    4633        3F      MOV      r3,r6
        0x0000164a:    f7feff43    ..C.    BL       __aeabi_dmul ; 0x4d4
        0x0000164e:    6863        ch      LDR      r3,[r4,#4]
        0x00001650:    6822        "h      LDR      r2,[r4,#0]
        0x00001652:    f7fefe8d    ....    BL       __aeabi_dadd ; 0x370
        0x00001656:    bdf8        ..      POP      {r3-r7,pc}
    i.__mathlib_dbl_divzero
    __mathlib_dbl_divzero
        0x00001658:    2200        ."      MOVS     r2,#0
        0x0000165a:    b510        ..      PUSH     {r4,lr}
        0x0000165c:    4613        .F      MOV      r3,r2
        0x0000165e:    4610        .F      MOV      r0,r2
        0x00001660:    4901        .I      LDR      r1,[pc,#4] ; [0x1668] = 0x3ff00000
        0x00001662:    f7feff9f    ....    BL       __aeabi_ddiv ; 0x5a4
        0x00001666:    bd10        ..      POP      {r4,pc}
    $d
        0x00001668:    3ff00000    ...?    DCD    1072693248
    $t
    i.__mathlib_dbl_infnan
    __mathlib_dbl_infnan
        0x0000166c:    b510        ..      PUSH     {r4,lr}
        0x0000166e:    2201        ."      MOVS     r2,#1
        0x00001670:    f7fff810    ....    BL       __ARM_scalbn ; 0x694
        0x00001674:    bd10        ..      POP      {r4,pc}
    i.__mathlib_dbl_infnan2
    __mathlib_dbl_infnan2
        0x00001676:    b510        ..      PUSH     {r4,lr}
        0x00001678:    f7fefe7a    ..z.    BL       __aeabi_dadd ; 0x370
        0x0000167c:    bd10        ..      POP      {r4,pc}
    i.__mathlib_dbl_invalid
    __mathlib_dbl_invalid
        0x0000167e:    2200        ."      MOVS     r2,#0
        0x00001680:    b510        ..      PUSH     {r4,lr}
        0x00001682:    4613        .F      MOV      r3,r2
        0x00001684:    4610        .F      MOV      r0,r2
        0x00001686:    4611        .F      MOV      r1,r2
        0x00001688:    f7feff8c    ....    BL       __aeabi_ddiv ; 0x5a4
        0x0000168c:    bd10        ..      POP      {r4,pc}
        0x0000168e:    0000        ..      MOVS     r0,r0
    i.__mathlib_dbl_overflow
    __mathlib_dbl_overflow
        0x00001690:    b510        ..      PUSH     {r4,lr}
        0x00001692:    2107        .!      MOVS     r1,#7
        0x00001694:    4a02        .J      LDR      r2,[pc,#8] ; [0x16a0] = 0x301
        0x00001696:    2000        .       MOVS     r0,#0
        0x00001698:    0709        ..      LSLS     r1,r1,#28
        0x0000169a:    f7fefffb    ....    BL       __ARM_scalbn ; 0x694
        0x0000169e:    bd10        ..      POP      {r4,pc}
    $d
        0x000016a0:    00000301    ....    DCD    769
    $t
    i.__mathlib_dbl_underflow
    __mathlib_dbl_underflow
        0x000016a4:    4a03        .J      LDR      r2,[pc,#12] ; [0x16b4] = 0xfffffd01
        0x000016a6:    b510        ..      PUSH     {r4,lr}
        0x000016a8:    2000        .       MOVS     r0,#0
        0x000016aa:    0711        ..      LSLS     r1,r2,#28
        0x000016ac:    f7fefff2    ....    BL       __ARM_scalbn ; 0x694
        0x000016b0:    bd10        ..      POP      {r4,pc}
    $d
        0x000016b2:    0000        ..      DCW    0
        0x000016b4:    fffffd01    ....    DCD    4294966529
    $t
    i.__scatterload_copy
    __scatterload_copy
        0x000016b8:    e002        ..      B        0x16c0 ; __scatterload_copy + 8
        0x000016ba:    c808        ..      LDM      r0!,{r3}
        0x000016bc:    1f12        ..      SUBS     r2,r2,#4
        0x000016be:    c108        ..      STM      r1!,{r3}
        0x000016c0:    2a00        .*      CMP      r2,#0
        0x000016c2:    d1fa        ..      BNE      0x16ba ; __scatterload_copy + 2
        0x000016c4:    4770        pG      BX       lr
    i.__scatterload_null
    __scatterload_null
        0x000016c6:    4770        pG      BX       lr
    i.__scatterload_zeroinit
    __scatterload_zeroinit
        0x000016c8:    2000        .       MOVS     r0,#0
        0x000016ca:    e001        ..      B        0x16d0 ; __scatterload_zeroinit + 8
        0x000016cc:    c101        ..      STM      r1!,{r0}
        0x000016ce:    1f12        ..      SUBS     r2,r2,#4
        0x000016d0:    2a00        .*      CMP      r2,#0
        0x000016d2:    d1fb        ..      BNE      0x16cc ; __scatterload_zeroinit + 4
        0x000016d4:    4770        pG      BX       lr
        0x000016d6:    0000        ..      MOVS     r0,r0
    i.__set_errno
    __set_errno
        0x000016d8:    4901        .I      LDR      r1,[pc,#4] ; [0x16e0] = 0x20000d74
        0x000016da:    6008        .`      STR      r0,[r1,#0]
        0x000016dc:    4770        pG      BX       lr
    $d
        0x000016de:    0000        ..      DCW    0
        0x000016e0:    20000d74    t..     DCD    536874356
    $t
    i._fp_digits
    _fp_digits
        0x000016e4:    b5f0        ..      PUSH     {r4-r7,lr}
        0x000016e6:    b41f        ..      PUSH     {r0-r4}
        0x000016e8:    b086        ..      SUB      sp,sp,#0x18
        0x000016ea:    9809        ..      LDR      r0,[sp,#0x24]
        0x000016ec:    9a08        ..      LDR      r2,[sp,#0x20]
        0x000016ee:    0d03        ..      LSRS     r3,r0,#20
        0x000016f0:    2100        .!      MOVS     r1,#0
        0x000016f2:    4302        .C      ORRS     r2,r2,r0
        0x000016f4:    d014        ..      BEQ      0x1720 ; _fp_digits + 60
        0x000016f6:    4851        QH      LDR      r0,[pc,#324] ; [0x183c] = 0xfffffc01
        0x000016f8:    4a51        QJ      LDR      r2,[pc,#324] ; [0x1840] = 0x4d10
        0x000016fa:    1818        ..      ADDS     r0,r3,r0
        0x000016fc:    4350        PC      MULS     r0,r2,r0
        0x000016fe:    1405        ..      ASRS     r5,r0,#16
        0x00001700:    9811        ..      LDR      r0,[sp,#0x44]
        0x00001702:    2801        .(      CMP      r0,#1
        0x00001704:    9810        ..      LDR      r0,[sp,#0x40]
        0x00001706:    d01a        ..      BEQ      0x173e ; _fp_digits + 90
        0x00001708:    1a28        (.      SUBS     r0,r5,r0
        0x0000170a:    1c40        @.      ADDS     r0,r0,#1
        0x0000170c:    2600        .&      MOVS     r6,#0
        0x0000170e:    4f4d        MO      LDR      r7,[pc,#308] ; [0x1844] = 0x40140000
        0x00001710:    494d        MI      LDR      r1,[pc,#308] ; [0x1848] = 0x3ff00000
        0x00001712:    9600        ..      STR      r6,[sp,#0]
        0x00001714:    9101        ..      STR      r1,[sp,#4]
        0x00001716:    9004        ..      STR      r0,[sp,#0x10]
        0x00001718:    2800        .(      CMP      r0,#0
        0x0000171a:    da12        ..      BGE      0x1742 ; _fp_digits + 94
        0x0000171c:    4244        DB      RSBS     r4,r0,#0
        0x0000171e:    e011        ..      B        0x1744 ; _fp_digits + 96
        0x00001720:    9811        ..      LDR      r0,[sp,#0x44]
        0x00001722:    2401        .$      MOVS     r4,#1
        0x00001724:    a349        I.      ADR      r3,{pc}+0x128 ; 0x184c
        0x00001726:    2801        .(      CMP      r0,#1
        0x00001728:    d101        ..      BNE      0x172e ; _fp_digits + 74
        0x0000172a:    9810        ..      LDR      r0,[sp,#0x40]
        0x0000172c:    43c1        .C      MVNS     r1,r0
        0x0000172e:    9806        ..      LDR      r0,[sp,#0x18]
        0x00001730:    9a11        ..      LDR      r2,[sp,#0x44]
        0x00001732:    6084        .`      STR      r4,[r0,#8]
        0x00001734:    6003        .`      STR      r3,[r0,#0]
        0x00001736:    60c2        .`      STR      r2,[r0,#0xc]
        0x00001738:    6041        A`      STR      r1,[r0,#4]
        0x0000173a:    b00b        ..      ADD      sp,sp,#0x2c
        0x0000173c:    bdf0        ..      POP      {r4-r7,pc}
        0x0000173e:    4240        @B      RSBS     r0,r0,#0
        0x00001740:    e7e4        ..      B        0x170c ; _fp_digits + 40
        0x00001742:    4604        .F      MOV      r4,r0
        0x00001744:    0521        !.      LSLS     r1,r4,#20
        0x00001746:    2000        .       MOVS     r0,#0
        0x00001748:    4a3f        ?J      LDR      r2,[pc,#252] ; [0x1848] = 0x3ff00000
        0x0000174a:    1c00        ..      ADDS     r0,r0,#0
        0x0000174c:    4151        QA      ADCS     r1,r1,r2
        0x0000174e:    9103        ..      STR      r1,[sp,#0xc]
        0x00001750:    9002        ..      STR      r0,[sp,#8]
        0x00001752:    e012        ..      B        0x177a ; _fp_digits + 150
        0x00001754:    07e0        ..      LSLS     r0,r4,#31
        0x00001756:    d007        ..      BEQ      0x1768 ; _fp_digits + 132
        0x00001758:    4632        2F      MOV      r2,r6
        0x0000175a:    463b        ;F      MOV      r3,r7
        0x0000175c:    9901        ..      LDR      r1,[sp,#4]
        0x0000175e:    9800        ..      LDR      r0,[sp,#0]
        0x00001760:    f7fefeb8    ....    BL       __aeabi_dmul ; 0x4d4
        0x00001764:    9101        ..      STR      r1,[sp,#4]
        0x00001766:    9000        ..      STR      r0,[sp,#0]
        0x00001768:    4632        2F      MOV      r2,r6
        0x0000176a:    463b        ;F      MOV      r3,r7
        0x0000176c:    4610        .F      MOV      r0,r2
        0x0000176e:    4619        .F      MOV      r1,r3
        0x00001770:    f7fefeb0    ....    BL       __aeabi_dmul ; 0x4d4
        0x00001774:    4606        .F      MOV      r6,r0
        0x00001776:    460f        .F      MOV      r7,r1
        0x00001778:    1064        d.      ASRS     r4,r4,#1
        0x0000177a:    2c00        .,      CMP      r4,#0
        0x0000177c:    d1ea        ..      BNE      0x1754 ; _fp_digits + 112
        0x0000177e:    9804        ..      LDR      r0,[sp,#0x10]
        0x00001780:    9b03        ..      LDR      r3,[sp,#0xc]
        0x00001782:    2800        .(      CMP      r0,#0
        0x00001784:    9a02        ..      LDR      r2,[sp,#8]
        0x00001786:    9909        ..      LDR      r1,[sp,#0x24]
        0x00001788:    9808        ..      LDR      r0,[sp,#0x20]
        0x0000178a:    da06        ..      BGE      0x179a ; _fp_digits + 182
        0x0000178c:    f7fefea2    ....    BL       __aeabi_dmul ; 0x4d4
        0x00001790:    9b01        ..      LDR      r3,[sp,#4]
        0x00001792:    9a00        ..      LDR      r2,[sp,#0]
        0x00001794:    f7fefe9e    ....    BL       __aeabi_dmul ; 0x4d4
        0x00001798:    e005        ..      B        0x17a6 ; _fp_digits + 194
        0x0000179a:    f7feff03    ....    BL       __aeabi_ddiv ; 0x5a4
        0x0000179e:    9b01        ..      LDR      r3,[sp,#4]
        0x000017a0:    9a00        ..      LDR      r2,[sp,#0]
        0x000017a2:    f7fefeff    ....    BL       __aeabi_ddiv ; 0x5a4
        0x000017a6:    4604        .F      MOV      r4,r0
        0x000017a8:    460e        .F      MOV      r6,r1
        0x000017aa:    2200        ."      MOVS     r2,#0
        0x000017ac:    4b28        (K      LDR      r3,[pc,#160] ; [0x1850] = 0x43f00000
        0x000017ae:    f7fff983    ....    BL       __aeabi_cdrcmple ; 0xab8
        0x000017b2:    d803        ..      BHI      0x17bc ; _fp_digits + 216
        0x000017b4:    2000        .       MOVS     r0,#0
        0x000017b6:    43c0        .C      MVNS     r0,r0
        0x000017b8:    4601        .F      MOV      r1,r0
        0x000017ba:    e007        ..      B        0x17cc ; _fp_digits + 232
        0x000017bc:    2200        ."      MOVS     r2,#0
        0x000017be:    4b25        %K      LDR      r3,[pc,#148] ; [0x1854] = 0x3fe00000
        0x000017c0:    4620         F      MOV      r0,r4
        0x000017c2:    4631        1F      MOV      r1,r6
        0x000017c4:    f7fefdd4    ....    BL       __aeabi_dadd ; 0x370
        0x000017c8:    f7fff942    ..B.    BL       __aeabi_d2ulz ; 0xa50
        0x000017cc:    2410        .$      MOVS     r4,#0x10
        0x000017ce:    e009        ..      B        0x17e4 ; _fp_digits + 256
        0x000017d0:    2c00        .,      CMP      r4,#0
        0x000017d2:    db0a        ..      BLT      0x17ea ; _fp_digits + 262
        0x000017d4:    220a        ."      MOVS     r2,#0xa
        0x000017d6:    2300        .#      MOVS     r3,#0
        0x000017d8:    f7feffbe    ....    BL       __aeabi_uldivmod ; 0x758
        0x000017dc:    9b07        ..      LDR      r3,[sp,#0x1c]
        0x000017de:    3230        02      ADDS     r2,r2,#0x30
        0x000017e0:    551a        .U      STRB     r2,[r3,r4]
        0x000017e2:    1e64        d.      SUBS     r4,r4,#1
        0x000017e4:    4602        .F      MOV      r2,r0
        0x000017e6:    430a        .C      ORRS     r2,r2,r1
        0x000017e8:    d1f2        ..      BNE      0x17d0 ; _fp_digits + 236
        0x000017ea:    2211        ."      MOVS     r2,#0x11
        0x000017ec:    1c64        d.      ADDS     r4,r4,#1
        0x000017ee:    9b07        ..      LDR      r3,[sp,#0x1c]
        0x000017f0:    1b12        ..      SUBS     r2,r2,r4
        0x000017f2:    191c        ..      ADDS     r4,r3,r4
        0x000017f4:    9b11        ..      LDR      r3,[sp,#0x44]
        0x000017f6:    2b01        .+      CMP      r3,#1
        0x000017f8:    d003        ..      BEQ      0x1802 ; _fp_digits + 286
        0x000017fa:    2301        .#      MOVS     r3,#1
        0x000017fc:    4308        .C      ORRS     r0,r0,r1
        0x000017fe:    d10e        ..      BNE      0x181e ; _fp_digits + 314
        0x00001800:    e00a        ..      B        0x1818 ; _fp_digits + 308
        0x00001802:    4308        .C      ORRS     r0,r0,r1
        0x00001804:    d004        ..      BEQ      0x1810 ; _fp_digits + 300
        0x00001806:    2011        .       MOVS     r0,#0x11
        0x00001808:    9010        ..      STR      r0,[sp,#0x40]
        0x0000180a:    2000        .       MOVS     r0,#0
        0x0000180c:    9011        ..      STR      r0,[sp,#0x44]
        0x0000180e:    e777        w.      B        0x1700 ; _fp_digits + 28
        0x00001810:    9810        ..      LDR      r0,[sp,#0x40]
        0x00001812:    1a15        ..      SUBS     r5,r2,r0
        0x00001814:    1e6d        m.      SUBS     r5,r5,#1
        0x00001816:    e00b        ..      B        0x1830 ; _fp_digits + 332
        0x00001818:    9810        ..      LDR      r0,[sp,#0x40]
        0x0000181a:    4282        .B      CMP      r2,r0
        0x0000181c:    dd02        ..      BLE      0x1824 ; _fp_digits + 320
        0x0000181e:    2300        .#      MOVS     r3,#0
        0x00001820:    1c6d        m.      ADDS     r5,r5,#1
        0x00001822:    e003        ..      B        0x182c ; _fp_digits + 328
        0x00001824:    4282        .B      CMP      r2,r0
        0x00001826:    da01        ..      BGE      0x182c ; _fp_digits + 328
        0x00001828:    2300        .#      MOVS     r3,#0
        0x0000182a:    1e6d        m.      SUBS     r5,r5,#1
        0x0000182c:    2b00        .+      CMP      r3,#0
        0x0000182e:    d0ee        ..      BEQ      0x180e ; _fp_digits + 298
        0x00001830:    9806        ..      LDR      r0,[sp,#0x18]
        0x00001832:    9911        ..      LDR      r1,[sp,#0x44]
        0x00001834:    6082        .`      STR      r2,[r0,#8]
        0x00001836:    60c1        .`      STR      r1,[r0,#0xc]
        0x00001838:    c030        0.      STM      r0!,{r4,r5}
        0x0000183a:    e77e        ~.      B        0x173a ; _fp_digits + 86
    $d
        0x0000183c:    fffffc01    ....    DCD    4294966273
        0x00001840:    00004d10    .M..    DCD    19728
        0x00001844:    40140000    ...@    DCD    1075052544
        0x00001848:    3ff00000    ...?    DCD    1072693248
        0x0000184c:    00000030    0...    DCD    48
        0x00001850:    43f00000    ...C    DCD    1139802112
        0x00001854:    3fe00000    ...?    DCD    1071644672
    $t
    i._printf_core
    _printf_core
        0x00001858:    b5ff        ..      PUSH     {r0-r7,lr}
        0x0000185a:    b097        ..      SUB      sp,sp,#0x5c
        0x0000185c:    4606        .F      MOV      r6,r0
        0x0000185e:    2500        .%      MOVS     r5,#0
        0x00001860:    e218        ..      B        0x1c94 ; _printf_core + 1084
        0x00001862:    2825        %(      CMP      r0,#0x25
        0x00001864:    d177        w.      BNE      0x1956 ; _printf_core + 254
        0x00001866:    2400        .$      MOVS     r4,#0
        0x00001868:    4627        'F      MOV      r7,r4
        0x0000186a:    49fd        .I      LDR      r1,[pc,#1012] ; [0x1c60] = 0x12809
        0x0000186c:    9404        ..      STR      r4,[sp,#0x10]
        0x0000186e:    e000        ..      B        0x1872 ; _printf_core + 26
        0x00001870:    4304        .C      ORRS     r4,r4,r0
        0x00001872:    1c76        v.      ADDS     r6,r6,#1
        0x00001874:    7832        2x      LDRB     r2,[r6,#0]
        0x00001876:    2001        .       MOVS     r0,#1
        0x00001878:    3a20         :      SUBS     r2,r2,#0x20
        0x0000187a:    4090        .@      LSLS     r0,r0,r2
        0x0000187c:    4208        .B      TST      r0,r1
        0x0000187e:    d1f7        ..      BNE      0x1870 ; _printf_core + 24
        0x00001880:    7830        0x      LDRB     r0,[r6,#0]
        0x00001882:    282a        *(      CMP      r0,#0x2a
        0x00001884:    d00e        ..      BEQ      0x18a4 ; _printf_core + 76
        0x00001886:    2202        ."      MOVS     r2,#2
        0x00001888:    7830        0x      LDRB     r0,[r6,#0]
        0x0000188a:    4601        .F      MOV      r1,r0
        0x0000188c:    3930        09      SUBS     r1,r1,#0x30
        0x0000188e:    2909        .)      CMP      r1,#9
        0x00001890:    d816        ..      BHI      0x18c0 ; _printf_core + 104
        0x00001892:    9904        ..      LDR      r1,[sp,#0x10]
        0x00001894:    230a        .#      MOVS     r3,#0xa
        0x00001896:    4359        YC      MULS     r1,r3,r1
        0x00001898:    3930        09      SUBS     r1,r1,#0x30
        0x0000189a:    1840        @.      ADDS     r0,r0,r1
        0x0000189c:    4314        .C      ORRS     r4,r4,r2
        0x0000189e:    1c76        v.      ADDS     r6,r6,#1
        0x000018a0:    9004        ..      STR      r0,[sp,#0x10]
        0x000018a2:    e7f1        ..      B        0x1888 ; _printf_core + 48
        0x000018a4:    9818        ..      LDR      r0,[sp,#0x60]
        0x000018a6:    c802        ..      LDM      r0!,{r1}
        0x000018a8:    9104        ..      STR      r1,[sp,#0x10]
        0x000018aa:    9018        ..      STR      r0,[sp,#0x60]
        0x000018ac:    2900        .)      CMP      r1,#0
        0x000018ae:    da04        ..      BGE      0x18ba ; _printf_core + 98
        0x000018b0:    2001        .       MOVS     r0,#1
        0x000018b2:    0340        @.      LSLS     r0,r0,#13
        0x000018b4:    4304        .C      ORRS     r4,r4,r0
        0x000018b6:    4248        HB      RSBS     r0,r1,#0
        0x000018b8:    9004        ..      STR      r0,[sp,#0x10]
        0x000018ba:    2002        .       MOVS     r0,#2
        0x000018bc:    4304        .C      ORRS     r4,r4,r0
        0x000018be:    1c76        v.      ADDS     r6,r6,#1
        0x000018c0:    7830        0x      LDRB     r0,[r6,#0]
        0x000018c2:    282e        .(      CMP      r0,#0x2e
        0x000018c4:    d114        ..      BNE      0x18f0 ; _printf_core + 152
        0x000018c6:    2004        .       MOVS     r0,#4
        0x000018c8:    4304        .C      ORRS     r4,r4,r0
        0x000018ca:    7870        px      LDRB     r0,[r6,#1]
        0x000018cc:    1c76        v.      ADDS     r6,r6,#1
        0x000018ce:    282a        *(      CMP      r0,#0x2a
        0x000018d0:    d109        ..      BNE      0x18e6 ; _printf_core + 142
        0x000018d2:    9818        ..      LDR      r0,[sp,#0x60]
        0x000018d4:    1c76        v.      ADDS     r6,r6,#1
        0x000018d6:    c880        ..      LDM      r0!,{r7}
        0x000018d8:    9018        ..      STR      r0,[sp,#0x60]
        0x000018da:    e009        ..      B        0x18f0 ; _printf_core + 152
        0x000018dc:    210a        .!      MOVS     r1,#0xa
        0x000018de:    434f        OC      MULS     r7,r1,r7
        0x000018e0:    3f30        0?      SUBS     r7,r7,#0x30
        0x000018e2:    19c7        ..      ADDS     r7,r0,r7
        0x000018e4:    1c76        v.      ADDS     r6,r6,#1
        0x000018e6:    7830        0x      LDRB     r0,[r6,#0]
        0x000018e8:    4601        .F      MOV      r1,r0
        0x000018ea:    3930        09      SUBS     r1,r1,#0x30
        0x000018ec:    2909        .)      CMP      r1,#9
        0x000018ee:    d9f5        ..      BLS      0x18dc ; _printf_core + 132
        0x000018f0:    7830        0x      LDRB     r0,[r6,#0]
        0x000018f2:    286c        l(      CMP      r0,#0x6c
        0x000018f4:    d010        ..      BEQ      0x1918 ; _printf_core + 192
        0x000018f6:    dc06        ..      BGT      0x1906 ; _printf_core + 174
        0x000018f8:    284c        L(      CMP      r0,#0x4c
        0x000018fa:    d01a        ..      BEQ      0x1932 ; _printf_core + 218
        0x000018fc:    2868        h(      CMP      r0,#0x68
        0x000018fe:    d00e        ..      BEQ      0x191e ; _printf_core + 198
        0x00001900:    286a        j(      CMP      r0,#0x6a
        0x00001902:    d117        ..      BNE      0x1934 ; _printf_core + 220
        0x00001904:    e004        ..      B        0x1910 ; _printf_core + 184
        0x00001906:    2874        t(      CMP      r0,#0x74
        0x00001908:    d013        ..      BEQ      0x1932 ; _printf_core + 218
        0x0000190a:    287a        z(      CMP      r0,#0x7a
        0x0000190c:    d112        ..      BNE      0x1934 ; _printf_core + 220
        0x0000190e:    e010        ..      B        0x1932 ; _printf_core + 218
        0x00001910:    2001        .       MOVS     r0,#1
        0x00001912:    0540        @.      LSLS     r0,r0,#21
        0x00001914:    4304        .C      ORRS     r4,r4,r0
        0x00001916:    e00c        ..      B        0x1932 ; _printf_core + 218
        0x00001918:    2101        .!      MOVS     r1,#1
        0x0000191a:    0509        ..      LSLS     r1,r1,#20
        0x0000191c:    e001        ..      B        0x1922 ; _printf_core + 202
        0x0000191e:    2103        .!      MOVS     r1,#3
        0x00001920:    0509        ..      LSLS     r1,r1,#20
        0x00001922:    430c        .C      ORRS     r4,r4,r1
        0x00001924:    7871        qx      LDRB     r1,[r6,#1]
        0x00001926:    4281        .B      CMP      r1,r0
        0x00001928:    d103        ..      BNE      0x1932 ; _printf_core + 218
        0x0000192a:    2001        .       MOVS     r0,#1
        0x0000192c:    0500        ..      LSLS     r0,r0,#20
        0x0000192e:    1824        $.      ADDS     r4,r4,r0
        0x00001930:    1c76        v.      ADDS     r6,r6,#1
        0x00001932:    1c76        v.      ADDS     r6,r6,#1
        0x00001934:    7830        0x      LDRB     r0,[r6,#0]
        0x00001936:    9011        ..      STR      r0,[sp,#0x44]
        0x00001938:    2866        f(      CMP      r0,#0x66
        0x0000193a:    d00b        ..      BEQ      0x1954 ; _printf_core + 252
        0x0000193c:    dc13        ..      BGT      0x1966 ; _printf_core + 270
        0x0000193e:    2858        X(      CMP      r0,#0x58
        0x00001940:    d07d        }.      BEQ      0x1a3e ; _printf_core + 486
        0x00001942:    dc09        ..      BGT      0x1958 ; _printf_core + 256
        0x00001944:    2800        .(      CMP      r0,#0
        0x00001946:    d07b        {.      BEQ      0x1a40 ; _printf_core + 488
        0x00001948:    2845        E(      CMP      r0,#0x45
        0x0000194a:    d0f6        ..      BEQ      0x193a ; _printf_core + 226
        0x0000194c:    2846        F(      CMP      r0,#0x46
        0x0000194e:    d0f4        ..      BEQ      0x193a ; _printf_core + 226
        0x00001950:    2847        G(      CMP      r0,#0x47
        0x00001952:    d11a        ..      BNE      0x198a ; _printf_core + 306
        0x00001954:    e1a5        ..      B        0x1ca2 ; _printf_core + 1098
        0x00001956:    e018        ..      B        0x198a ; _printf_core + 306
        0x00001958:    2863        c(      CMP      r0,#0x63
        0x0000195a:    d035        5.      BEQ      0x19c8 ; _printf_core + 368
        0x0000195c:    2864        d(      CMP      r0,#0x64
        0x0000195e:    d070        p.      BEQ      0x1a42 ; _printf_core + 490
        0x00001960:    2865        e(      CMP      r0,#0x65
        0x00001962:    d112        ..      BNE      0x198a ; _printf_core + 306
        0x00001964:    e19d        ..      B        0x1ca2 ; _printf_core + 1098
        0x00001966:    2870        p(      CMP      r0,#0x70
        0x00001968:    d06c        l.      BEQ      0x1a44 ; _printf_core + 492
        0x0000196a:    dc08        ..      BGT      0x197e ; _printf_core + 294
        0x0000196c:    2867        g(      CMP      r0,#0x67
        0x0000196e:    d0f1        ..      BEQ      0x1954 ; _printf_core + 252
        0x00001970:    2869        i(      CMP      r0,#0x69
        0x00001972:    d07b        {.      BEQ      0x1a6c ; _printf_core + 532
        0x00001974:    286e        n(      CMP      r0,#0x6e
        0x00001976:    d00d        ..      BEQ      0x1994 ; _printf_core + 316
        0x00001978:    286f        o(      CMP      r0,#0x6f
        0x0000197a:    d106        ..      BNE      0x198a ; _printf_core + 306
        0x0000197c:    e0ba        ..      B        0x1af4 ; _printf_core + 668
        0x0000197e:    2873        s(      CMP      r0,#0x73
        0x00001980:    d02e        ..      BEQ      0x19e0 ; _printf_core + 392
        0x00001982:    2875        u(      CMP      r0,#0x75
        0x00001984:    d071        q.      BEQ      0x1a6a ; _printf_core + 530
        0x00001986:    2878        x(      CMP      r0,#0x78
        0x00001988:    d059        Y.      BEQ      0x1a3e ; _printf_core + 486
        0x0000198a:    9a1a        ..      LDR      r2,[sp,#0x68]
        0x0000198c:    9919        ..      LDR      r1,[sp,#0x64]
        0x0000198e:    4790        .G      BLX      r2
        0x00001990:    1c6d        m.      ADDS     r5,r5,#1
        0x00001992:    e17e        ~.      B        0x1c92 ; _printf_core + 1082
        0x00001994:    0260        `.      LSLS     r0,r4,#9
        0x00001996:    0f40        @.      LSRS     r0,r0,#29
        0x00001998:    2802        .(      CMP      r0,#2
        0x0000199a:    d009        ..      BEQ      0x19b0 ; _printf_core + 344
        0x0000199c:    2803        .(      CMP      r0,#3
        0x0000199e:    d00d        ..      BEQ      0x19bc ; _printf_core + 356
        0x000019a0:    2804        .(      CMP      r0,#4
        0x000019a2:    9818        ..      LDR      r0,[sp,#0x60]
        0x000019a4:    6801        .h      LDR      r1,[r0,#0]
        0x000019a6:    d00d        ..      BEQ      0x19c4 ; _printf_core + 364
        0x000019a8:    600d        .`      STR      r5,[r1,#0]
        0x000019aa:    1d00        ..      ADDS     r0,r0,#4
        0x000019ac:    9018        ..      STR      r0,[sp,#0x60]
        0x000019ae:    e170        p.      B        0x1c92 ; _printf_core + 1082
        0x000019b0:    9818        ..      LDR      r0,[sp,#0x60]
        0x000019b2:    17ea        ..      ASRS     r2,r5,#31
        0x000019b4:    6801        .h      LDR      r1,[r0,#0]
        0x000019b6:    600d        .`      STR      r5,[r1,#0]
        0x000019b8:    604a        J`      STR      r2,[r1,#4]
        0x000019ba:    e7f6        ..      B        0x19aa ; _printf_core + 338
        0x000019bc:    9818        ..      LDR      r0,[sp,#0x60]
        0x000019be:    6801        .h      LDR      r1,[r0,#0]
        0x000019c0:    800d        ..      STRH     r5,[r1,#0]
        0x000019c2:    e7f2        ..      B        0x19aa ; _printf_core + 338
        0x000019c4:    700d        .p      STRB     r5,[r1,#0]
        0x000019c6:    e7f0        ..      B        0x19aa ; _printf_core + 338
        0x000019c8:    9818        ..      LDR      r0,[sp,#0x60]
        0x000019ca:    466a        jF      MOV      r2,sp
        0x000019cc:    7801        .x      LDRB     r1,[r0,#0]
        0x000019ce:    7211        .r      STRB     r1,[r2,#8]
        0x000019d0:    1d00        ..      ADDS     r0,r0,#4
        0x000019d2:    9018        ..      STR      r0,[sp,#0x60]
        0x000019d4:    2000        .       MOVS     r0,#0
        0x000019d6:    7250        Pr      STRB     r0,[r2,#9]
        0x000019d8:    a802        ..      ADD      r0,sp,#8
        0x000019da:    9000        ..      STR      r0,[sp,#0]
        0x000019dc:    2001        .       MOVS     r0,#1
        0x000019de:    e005        ..      B        0x19ec ; _printf_core + 404
        0x000019e0:    9818        ..      LDR      r0,[sp,#0x60]
        0x000019e2:    c802        ..      LDM      r0!,{r1}
        0x000019e4:    9018        ..      STR      r0,[sp,#0x60]
        0x000019e6:    2000        .       MOVS     r0,#0
        0x000019e8:    9100        ..      STR      r1,[sp,#0]
        0x000019ea:    43c0        .C      MVNS     r0,r0
        0x000019ec:    0761        a.      LSLS     r1,r4,#29
        0x000019ee:    d50d        ..      BPL      0x1a0c ; _printf_core + 436
        0x000019f0:    2100        .!      MOVS     r1,#0
        0x000019f2:    e001        ..      B        0x19f8 ; _printf_core + 416
        0x000019f4:    9901        ..      LDR      r1,[sp,#4]
        0x000019f6:    1c49        I.      ADDS     r1,r1,#1
        0x000019f8:    9101        ..      STR      r1,[sp,#4]
        0x000019fa:    42b9        .B      CMP      r1,r7
        0x000019fc:    da12        ..      BGE      0x1a24 ; _printf_core + 460
        0x000019fe:    4281        .B      CMP      r1,r0
        0x00001a00:    dbf8        ..      BLT      0x19f4 ; _printf_core + 412
        0x00001a02:    9a00        ..      LDR      r2,[sp,#0]
        0x00001a04:    5c51        Q\      LDRB     r1,[r2,r1]
        0x00001a06:    2900        .)      CMP      r1,#0
        0x00001a08:    d1f4        ..      BNE      0x19f4 ; _printf_core + 412
        0x00001a0a:    e00b        ..      B        0x1a24 ; _printf_core + 460
        0x00001a0c:    2100        .!      MOVS     r1,#0
        0x00001a0e:    e001        ..      B        0x1a14 ; _printf_core + 444
        0x00001a10:    9901        ..      LDR      r1,[sp,#4]
        0x00001a12:    1c49        I.      ADDS     r1,r1,#1
        0x00001a14:    9101        ..      STR      r1,[sp,#4]
        0x00001a16:    4281        .B      CMP      r1,r0
        0x00001a18:    dbfa        ..      BLT      0x1a10 ; _printf_core + 440
        0x00001a1a:    9a01        ..      LDR      r2,[sp,#4]
        0x00001a1c:    9900        ..      LDR      r1,[sp,#0]
        0x00001a1e:    5c89        .\      LDRB     r1,[r1,r2]
        0x00001a20:    2900        .)      CMP      r1,#0
        0x00001a22:    d1f5        ..      BNE      0x1a10 ; _printf_core + 440
        0x00001a24:    9901        ..      LDR      r1,[sp,#4]
        0x00001a26:    9804        ..      LDR      r0,[sp,#0x10]
        0x00001a28:    9b1a        ..      LDR      r3,[sp,#0x68]
        0x00001a2a:    1a47        G.      SUBS     r7,r0,r1
        0x00001a2c:    4621        !F      MOV      r1,r4
        0x00001a2e:    4638        8F      MOV      r0,r7
        0x00001a30:    9a19        ..      LDR      r2,[sp,#0x64]
        0x00001a32:    f000fa97    ....    BL       _printf_pre_padding ; 0x1f64
        0x00001a36:    9901        ..      LDR      r1,[sp,#4]
        0x00001a38:    1940        @.      ADDS     r0,r0,r5
        0x00001a3a:    1845        E.      ADDS     r5,r0,r1
        0x00001a3c:    e00b        ..      B        0x1a56 ; _printf_core + 510
        0x00001a3e:    e04f        O.      B        0x1ae0 ; _printf_core + 648
        0x00001a40:    e12c        ,.      B        0x1c9c ; _printf_core + 1092
        0x00001a42:    e013        ..      B        0x1a6c ; _printf_core + 532
        0x00001a44:    e04e        N.      B        0x1ae4 ; _printf_core + 652
        0x00001a46:    9800        ..      LDR      r0,[sp,#0]
        0x00001a48:    9900        ..      LDR      r1,[sp,#0]
        0x00001a4a:    7800        .x      LDRB     r0,[r0,#0]
        0x00001a4c:    1c49        I.      ADDS     r1,r1,#1
        0x00001a4e:    9100        ..      STR      r1,[sp,#0]
        0x00001a50:    9a1a        ..      LDR      r2,[sp,#0x68]
        0x00001a52:    9919        ..      LDR      r1,[sp,#0x64]
        0x00001a54:    4790        .G      BLX      r2
        0x00001a56:    9801        ..      LDR      r0,[sp,#4]
        0x00001a58:    1e40        @.      SUBS     r0,r0,#1
        0x00001a5a:    9001        ..      STR      r0,[sp,#4]
        0x00001a5c:    1c40        @.      ADDS     r0,r0,#1
        0x00001a5e:    d1f2        ..      BNE      0x1a46 ; _printf_core + 494
        0x00001a60:    4621        !F      MOV      r1,r4
        0x00001a62:    4638        8F      MOV      r0,r7
        0x00001a64:    9b1a        ..      LDR      r3,[sp,#0x68]
        0x00001a66:    9a19        ..      LDR      r2,[sp,#0x64]
        0x00001a68:    e110        ..      B        0x1c8c ; _printf_core + 1076
        0x00001a6a:    e037        7.      B        0x1adc ; _printf_core + 644
        0x00001a6c:    200a        .       MOVS     r0,#0xa
        0x00001a6e:    2100        .!      MOVS     r1,#0
        0x00001a70:    9000        ..      STR      r0,[sp,#0]
        0x00001a72:    9101        ..      STR      r1,[sp,#4]
        0x00001a74:    0260        `.      LSLS     r0,r4,#9
        0x00001a76:    0f41        A.      LSRS     r1,r0,#29
        0x00001a78:    2902        .)      CMP      r1,#2
        0x00001a7a:    d007        ..      BEQ      0x1a8c ; _printf_core + 564
        0x00001a7c:    9a18        ..      LDR      r2,[sp,#0x60]
        0x00001a7e:    ca01        ..      LDM      r2!,{r0}
        0x00001a80:    9218        ..      STR      r2,[sp,#0x60]
        0x00001a82:    17c2        ..      ASRS     r2,r0,#31
        0x00001a84:    4694        .F      MOV      r12,r2
        0x00001a86:    2903        .)      CMP      r1,#3
        0x00001a88:    d008        ..      BEQ      0x1a9c ; _printf_core + 580
        0x00001a8a:    e00a        ..      B        0x1aa2 ; _printf_core + 586
        0x00001a8c:    9818        ..      LDR      r0,[sp,#0x60]
        0x00001a8e:    1dc0        ..      ADDS     r0,r0,#7
        0x00001a90:    08c1        ..      LSRS     r1,r0,#3
        0x00001a92:    00c9        ..      LSLS     r1,r1,#3
        0x00001a94:    c905        ..      LDM      r1!,{r0,r2}
        0x00001a96:    9118        ..      STR      r1,[sp,#0x60]
        0x00001a98:    4694        .F      MOV      r12,r2
        0x00001a9a:    e007        ..      B        0x1aac ; _printf_core + 596
        0x00001a9c:    b200        ..      SXTH     r0,r0
        0x00001a9e:    17c2        ..      ASRS     r2,r0,#31
        0x00001aa0:    4694        .F      MOV      r12,r2
        0x00001aa2:    2904        .)      CMP      r1,#4
        0x00001aa4:    d102        ..      BNE      0x1aac ; _printf_core + 596
        0x00001aa6:    b240        @.      SXTB     r0,r0
        0x00001aa8:    17c1        ..      ASRS     r1,r0,#31
        0x00001aaa:    468c        .F      MOV      r12,r1
        0x00001aac:    2200        ."      MOVS     r2,#0
        0x00001aae:    4661        aF      MOV      r1,r12
        0x00001ab0:    4594        .E      CMP      r12,r2
        0x00001ab2:    da06        ..      BGE      0x1ac2 ; _printf_core + 618
        0x00001ab4:    460a        .F      MOV      r2,r1
        0x00001ab6:    2100        .!      MOVS     r1,#0
        0x00001ab8:    4240        @B      RSBS     r0,r0,#0
        0x00001aba:    4191        .A      SBCS     r1,r1,r2
        0x00001abc:    468c        .F      MOV      r12,r1
        0x00001abe:    212d        -!      MOVS     r1,#0x2d
        0x00001ac0:    e002        ..      B        0x1ac8 ; _printf_core + 624
        0x00001ac2:    0521        !.      LSLS     r1,r4,#20
        0x00001ac4:    d504        ..      BPL      0x1ad0 ; _printf_core + 632
        0x00001ac6:    212b        +!      MOVS     r1,#0x2b
        0x00001ac8:    466a        jF      MOV      r2,sp
        0x00001aca:    7311        .s      STRB     r1,[r2,#0xc]
        0x00001acc:    2101        .!      MOVS     r1,#1
        0x00001ace:    e003        ..      B        0x1ad8 ; _printf_core + 640
        0x00001ad0:    07e1        ..      LSLS     r1,r4,#31
        0x00001ad2:    d001        ..      BEQ      0x1ad8 ; _printf_core + 640
        0x00001ad4:    2120         !      MOVS     r1,#0x20
        0x00001ad6:    e7f7        ..      B        0x1ac8 ; _printf_core + 624
        0x00001ad8:    9102        ..      STR      r1,[sp,#8]
        0x00001ada:    e055        U.      B        0x1b88 ; _printf_core + 816
        0x00001adc:    200a        .       MOVS     r0,#0xa
        0x00001ade:    e00a        ..      B        0x1af6 ; _printf_core + 670
        0x00001ae0:    2010        .       MOVS     r0,#0x10
        0x00001ae2:    e008        ..      B        0x1af6 ; _printf_core + 670
        0x00001ae4:    2010        .       MOVS     r0,#0x10
        0x00001ae6:    9000        ..      STR      r0,[sp,#0]
        0x00001ae8:    2100        .!      MOVS     r1,#0
        0x00001aea:    2004        .       MOVS     r0,#4
        0x00001aec:    4304        .C      ORRS     r4,r4,r0
        0x00001aee:    9101        ..      STR      r1,[sp,#4]
        0x00001af0:    2708        .'      MOVS     r7,#8
        0x00001af2:    e003        ..      B        0x1afc ; _printf_core + 676
        0x00001af4:    2008        .       MOVS     r0,#8
        0x00001af6:    2100        .!      MOVS     r1,#0
        0x00001af8:    9101        ..      STR      r1,[sp,#4]
        0x00001afa:    9000        ..      STR      r0,[sp,#0]
        0x00001afc:    0260        `.      LSLS     r0,r4,#9
        0x00001afe:    0f41        A.      LSRS     r1,r0,#29
        0x00001b00:    2902        .)      CMP      r1,#2
        0x00001b02:    d007        ..      BEQ      0x1b14 ; _printf_core + 700
        0x00001b04:    9a18        ..      LDR      r2,[sp,#0x60]
        0x00001b06:    ca01        ..      LDM      r2!,{r0}
        0x00001b08:    9218        ..      STR      r2,[sp,#0x60]
        0x00001b0a:    2200        ."      MOVS     r2,#0
        0x00001b0c:    4694        .F      MOV      r12,r2
        0x00001b0e:    2903        .)      CMP      r1,#3
        0x00001b10:    d008        ..      BEQ      0x1b24 ; _printf_core + 716
        0x00001b12:    e008        ..      B        0x1b26 ; _printf_core + 718
        0x00001b14:    9818        ..      LDR      r0,[sp,#0x60]
        0x00001b16:    1dc0        ..      ADDS     r0,r0,#7
        0x00001b18:    08c1        ..      LSRS     r1,r0,#3
        0x00001b1a:    00c9        ..      LSLS     r1,r1,#3
        0x00001b1c:    c905        ..      LDM      r1!,{r0,r2}
        0x00001b1e:    9118        ..      STR      r1,[sp,#0x60]
        0x00001b20:    4694        .F      MOV      r12,r2
        0x00001b22:    e003        ..      B        0x1b2c ; _printf_core + 724
        0x00001b24:    b280        ..      UXTH     r0,r0
        0x00001b26:    2904        .)      CMP      r1,#4
        0x00001b28:    d100        ..      BNE      0x1b2c ; _printf_core + 724
        0x00001b2a:    b2c0        ..      UXTB     r0,r0
        0x00001b2c:    2100        .!      MOVS     r1,#0
        0x00001b2e:    9102        ..      STR      r1,[sp,#8]
        0x00001b30:    0721        !.      LSLS     r1,r4,#28
        0x00001b32:    d529        ).      BPL      0x1b88 ; _printf_core + 816
        0x00001b34:    9911        ..      LDR      r1,[sp,#0x44]
        0x00001b36:    2970        p)      CMP      r1,#0x70
        0x00001b38:    d006        ..      BEQ      0x1b48 ; _printf_core + 752
        0x00001b3a:    9a00        ..      LDR      r2,[sp,#0]
        0x00001b3c:    2110        .!      MOVS     r1,#0x10
        0x00001b3e:    9b01        ..      LDR      r3,[sp,#4]
        0x00001b40:    404a        J@      EORS     r2,r2,r1
        0x00001b42:    431a        .C      ORRS     r2,r2,r3
        0x00001b44:    d005        ..      BEQ      0x1b52 ; _printf_core + 762
        0x00001b46:    e00e        ..      B        0x1b66 ; _printf_core + 782
        0x00001b48:    2140        @!      MOVS     r1,#0x40
        0x00001b4a:    466a        jF      MOV      r2,sp
        0x00001b4c:    7311        .s      STRB     r1,[r2,#0xc]
        0x00001b4e:    2101        .!      MOVS     r1,#1
        0x00001b50:    e008        ..      B        0x1b64 ; _printf_core + 780
        0x00001b52:    4661        aF      MOV      r1,r12
        0x00001b54:    4301        .C      ORRS     r1,r1,r0
        0x00001b56:    d006        ..      BEQ      0x1b66 ; _printf_core + 782
        0x00001b58:    2130        0!      MOVS     r1,#0x30
        0x00001b5a:    466a        jF      MOV      r2,sp
        0x00001b5c:    7311        .s      STRB     r1,[r2,#0xc]
        0x00001b5e:    9911        ..      LDR      r1,[sp,#0x44]
        0x00001b60:    7351        Qs      STRB     r1,[r2,#0xd]
        0x00001b62:    2102        .!      MOVS     r1,#2
        0x00001b64:    9102        ..      STR      r1,[sp,#8]
        0x00001b66:    9a00        ..      LDR      r2,[sp,#0]
        0x00001b68:    2108        .!      MOVS     r1,#8
        0x00001b6a:    9b01        ..      LDR      r3,[sp,#4]
        0x00001b6c:    404a        J@      EORS     r2,r2,r1
        0x00001b6e:    431a        .C      ORRS     r2,r2,r3
        0x00001b70:    d10a        ..      BNE      0x1b88 ; _printf_core + 816
        0x00001b72:    4661        aF      MOV      r1,r12
        0x00001b74:    4301        .C      ORRS     r1,r1,r0
        0x00001b76:    d101        ..      BNE      0x1b7c ; _printf_core + 804
        0x00001b78:    0761        a.      LSLS     r1,r4,#29
        0x00001b7a:    d505        ..      BPL      0x1b88 ; _printf_core + 816
        0x00001b7c:    2130        0!      MOVS     r1,#0x30
        0x00001b7e:    466a        jF      MOV      r2,sp
        0x00001b80:    7311        .s      STRB     r1,[r2,#0xc]
        0x00001b82:    2101        .!      MOVS     r1,#1
        0x00001b84:    1e7f        ..      SUBS     r7,r7,#1
        0x00001b86:    9102        ..      STR      r1,[sp,#8]
        0x00001b88:    9911        ..      LDR      r1,[sp,#0x44]
        0x00001b8a:    2958        X)      CMP      r1,#0x58
        0x00001b8c:    d004        ..      BEQ      0x1b98 ; _printf_core + 832
        0x00001b8e:    a135        5.      ADR      r1,{pc}+0xd6 ; 0x1c64
        0x00001b90:    910e        ..      STR      r1,[sp,#0x38]
        0x00001b92:    a90d        ..      ADD      r1,sp,#0x34
        0x00001b94:    910d        ..      STR      r1,[sp,#0x34]
        0x00001b96:    e00d        ..      B        0x1bb4 ; _printf_core + 860
        0x00001b98:    a137        7.      ADR      r1,{pc}+0xe0 ; 0x1c78
        0x00001b9a:    e7f9        ..      B        0x1b90 ; _printf_core + 824
        0x00001b9c:    4661        aF      MOV      r1,r12
        0x00001b9e:    9b01        ..      LDR      r3,[sp,#4]
        0x00001ba0:    9a00        ..      LDR      r2,[sp,#0]
        0x00001ba2:    f7fefdd9    ....    BL       __aeabi_uldivmod ; 0x758
        0x00001ba6:    9b0e        ..      LDR      r3,[sp,#0x38]
        0x00001ba8:    468c        .F      MOV      r12,r1
        0x00001baa:    5c9b        .\      LDRB     r3,[r3,r2]
        0x00001bac:    9a0d        ..      LDR      r2,[sp,#0x34]
        0x00001bae:    1e52        R.      SUBS     r2,r2,#1
        0x00001bb0:    920d        ..      STR      r2,[sp,#0x34]
        0x00001bb2:    7013        .p      STRB     r3,[r2,#0]
        0x00001bb4:    4661        aF      MOV      r1,r12
        0x00001bb6:    4301        .C      ORRS     r1,r1,r0
        0x00001bb8:    d1f0        ..      BNE      0x1b9c ; _printf_core + 836
        0x00001bba:    980d        ..      LDR      r0,[sp,#0x34]
        0x00001bbc:    a905        ..      ADD      r1,sp,#0x14
        0x00001bbe:    1a08        ..      SUBS     r0,r1,r0
        0x00001bc0:    3020         0      ADDS     r0,r0,#0x20
        0x00001bc2:    9001        ..      STR      r0,[sp,#4]
        0x00001bc4:    0760        `.      LSLS     r0,r4,#29
        0x00001bc6:    d503        ..      BPL      0x1bd0 ; _printf_core + 888
        0x00001bc8:    2001        .       MOVS     r0,#1
        0x00001bca:    0400        ..      LSLS     r0,r0,#16
        0x00001bcc:    4384        .C      BICS     r4,r4,r0
        0x00001bce:    e000        ..      B        0x1bd2 ; _printf_core + 890
        0x00001bd0:    2701        .'      MOVS     r7,#1
        0x00001bd2:    9801        ..      LDR      r0,[sp,#4]
        0x00001bd4:    4287        .B      CMP      r7,r0
        0x00001bd6:    dd01        ..      BLE      0x1bdc ; _printf_core + 900
        0x00001bd8:    1a38        8.      SUBS     r0,r7,r0
        0x00001bda:    e000        ..      B        0x1bde ; _printf_core + 902
        0x00001bdc:    2000        .       MOVS     r0,#0
        0x00001bde:    9901        ..      LDR      r1,[sp,#4]
        0x00001be0:    9000        ..      STR      r0,[sp,#0]
        0x00001be2:    1841        A.      ADDS     r1,r0,r1
        0x00001be4:    9802        ..      LDR      r0,[sp,#8]
        0x00001be6:    1809        ..      ADDS     r1,r1,r0
        0x00001be8:    9804        ..      LDR      r0,[sp,#0x10]
        0x00001bea:    1a40        @.      SUBS     r0,r0,r1
        0x00001bec:    9004        ..      STR      r0,[sp,#0x10]
        0x00001bee:    03e0        ..      LSLS     r0,r4,#15
        0x00001bf0:    d406        ..      BMI      0x1c00 ; _printf_core + 936
        0x00001bf2:    4621        !F      MOV      r1,r4
        0x00001bf4:    9b1a        ..      LDR      r3,[sp,#0x68]
        0x00001bf6:    9a19        ..      LDR      r2,[sp,#0x64]
        0x00001bf8:    9804        ..      LDR      r0,[sp,#0x10]
        0x00001bfa:    f000f9b3    ....    BL       _printf_pre_padding ; 0x1f64
        0x00001bfe:    1945        E.      ADDS     r5,r0,r5
        0x00001c00:    2700        .'      MOVS     r7,#0
        0x00001c02:    e006        ..      B        0x1c12 ; _printf_core + 954
        0x00001c04:    a803        ..      ADD      r0,sp,#0xc
        0x00001c06:    9a1a        ..      LDR      r2,[sp,#0x68]
        0x00001c08:    5dc0        .]      LDRB     r0,[r0,r7]
        0x00001c0a:    9919        ..      LDR      r1,[sp,#0x64]
        0x00001c0c:    4790        .G      BLX      r2
        0x00001c0e:    1c6d        m.      ADDS     r5,r5,#1
        0x00001c10:    1c7f        ..      ADDS     r7,r7,#1
        0x00001c12:    9802        ..      LDR      r0,[sp,#8]
        0x00001c14:    4287        .B      CMP      r7,r0
        0x00001c16:    dbf5        ..      BLT      0x1c04 ; _printf_core + 940
        0x00001c18:    03e0        ..      LSLS     r0,r4,#15
        0x00001c1a:    d50c        ..      BPL      0x1c36 ; _printf_core + 990
        0x00001c1c:    4621        !F      MOV      r1,r4
        0x00001c1e:    9b1a        ..      LDR      r3,[sp,#0x68]
        0x00001c20:    9a19        ..      LDR      r2,[sp,#0x64]
        0x00001c22:    9804        ..      LDR      r0,[sp,#0x10]
        0x00001c24:    f000f99e    ....    BL       _printf_pre_padding ; 0x1f64
        0x00001c28:    1945        E.      ADDS     r5,r0,r5
        0x00001c2a:    e004        ..      B        0x1c36 ; _printf_core + 990
        0x00001c2c:    9a1a        ..      LDR      r2,[sp,#0x68]
        0x00001c2e:    2030        0       MOVS     r0,#0x30
        0x00001c30:    9919        ..      LDR      r1,[sp,#0x64]
        0x00001c32:    4790        .G      BLX      r2
        0x00001c34:    1c6d        m.      ADDS     r5,r5,#1
        0x00001c36:    9900        ..      LDR      r1,[sp,#0]
        0x00001c38:    1e48        H.      SUBS     r0,r1,#1
        0x00001c3a:    9000        ..      STR      r0,[sp,#0]
        0x00001c3c:    2900        .)      CMP      r1,#0
        0x00001c3e:    dcf5        ..      BGT      0x1c2c ; _printf_core + 980
        0x00001c40:    e008        ..      B        0x1c54 ; _printf_core + 1020
        0x00001c42:    980d        ..      LDR      r0,[sp,#0x34]
        0x00001c44:    990d        ..      LDR      r1,[sp,#0x34]
        0x00001c46:    7800        .x      LDRB     r0,[r0,#0]
        0x00001c48:    1c49        I.      ADDS     r1,r1,#1
        0x00001c4a:    910d        ..      STR      r1,[sp,#0x34]
        0x00001c4c:    9a1a        ..      LDR      r2,[sp,#0x68]
        0x00001c4e:    9919        ..      LDR      r1,[sp,#0x64]
        0x00001c50:    4790        .G      BLX      r2
        0x00001c52:    1c6d        m.      ADDS     r5,r5,#1
        0x00001c54:    9901        ..      LDR      r1,[sp,#4]
        0x00001c56:    1e48        H.      SUBS     r0,r1,#1
        0x00001c58:    9001        ..      STR      r0,[sp,#4]
        0x00001c5a:    2900        .)      CMP      r1,#0
        0x00001c5c:    dcf1        ..      BGT      0x1c42 ; _printf_core + 1002
        0x00001c5e:    e163        c.      B        0x1f28 ; _printf_core + 1744
    $d
        0x00001c60:    00012809    .(..    DCD    75785
        0x00001c64:    33323130    0123    DCD    858927408
        0x00001c68:    37363534    4567    DCD    926299444
        0x00001c6c:    62613938    89ab    DCD    1650538808
        0x00001c70:    66656463    cdef    DCD    1717920867
        0x00001c74:    00000000    ....    DCD    0
        0x00001c78:    33323130    0123    DCD    858927408
        0x00001c7c:    37363534    4567    DCD    926299444
        0x00001c80:    42413938    89AB    DCD    1111570744
        0x00001c84:    46454443    CDEF    DCD    1178944579
        0x00001c88:    00000000    ....    DCD    0
    $t
        0x00001c8c:    f000f95a    ..Z.    BL       _printf_post_padding ; 0x1f44
        0x00001c90:    1945        E.      ADDS     r5,r0,r5
        0x00001c92:    1c76        v.      ADDS     r6,r6,#1
        0x00001c94:    7830        0x      LDRB     r0,[r6,#0]
        0x00001c96:    2800        .(      CMP      r0,#0
        0x00001c98:    d000        ..      BEQ      0x1c9c ; _printf_core + 1092
        0x00001c9a:    e5e2        ..      B        0x1862 ; _printf_core + 10
        0x00001c9c:    4628        (F      MOV      r0,r5
        0x00001c9e:    b01b        ..      ADD      sp,sp,#0x6c
        0x00001ca0:    bdf0        ..      POP      {r4-r7,pc}
        0x00001ca2:    0760        `.      LSLS     r0,r4,#29
        0x00001ca4:    d400        ..      BMI      0x1ca8 ; _printf_core + 1104
        0x00001ca6:    2706        .'      MOVS     r7,#6
        0x00001ca8:    9818        ..      LDR      r0,[sp,#0x60]
        0x00001caa:    1dc0        ..      ADDS     r0,r0,#7
        0x00001cac:    08c1        ..      LSRS     r1,r0,#3
        0x00001cae:    00c9        ..      LSLS     r1,r1,#3
        0x00001cb0:    6848        Hh      LDR      r0,[r1,#4]
        0x00001cb2:    680a        .h      LDR      r2,[r1,#0]
        0x00001cb4:    3108        .1      ADDS     r1,r1,#8
        0x00001cb6:    0fc3        ..      LSRS     r3,r0,#31
        0x00001cb8:    07db        ..      LSLS     r3,r3,#31
        0x00001cba:    9118        ..      STR      r1,[sp,#0x60]
        0x00001cbc:    0019        ..      MOVS     r1,r3
        0x00001cbe:    d001        ..      BEQ      0x1cc4 ; _printf_core + 1132
        0x00001cc0:    a19c        ..      ADR      r1,{pc}+0x274 ; 0x1f34
        0x00001cc2:    e008        ..      B        0x1cd6 ; _printf_core + 1150
        0x00001cc4:    0521        !.      LSLS     r1,r4,#20
        0x00001cc6:    d501        ..      BPL      0x1ccc ; _printf_core + 1140
        0x00001cc8:    a19b        ..      ADR      r1,{pc}+0x270 ; 0x1f38
        0x00001cca:    e004        ..      B        0x1cd6 ; _printf_core + 1150
        0x00001ccc:    07e1        ..      LSLS     r1,r4,#31
        0x00001cce:    d001        ..      BEQ      0x1cd4 ; _printf_core + 1148
        0x00001cd0:    a19a        ..      ADR      r1,{pc}+0x26c ; 0x1f3c
        0x00001cd2:    e000        ..      B        0x1cd6 ; _printf_core + 1150
        0x00001cd4:    a19a        ..      ADR      r1,{pc}+0x26c ; 0x1f40
        0x00001cd6:    0043        C.      LSLS     r3,r0,#1
        0x00001cd8:    9811        ..      LDR      r0,[sp,#0x44]
        0x00001cda:    085b        [.      LSRS     r3,r3,#1
        0x00001cdc:    9110        ..      STR      r1,[sp,#0x40]
        0x00001cde:    2865        e(      CMP      r0,#0x65
        0x00001ce0:    d00c        ..      BEQ      0x1cfc ; _printf_core + 1188
        0x00001ce2:    dc06        ..      BGT      0x1cf2 ; _printf_core + 1178
        0x00001ce4:    2845        E(      CMP      r0,#0x45
        0x00001ce6:    d009        ..      BEQ      0x1cfc ; _printf_core + 1188
        0x00001ce8:    2846        F(      CMP      r0,#0x46
        0x00001cea:    d01d        ..      BEQ      0x1d28 ; _printf_core + 1232
        0x00001cec:    2847        G(      CMP      r0,#0x47
        0x00001cee:    d141        A.      BNE      0x1d74 ; _printf_core + 1308
        0x00001cf0:    e041        A.      B        0x1d76 ; _printf_core + 1310
        0x00001cf2:    2866        f(      CMP      r0,#0x66
        0x00001cf4:    d018        ..      BEQ      0x1d28 ; _printf_core + 1232
        0x00001cf6:    2867        g(      CMP      r0,#0x67
        0x00001cf8:    d13c        <.      BNE      0x1d74 ; _printf_core + 1308
        0x00001cfa:    e03c        <.      B        0x1d76 ; _printf_core + 1310
        0x00001cfc:    2100        .!      MOVS     r1,#0
        0x00001cfe:    2f11        ./      CMP      r7,#0x11
        0x00001d00:    db01        ..      BLT      0x1d06 ; _printf_core + 1198
        0x00001d02:    2011        .       MOVS     r0,#0x11
        0x00001d04:    e000        ..      B        0x1d08 ; _printf_core + 1200
        0x00001d06:    1c78        x.      ADDS     r0,r7,#1
        0x00001d08:    9101        ..      STR      r1,[sp,#4]
        0x00001d0a:    9000        ..      STR      r0,[sp,#0]
        0x00001d0c:    a908        ..      ADD      r1,sp,#0x20
        0x00001d0e:    a811        ..      ADD      r0,sp,#0x44
        0x00001d10:    f7fffce8    ....    BL       _fp_digits ; 0x16e4
        0x00001d14:    9913        ..      LDR      r1,[sp,#0x4c]
        0x00001d16:    9105        ..      STR      r1,[sp,#0x14]
        0x00001d18:    2100        .!      MOVS     r1,#0
        0x00001d1a:    9a11        ..      LDR      r2,[sp,#0x44]
        0x00001d1c:    9215        ..      STR      r2,[sp,#0x54]
        0x00001d1e:    1c7f        ..      ADDS     r7,r7,#1
        0x00001d20:    9812        ..      LDR      r0,[sp,#0x48]
        0x00001d22:    9701        ..      STR      r7,[sp,#4]
        0x00001d24:    9100        ..      STR      r1,[sp,#0]
        0x00001d26:    e050        P.      B        0x1dca ; _printf_core + 1394
        0x00001d28:    2001        .       MOVS     r0,#1
        0x00001d2a:    07c0        ..      LSLS     r0,r0,#31
        0x00001d2c:    9003        ..      STR      r0,[sp,#0xc]
        0x00001d2e:    2001        .       MOVS     r0,#1
        0x00001d30:    9001        ..      STR      r0,[sp,#4]
        0x00001d32:    a908        ..      ADD      r1,sp,#0x20
        0x00001d34:    9700        ..      STR      r7,[sp,#0]
        0x00001d36:    a811        ..      ADD      r0,sp,#0x44
        0x00001d38:    f7fffcd4    ....    BL       _fp_digits ; 0x16e4
        0x00001d3c:    9a13        ..      LDR      r2,[sp,#0x4c]
        0x00001d3e:    9914        ..      LDR      r1,[sp,#0x50]
        0x00001d40:    9205        ..      STR      r2,[sp,#0x14]
        0x00001d42:    2200        ."      MOVS     r2,#0
        0x00001d44:    9b11        ..      LDR      r3,[sp,#0x44]
        0x00001d46:    9200        ..      STR      r2,[sp,#0]
        0x00001d48:    9812        ..      LDR      r0,[sp,#0x48]
        0x00001d4a:    9315        ..      STR      r3,[sp,#0x54]
        0x00001d4c:    9a05        ..      LDR      r2,[sp,#0x14]
        0x00001d4e:    9201        ..      STR      r2,[sp,#4]
        0x00001d50:    2900        .)      CMP      r1,#0
        0x00001d52:    d001        ..      BEQ      0x1d58 ; _printf_core + 1280
        0x00001d54:    4610        .F      MOV      r0,r2
        0x00001d56:    e002        ..      B        0x1d5e ; _printf_core + 1286
        0x00001d58:    1c79        y.      ADDS     r1,r7,#1
        0x00001d5a:    1840        @.      ADDS     r0,r0,r1
        0x00001d5c:    9001        ..      STR      r0,[sp,#4]
        0x00001d5e:    1a38        8.      SUBS     r0,r7,r0
        0x00001d60:    d501        ..      BPL      0x1d66 ; _printf_core + 1294
        0x00001d62:    9801        ..      LDR      r0,[sp,#4]
        0x00001d64:    e004        ..      B        0x1d70 ; _printf_core + 1304
        0x00001d66:    4240        @B      RSBS     r0,r0,#0
        0x00001d68:    1e40        @.      SUBS     r0,r0,#1
        0x00001d6a:    9000        ..      STR      r0,[sp,#0]
        0x00001d6c:    1c78        x.      ADDS     r0,r7,#1
        0x00001d6e:    9001        ..      STR      r0,[sp,#4]
        0x00001d70:    1bc0        ..      SUBS     r0,r0,r7
        0x00001d72:    9002        ..      STR      r0,[sp,#8]
        0x00001d74:    e043        C.      B        0x1dfe ; _printf_core + 1446
        0x00001d76:    2f01        ./      CMP      r7,#1
        0x00001d78:    da00        ..      BGE      0x1d7c ; _printf_core + 1316
        0x00001d7a:    2701        .'      MOVS     r7,#1
        0x00001d7c:    2100        .!      MOVS     r1,#0
        0x00001d7e:    2f11        ./      CMP      r7,#0x11
        0x00001d80:    dd01        ..      BLE      0x1d86 ; _printf_core + 1326
        0x00001d82:    2011        .       MOVS     r0,#0x11
        0x00001d84:    e000        ..      B        0x1d88 ; _printf_core + 1328
        0x00001d86:    4638        8F      MOV      r0,r7
        0x00001d88:    9101        ..      STR      r1,[sp,#4]
        0x00001d8a:    9000        ..      STR      r0,[sp,#0]
        0x00001d8c:    a908        ..      ADD      r1,sp,#0x20
        0x00001d8e:    a811        ..      ADD      r0,sp,#0x44
        0x00001d90:    f7fffca8    ....    BL       _fp_digits ; 0x16e4
        0x00001d94:    9913        ..      LDR      r1,[sp,#0x4c]
        0x00001d96:    9105        ..      STR      r1,[sp,#0x14]
        0x00001d98:    9a11        ..      LDR      r2,[sp,#0x44]
        0x00001d9a:    2100        .!      MOVS     r1,#0
        0x00001d9c:    9812        ..      LDR      r0,[sp,#0x48]
        0x00001d9e:    9215        ..      STR      r2,[sp,#0x54]
        0x00001da0:    9100        ..      STR      r1,[sp,#0]
        0x00001da2:    9701        ..      STR      r7,[sp,#4]
        0x00001da4:    0721        !.      LSLS     r1,r4,#28
        0x00001da6:    d40c        ..      BMI      0x1dc2 ; _printf_core + 1386
        0x00001da8:    9905        ..      LDR      r1,[sp,#0x14]
        0x00001daa:    42b9        .B      CMP      r1,r7
        0x00001dac:    db01        ..      BLT      0x1db2 ; _printf_core + 1370
        0x00001dae:    9901        ..      LDR      r1,[sp,#4]
        0x00001db0:    e000        ..      B        0x1db4 ; _printf_core + 1372
        0x00001db2:    9101        ..      STR      r1,[sp,#4]
        0x00001db4:    2901        .)      CMP      r1,#1
        0x00001db6:    dd04        ..      BLE      0x1dc2 ; _printf_core + 1386
        0x00001db8:    9a15        ..      LDR      r2,[sp,#0x54]
        0x00001dba:    1e49        I.      SUBS     r1,r1,#1
        0x00001dbc:    5c51        Q\      LDRB     r1,[r2,r1]
        0x00001dbe:    2930        0)      CMP      r1,#0x30
        0x00001dc0:    d006        ..      BEQ      0x1dd0 ; _printf_core + 1400
        0x00001dc2:    42b8        .B      CMP      r0,r7
        0x00001dc4:    da01        ..      BGE      0x1dca ; _printf_core + 1394
        0x00001dc6:    1d01        ..      ADDS     r1,r0,#4
        0x00001dc8:    da05        ..      BGE      0x1dd6 ; _printf_core + 1406
        0x00001dca:    2101        .!      MOVS     r1,#1
        0x00001dcc:    9102        ..      STR      r1,[sp,#8]
        0x00001dce:    e015        ..      B        0x1dfc ; _printf_core + 1444
        0x00001dd0:    9901        ..      LDR      r1,[sp,#4]
        0x00001dd2:    1e49        I.      SUBS     r1,r1,#1
        0x00001dd4:    e7ed        ..      B        0x1db2 ; _printf_core + 1370
        0x00001dd6:    2800        .(      CMP      r0,#0
        0x00001dd8:    dc05        ..      BGT      0x1de6 ; _printf_core + 1422
        0x00001dda:    9900        ..      LDR      r1,[sp,#0]
        0x00001ddc:    1841        A.      ADDS     r1,r0,r1
        0x00001dde:    9100        ..      STR      r1,[sp,#0]
        0x00001de0:    9901        ..      LDR      r1,[sp,#4]
        0x00001de2:    1a09        ..      SUBS     r1,r1,r0
        0x00001de4:    e003        ..      B        0x1dee ; _printf_core + 1430
        0x00001de6:    9a01        ..      LDR      r2,[sp,#4]
        0x00001de8:    1c41        A.      ADDS     r1,r0,#1
        0x00001dea:    4291        .B      CMP      r1,r2
        0x00001dec:    dd00        ..      BLE      0x1df0 ; _printf_core + 1432
        0x00001dee:    9101        ..      STR      r1,[sp,#4]
        0x00001df0:    9900        ..      LDR      r1,[sp,#0]
        0x00001df2:    1a40        @.      SUBS     r0,r0,r1
        0x00001df4:    1c40        @.      ADDS     r0,r0,#1
        0x00001df6:    9002        ..      STR      r0,[sp,#8]
        0x00001df8:    2001        .       MOVS     r0,#1
        0x00001dfa:    07c0        ..      LSLS     r0,r0,#31
        0x00001dfc:    9003        ..      STR      r0,[sp,#0xc]
        0x00001dfe:    0720         .      LSLS     r0,r4,#28
        0x00001e00:    d406        ..      BMI      0x1e10 ; _printf_core + 1464
        0x00001e02:    9902        ..      LDR      r1,[sp,#8]
        0x00001e04:    9801        ..      LDR      r0,[sp,#4]
        0x00001e06:    4281        .B      CMP      r1,r0
        0x00001e08:    db02        ..      BLT      0x1e10 ; _printf_core + 1464
        0x00001e0a:    2000        .       MOVS     r0,#0
        0x00001e0c:    43c0        .C      MVNS     r0,r0
        0x00001e0e:    9002        ..      STR      r0,[sp,#8]
        0x00001e10:    2000        .       MOVS     r0,#0
        0x00001e12:    4669        iF      MOV      r1,sp
        0x00001e14:    77c8        .w      STRB     r0,[r1,#0x1f]
        0x00001e16:    af07        ..      ADD      r7,sp,#0x1c
        0x00001e18:    2101        .!      MOVS     r1,#1
        0x00001e1a:    9803        ..      LDR      r0,[sp,#0xc]
        0x00001e1c:    3703        .7      ADDS     r7,#3
        0x00001e1e:    07c9        ..      LSLS     r1,r1,#31
        0x00001e20:    4288        .B      CMP      r0,r1
        0x00001e22:    d024        $.      BEQ      0x1e6e ; _printf_core + 1558
        0x00001e24:    2002        .       MOVS     r0,#2
        0x00001e26:    9011        ..      STR      r0,[sp,#0x44]
        0x00001e28:    202b        +       MOVS     r0,#0x2b
        0x00001e2a:    9012        ..      STR      r0,[sp,#0x48]
        0x00001e2c:    9803        ..      LDR      r0,[sp,#0xc]
        0x00001e2e:    2800        .(      CMP      r0,#0
        0x00001e30:    da0c        ..      BGE      0x1e4c ; _printf_core + 1524
        0x00001e32:    4240        @B      RSBS     r0,r0,#0
        0x00001e34:    9003        ..      STR      r0,[sp,#0xc]
        0x00001e36:    202d        -       MOVS     r0,#0x2d
        0x00001e38:    9012        ..      STR      r0,[sp,#0x48]
        0x00001e3a:    e007        ..      B        0x1e4c ; _printf_core + 1524
        0x00001e3c:    210a        .!      MOVS     r1,#0xa
        0x00001e3e:    9803        ..      LDR      r0,[sp,#0xc]
        0x00001e40:    f7fef97c    ..|.    BL       __aeabi_uidiv ; 0x13c
        0x00001e44:    3130        01      ADDS     r1,r1,#0x30
        0x00001e46:    1e7f        ..      SUBS     r7,r7,#1
        0x00001e48:    9003        ..      STR      r0,[sp,#0xc]
        0x00001e4a:    7039        9p      STRB     r1,[r7,#0]
        0x00001e4c:    9911        ..      LDR      r1,[sp,#0x44]
        0x00001e4e:    1e48        H.      SUBS     r0,r1,#1
        0x00001e50:    9011        ..      STR      r0,[sp,#0x44]
        0x00001e52:    2900        .)      CMP      r1,#0
        0x00001e54:    dcf2        ..      BGT      0x1e3c ; _printf_core + 1508
        0x00001e56:    9803        ..      LDR      r0,[sp,#0xc]
        0x00001e58:    2800        .(      CMP      r0,#0
        0x00001e5a:    d1ef        ..      BNE      0x1e3c ; _printf_core + 1508
        0x00001e5c:    1e79        y.      SUBS     r1,r7,#1
        0x00001e5e:    9812        ..      LDR      r0,[sp,#0x48]
        0x00001e60:    7008        .p      STRB     r0,[r1,#0]
        0x00001e62:    7830        0x      LDRB     r0,[r6,#0]
        0x00001e64:    2120         !      MOVS     r1,#0x20
        0x00001e66:    4008        .@      ANDS     r0,r0,r1
        0x00001e68:    3045        E0      ADDS     r0,r0,#0x45
        0x00001e6a:    1ebf        ..      SUBS     r7,r7,#2
        0x00001e6c:    7038        8p      STRB     r0,[r7,#0]
        0x00001e6e:    a806        ..      ADD      r0,sp,#0x18
        0x00001e70:    1bc0        ..      SUBS     r0,r0,r7
        0x00001e72:    1dc0        ..      ADDS     r0,r0,#7
        0x00001e74:    9003        ..      STR      r0,[sp,#0xc]
        0x00001e76:    9810        ..      LDR      r0,[sp,#0x40]
        0x00001e78:    7800        .x      LDRB     r0,[r0,#0]
        0x00001e7a:    2800        .(      CMP      r0,#0
        0x00001e7c:    d000        ..      BEQ      0x1e80 ; _printf_core + 1576
        0x00001e7e:    2001        .       MOVS     r0,#1
        0x00001e80:    9901        ..      LDR      r1,[sp,#4]
        0x00001e82:    1841        A.      ADDS     r1,r0,r1
        0x00001e84:    9802        ..      LDR      r0,[sp,#8]
        0x00001e86:    17c0        ..      ASRS     r0,r0,#31
        0x00001e88:    1809        ..      ADDS     r1,r1,r0
        0x00001e8a:    9803        ..      LDR      r0,[sp,#0xc]
        0x00001e8c:    1809        ..      ADDS     r1,r1,r0
        0x00001e8e:    9804        ..      LDR      r0,[sp,#0x10]
        0x00001e90:    1a40        @.      SUBS     r0,r0,r1
        0x00001e92:    1e40        @.      SUBS     r0,r0,#1
        0x00001e94:    9004        ..      STR      r0,[sp,#0x10]
        0x00001e96:    03e0        ..      LSLS     r0,r4,#15
        0x00001e98:    d406        ..      BMI      0x1ea8 ; _printf_core + 1616
        0x00001e9a:    4621        !F      MOV      r1,r4
        0x00001e9c:    9b1a        ..      LDR      r3,[sp,#0x68]
        0x00001e9e:    9a19        ..      LDR      r2,[sp,#0x64]
        0x00001ea0:    9804        ..      LDR      r0,[sp,#0x10]
        0x00001ea2:    f000f85f    .._.    BL       _printf_pre_padding ; 0x1f64
        0x00001ea6:    1945        E.      ADDS     r5,r0,r5
        0x00001ea8:    9810        ..      LDR      r0,[sp,#0x40]
        0x00001eaa:    7800        .x      LDRB     r0,[r0,#0]
        0x00001eac:    2800        .(      CMP      r0,#0
        0x00001eae:    d003        ..      BEQ      0x1eb8 ; _printf_core + 1632
        0x00001eb0:    9a1a        ..      LDR      r2,[sp,#0x68]
        0x00001eb2:    9919        ..      LDR      r1,[sp,#0x64]
        0x00001eb4:    4790        .G      BLX      r2
        0x00001eb6:    1c6d        m.      ADDS     r5,r5,#1
        0x00001eb8:    03e0        ..      LSLS     r0,r4,#15
        0x00001eba:    d524        $.      BPL      0x1f06 ; _printf_core + 1710
        0x00001ebc:    4621        !F      MOV      r1,r4
        0x00001ebe:    9b1a        ..      LDR      r3,[sp,#0x68]
        0x00001ec0:    9a19        ..      LDR      r2,[sp,#0x64]
        0x00001ec2:    9804        ..      LDR      r0,[sp,#0x10]
        0x00001ec4:    f000f84e    ..N.    BL       _printf_pre_padding ; 0x1f64
        0x00001ec8:    1945        E.      ADDS     r5,r0,r5
        0x00001eca:    e01c        ..      B        0x1f06 ; _printf_core + 1710
        0x00001ecc:    9800        ..      LDR      r0,[sp,#0]
        0x00001ece:    2800        .(      CMP      r0,#0
        0x00001ed0:    db07        ..      BLT      0x1ee2 ; _printf_core + 1674
        0x00001ed2:    9900        ..      LDR      r1,[sp,#0]
        0x00001ed4:    9805        ..      LDR      r0,[sp,#0x14]
        0x00001ed6:    4288        .B      CMP      r0,r1
        0x00001ed8:    dd03        ..      BLE      0x1ee2 ; _printf_core + 1674
        0x00001eda:    9815        ..      LDR      r0,[sp,#0x54]
        0x00001edc:    5c40        @\      LDRB     r0,[r0,r1]
        0x00001ede:    9919        ..      LDR      r1,[sp,#0x64]
        0x00001ee0:    e001        ..      B        0x1ee6 ; _printf_core + 1678
        0x00001ee2:    9919        ..      LDR      r1,[sp,#0x64]
        0x00001ee4:    2030        0       MOVS     r0,#0x30
        0x00001ee6:    9a1a        ..      LDR      r2,[sp,#0x68]
        0x00001ee8:    4790        .G      BLX      r2
        0x00001eea:    9800        ..      LDR      r0,[sp,#0]
        0x00001eec:    1c6d        m.      ADDS     r5,r5,#1
        0x00001eee:    1c40        @.      ADDS     r0,r0,#1
        0x00001ef0:    9000        ..      STR      r0,[sp,#0]
        0x00001ef2:    9802        ..      LDR      r0,[sp,#8]
        0x00001ef4:    1e40        @.      SUBS     r0,r0,#1
        0x00001ef6:    9002        ..      STR      r0,[sp,#8]
        0x00001ef8:    2800        .(      CMP      r0,#0
        0x00001efa:    d104        ..      BNE      0x1f06 ; _printf_core + 1710
        0x00001efc:    9a1a        ..      LDR      r2,[sp,#0x68]
        0x00001efe:    202e        .       MOVS     r0,#0x2e
        0x00001f00:    9919        ..      LDR      r1,[sp,#0x64]
        0x00001f02:    4790        .G      BLX      r2
        0x00001f04:    1c6d        m.      ADDS     r5,r5,#1
        0x00001f06:    9901        ..      LDR      r1,[sp,#4]
        0x00001f08:    1e48        H.      SUBS     r0,r1,#1
        0x00001f0a:    9001        ..      STR      r0,[sp,#4]
        0x00001f0c:    2900        .)      CMP      r1,#0
        0x00001f0e:    dcdd        ..      BGT      0x1ecc ; _printf_core + 1652
        0x00001f10:    e005        ..      B        0x1f1e ; _printf_core + 1734
        0x00001f12:    7838        8x      LDRB     r0,[r7,#0]
        0x00001f14:    9a1a        ..      LDR      r2,[sp,#0x68]
        0x00001f16:    1c7f        ..      ADDS     r7,r7,#1
        0x00001f18:    9919        ..      LDR      r1,[sp,#0x64]
        0x00001f1a:    4790        .G      BLX      r2
        0x00001f1c:    1c6d        m.      ADDS     r5,r5,#1
        0x00001f1e:    9903        ..      LDR      r1,[sp,#0xc]
        0x00001f20:    1e48        H.      SUBS     r0,r1,#1
        0x00001f22:    9003        ..      STR      r0,[sp,#0xc]
        0x00001f24:    2900        .)      CMP      r1,#0
        0x00001f26:    dcf4        ..      BGT      0x1f12 ; _printf_core + 1722
        0x00001f28:    4621        !F      MOV      r1,r4
        0x00001f2a:    9b1a        ..      LDR      r3,[sp,#0x68]
        0x00001f2c:    9a19        ..      LDR      r2,[sp,#0x64]
        0x00001f2e:    9804        ..      LDR      r0,[sp,#0x10]
        0x00001f30:    e6ac        ..      B        0x1c8c ; _printf_core + 1076
    $d
        0x00001f32:    0000        ..      DCW    0
        0x00001f34:    0000002d    -...    DCD    45
        0x00001f38:    0000002b    +...    DCD    43
        0x00001f3c:    00000020     ...    DCD    32
        0x00001f40:    00000000    ....    DCD    0
    $t
    i._printf_post_padding
    _printf_post_padding
        0x00001f44:    b5f8        ..      PUSH     {r3-r7,lr}
        0x00001f46:    4604        .F      MOV      r4,r0
        0x00001f48:    2500        .%      MOVS     r5,#0
        0x00001f4a:    461e        .F      MOV      r6,r3
        0x00001f4c:    4617        .F      MOV      r7,r2
        0x00001f4e:    0488        ..      LSLS     r0,r1,#18
        0x00001f50:    d404        ..      BMI      0x1f5c ; _printf_post_padding + 24
        0x00001f52:    e005        ..      B        0x1f60 ; _printf_post_padding + 28
        0x00001f54:    4639        9F      MOV      r1,r7
        0x00001f56:    2020                MOVS     r0,#0x20
        0x00001f58:    47b0        .G      BLX      r6
        0x00001f5a:    1c6d        m.      ADDS     r5,r5,#1
        0x00001f5c:    1e64        d.      SUBS     r4,r4,#1
        0x00001f5e:    d5f9        ..      BPL      0x1f54 ; _printf_post_padding + 16
        0x00001f60:    4628        (F      MOV      r0,r5
        0x00001f62:    bdf8        ..      POP      {r3-r7,pc}
    i._printf_pre_padding
    _printf_pre_padding
        0x00001f64:    b5ff        ..      PUSH     {r0-r7,lr}
        0x00001f66:    4604        .F      MOV      r4,r0
        0x00001f68:    2500        .%      MOVS     r5,#0
        0x00001f6a:    b081        ..      SUB      sp,sp,#4
        0x00001f6c:    461e        .F      MOV      r6,r3
        0x00001f6e:    03c8        ..      LSLS     r0,r1,#15
        0x00001f70:    d501        ..      BPL      0x1f76 ; _printf_pre_padding + 18
        0x00001f72:    2730        0'      MOVS     r7,#0x30
        0x00001f74:    e000        ..      B        0x1f78 ; _printf_pre_padding + 20
        0x00001f76:    2720         '      MOVS     r7,#0x20
        0x00001f78:    0488        ..      LSLS     r0,r1,#18
        0x00001f7a:    d504        ..      BPL      0x1f86 ; _printf_pre_padding + 34
        0x00001f7c:    e005        ..      B        0x1f8a ; _printf_pre_padding + 38
        0x00001f7e:    4638        8F      MOV      r0,r7
        0x00001f80:    9903        ..      LDR      r1,[sp,#0xc]
        0x00001f82:    47b0        .G      BLX      r6
        0x00001f84:    1c6d        m.      ADDS     r5,r5,#1
        0x00001f86:    1e64        d.      SUBS     r4,r4,#1
        0x00001f88:    d5f9        ..      BPL      0x1f7e ; _printf_pre_padding + 26
        0x00001f8a:    4628        (F      MOV      r0,r5
        0x00001f8c:    b005        ..      ADD      sp,sp,#0x14
        0x00001f8e:    bdf0        ..      POP      {r4-r7,pc}
    i.data_setup
    data_setup
        0x00001f90:    b570        p.      PUSH     {r4-r6,lr}
        0x00001f92:    4d1d        .M      LDR      r5,[pc,#116] ; [0x2008] = 0x400e0000
        0x00001f94:    2401        .$      MOVS     r4,#1
        0x00001f96:    2307        .#      MOVS     r3,#7
        0x00001f98:    2208        ."      MOVS     r2,#8
        0x00001f9a:    2100        .!      MOVS     r1,#0
        0x00001f9c:    4628        (F      MOV      r0,r5
        0x00001f9e:    f7fefdc3    ....    BL       ADC_Open ; 0xb28
        0x00001fa2:    6a28        (j      LDR      r0,[r5,#0x20]
        0x00001fa4:    2601        .&      MOVS     r6,#1
        0x00001fa6:    4330        0C      ORRS     r0,r0,r6
        0x00001fa8:    6228        (b      STR      r0,[r5,#0x20]
        0x00001faa:    632e        .c      STR      r6,[r5,#0x30]
        0x00001fac:    6a28        (j      LDR      r0,[r5,#0x20]
        0x00001fae:    02e1        ..      LSLS     r1,r4,#11
        0x00001fb0:    4308        .C      ORRS     r0,r0,r1
        0x00001fb2:    6228        (b      STR      r0,[r5,#0x20]
        0x00001fb4:    6b28        (k      LDR      r0,[r5,#0x30]
        0x00001fb6:    07c0        ..      LSLS     r0,r0,#31
        0x00001fb8:    d0fc        ..      BEQ      0x1fb4 ; data_setup + 36
        0x00001fba:    2000        .       MOVS     r0,#0
        0x00001fbc:    0081        ..      LSLS     r1,r0,#2
        0x00001fbe:    1949        I.      ADDS     r1,r1,r5
        0x00001fc0:    6809        .h      LDR      r1,[r1,#0]
        0x00001fc2:    1c40        @.      ADDS     r0,r0,#1
        0x00001fc4:    b289        ..      UXTH     r1,r1
        0x00001fc6:    434c        LC      MULS     r4,r1,r4
        0x00001fc8:    2803        .(      CMP      r0,#3
        0x00001fca:    dbf7        ..      BLT      0x1fbc ; data_setup + 44
        0x00001fcc:    207d        }       MOVS     r0,#0x7d
        0x00001fce:    00c0        ..      LSLS     r0,r0,#3
        0x00001fd0:    4344        DC      MULS     r4,r0,r4
        0x00001fd2:    4621        !F      MOV      r1,r4
        0x00001fd4:    a00d        ..      ADR      r0,{pc}+0x38 ; 0x200c
        0x00001fd6:    f7fffaab    ....    BL       __0printf ; 0x1530
        0x00001fda:    4620         F      MOV      r0,r4
        0x00001fdc:    f7fef8e1    ....    BL       srand ; 0x1a2
        0x00001fe0:    480f        .H      LDR      r0,[pc,#60] ; [0x2020] = 0x2000002c
        0x00001fe2:    4910        .I      LDR      r1,[pc,#64] ; [0x2024] = 0x20000d90
        0x00001fe4:    6006        .`      STR      r6,[r0,#0]
        0x00001fe6:    2000        .       MOVS     r0,#0
        0x00001fe8:    0082        ..      LSLS     r2,r0,#2
        0x00001fea:    5088        .P      STR      r0,[r1,r2]
        0x00001fec:    1c40        @.      ADDS     r0,r0,#1
        0x00001fee:    2850        P(      CMP      r0,#0x50
        0x00001ff0:    dbfa        ..      BLT      0x1fe8 ; data_setup + 88
        0x00001ff2:    f001fc5d    ..].    BL       scale_data ; 0x38b0
        0x00001ff6:    f001fd6f    ..o.    BL       train_preprocess ; 0x3ad8
        0x00001ffa:    4604        .F      MOV      r4,r0
        0x00001ffc:    f001fd5c    ..\.    BL       test_preprocess ; 0x3ab8
        0x00002000:    4320         C      ORRS     r0,r0,r4
        0x00002002:    d000        ..      BEQ      0x2006 ; data_setup + 118
        0x00002004:    2001        .       MOVS     r0,#1
        0x00002006:    bd70        p.      POP      {r4-r6,pc}
    $d
        0x00002008:    400e0000    ...@    DCD    1074659328
        0x0000200c:    6e61520a    .Ran    DCD    1851871754
        0x00002010:    206d6f64    dom     DCD    544042852
        0x00002014:    64656573    seed    DCD    1684366707
        0x00002018:    6425203a    : %d    DCD    1680154682
        0x0000201c:    0000000a    ....    DCD    10
        0x00002020:    2000002c    ,..     DCD    536870956
        0x00002024:    20000d90    ...     DCD    536874384
    $t
    i.exp
    exp
        0x00002028:    b5f0        ..      PUSH     {r4-r7,lr}
        0x0000202a:    004e        N.      LSLS     r6,r1,#1
        0x0000202c:    4b86        .K      LDR      r3,[pc,#536] ; [0x2248] = 0x40862e42
        0x0000202e:    0fcf        ..      LSRS     r7,r1,#31
        0x00002030:    0876        v.      LSRS     r6,r6,#1
        0x00002032:    b087        ..      SUB      sp,sp,#0x1c
        0x00002034:    4605        .F      MOV      r5,r0
        0x00002036:    460c        .F      MOV      r4,r1
        0x00002038:    429e        .B      CMP      r6,r3
        0x0000203a:    d32e        ..      BCC      0x209a ; exp + 114
        0x0000203c:    4883        .H      LDR      r0,[pc,#524] ; [0x224c] = 0x7ff00000
        0x0000203e:    4286        .B      CMP      r6,r0
        0x00002040:    d311        ..      BCC      0x2066 ; exp + 62
        0x00002042:    0330        0.      LSLS     r0,r6,#12
        0x00002044:    0b00        ..      LSRS     r0,r0,#12
        0x00002046:    4328        (C      ORRS     r0,r0,r5
        0x00002048:    d004        ..      BEQ      0x2054 ; exp + 44
        0x0000204a:    4628        (F      MOV      r0,r5
        0x0000204c:    f7fffb0e    ....    BL       __mathlib_dbl_infnan ; 0x166c
        0x00002050:    b007        ..      ADD      sp,sp,#0x1c
        0x00002052:    bdf0        ..      POP      {r4-r7,pc}
        0x00002054:    2f00        ./      CMP      r7,#0
        0x00002056:    d003        ..      BEQ      0x2060 ; exp + 56
        0x00002058:    2000        .       MOVS     r0,#0
        0x0000205a:    4601        .F      MOV      r1,r0
        0x0000205c:    b007        ..      ADD      sp,sp,#0x1c
        0x0000205e:    bdf0        ..      POP      {r4-r7,pc}
        0x00002060:    4628        (F      MOV      r0,r5
        0x00002062:    b007        ..      ADD      sp,sp,#0x1c
        0x00002064:    bdf0        ..      POP      {r4-r7,pc}
        0x00002066:    4a7a        zJ      LDR      r2,[pc,#488] ; [0x2250] = 0xfefa39ef
        0x00002068:    4628        (F      MOV      r0,r5
        0x0000206a:    f7fefd25    ..%.    BL       __aeabi_cdrcmple ; 0xab8
        0x0000206e:    d206        ..      BCS      0x207e ; exp + 86
        0x00002070:    2002        .       MOVS     r0,#2
        0x00002072:    f7fffb31    ..1.    BL       __set_errno ; 0x16d8
        0x00002076:    f7fffb0b    ....    BL       __mathlib_dbl_overflow ; 0x1690
        0x0000207a:    b007        ..      ADD      sp,sp,#0x1c
        0x0000207c:    bdf0        ..      POP      {r4-r7,pc}
        0x0000207e:    4a75        uJ      LDR      r2,[pc,#468] ; [0x2254] = 0xd52d3051
        0x00002080:    4b75        uK      LDR      r3,[pc,#468] ; [0x2258] = 0xc0874910
        0x00002082:    4628        (F      MOV      r0,r5
        0x00002084:    4621        !F      MOV      r1,r4
        0x00002086:    f7fefd03    ....    BL       __aeabi_cdcmpeq ; 0xa90
        0x0000208a:    d206        ..      BCS      0x209a ; exp + 114
        0x0000208c:    2002        .       MOVS     r0,#2
        0x0000208e:    f7fffb23    ..#.    BL       __set_errno ; 0x16d8
        0x00002092:    f7fffb07    ....    BL       __mathlib_dbl_underflow ; 0x16a4
        0x00002096:    b007        ..      ADD      sp,sp,#0x1c
        0x00002098:    bdf0        ..      POP      {r4-r7,pc}
        0x0000209a:    4870        pH      LDR      r0,[pc,#448] ; [0x225c] = 0x3fd62e42
        0x0000209c:    4286        .B      CMP      r6,r0
        0x0000209e:    d94a        J.      BLS      0x2136 ; exp + 270
        0x000020a0:    4630        0F      MOV      r0,r6
        0x000020a2:    496f        oI      LDR      r1,[pc,#444] ; [0x2260] = 0x3ff0a2b2
        0x000020a4:    0fe2        ..      LSRS     r2,r4,#31
        0x000020a6:    00d6        ..      LSLS     r6,r2,#3
        0x000020a8:    4288        .B      CMP      r0,r1
        0x000020aa:    d215        ..      BCS      0x20d8 ; exp + 176
        0x000020ac:    486d        mH      LDR      r0,[pc,#436] ; [0x2264] = 0x1abe
        0x000020ae:    4478        xD      ADD      r0,r0,pc
        0x000020b0:    1980        ..      ADDS     r0,r0,r6
        0x000020b2:    6843        Ch      LDR      r3,[r0,#4]
        0x000020b4:    6802        .h      LDR      r2,[r0,#0]
        0x000020b6:    4628        (F      MOV      r0,r5
        0x000020b8:    4621        !F      MOV      r1,r4
        0x000020ba:    f7fef9fd    ....    BL       __aeabi_dsub ; 0x4b8
        0x000020be:    9002        ..      STR      r0,[sp,#8]
        0x000020c0:    4869        iH      LDR      r0,[pc,#420] ; [0x2268] = 0x1ab8
        0x000020c2:    9103        ..      STR      r1,[sp,#0xc]
        0x000020c4:    4478        xD      ADD      r0,r0,pc
        0x000020c6:    1981        ..      ADDS     r1,r0,r6
        0x000020c8:    6808        .h      LDR      r0,[r1,#0]
        0x000020ca:    6849        Ih      LDR      r1,[r1,#4]
        0x000020cc:    9000        ..      STR      r0,[sp,#0]
        0x000020ce:    2001        .       MOVS     r0,#1
        0x000020d0:    1bc0        ..      SUBS     r0,r0,r7
        0x000020d2:    9101        ..      STR      r1,[sp,#4]
        0x000020d4:    1bc6        ..      SUBS     r6,r0,r7
        0x000020d6:    e025        %.      B        0x2124 ; exp + 252
        0x000020d8:    4a64        dJ      LDR      r2,[pc,#400] ; [0x226c] = 0x652b82fe
        0x000020da:    4b65        eK      LDR      r3,[pc,#404] ; [0x2270] = 0x3ff71547
        0x000020dc:    4628        (F      MOV      r0,r5
        0x000020de:    4621        !F      MOV      r1,r4
        0x000020e0:    f7fef9f8    ....    BL       __aeabi_dmul ; 0x4d4
        0x000020e4:    4a63        cJ      LDR      r2,[pc,#396] ; [0x2274] = 0x1a76
        0x000020e6:    447a        zD      ADD      r2,r2,pc
        0x000020e8:    1993        ..      ADDS     r3,r2,r6
        0x000020ea:    681a        .h      LDR      r2,[r3,#0]
        0x000020ec:    685b        [h      LDR      r3,[r3,#4]
        0x000020ee:    f7fef93f    ..?.    BL       __aeabi_dadd ; 0x370
        0x000020f2:    f7fefc89    ....    BL       __aeabi_d2iz ; 0xa08
        0x000020f6:    4606        .F      MOV      r6,r0
        0x000020f8:    f7fefc72    ..r.    BL       __aeabi_i2d ; 0x9e0
        0x000020fc:    4607        .F      MOV      r7,r0
        0x000020fe:    4a5e        ^J      LDR      r2,[pc,#376] ; [0x2278] = 0xfee00000
        0x00002100:    4b5e        ^K      LDR      r3,[pc,#376] ; [0x227c] = 0x3fe62e42
        0x00002102:    9100        ..      STR      r1,[sp,#0]
        0x00002104:    f7fef9e6    ....    BL       __aeabi_dmul ; 0x4d4
        0x00002108:    462a        *F      MOV      r2,r5
        0x0000210a:    4623        #F      MOV      r3,r4
        0x0000210c:    f7fef9da    ....    BL       __aeabi_drsub ; 0x4c4
        0x00002110:    9103        ..      STR      r1,[sp,#0xc]
        0x00002112:    9002        ..      STR      r0,[sp,#8]
        0x00002114:    4a5a        ZJ      LDR      r2,[pc,#360] ; [0x2280] = 0x35793c76
        0x00002116:    4b5b        [K      LDR      r3,[pc,#364] ; [0x2284] = 0x3dea39ef
        0x00002118:    4638        8F      MOV      r0,r7
        0x0000211a:    9900        ..      LDR      r1,[sp,#0]
        0x0000211c:    f7fef9da    ....    BL       __aeabi_dmul ; 0x4d4
        0x00002120:    9101        ..      STR      r1,[sp,#4]
        0x00002122:    9000        ..      STR      r0,[sp,#0]
        0x00002124:    460b        .F      MOV      r3,r1
        0x00002126:    9a00        ..      LDR      r2,[sp,#0]
        0x00002128:    9903        ..      LDR      r1,[sp,#0xc]
        0x0000212a:    9802        ..      LDR      r0,[sp,#8]
        0x0000212c:    f7fef9c4    ....    BL       __aeabi_dsub ; 0x4b8
        0x00002130:    4605        .F      MOV      r5,r0
        0x00002132:    460c        .F      MOV      r4,r1
        0x00002134:    e017        ..      B        0x2166 ; exp + 318
        0x00002136:    4854        TH      LDR      r0,[pc,#336] ; [0x2288] = 0x3e300000
        0x00002138:    4286        .B      CMP      r6,r0
        0x0000213a:    d213        ..      BCS      0x2164 ; exp + 316
        0x0000213c:    4a53        SJ      LDR      r2,[pc,#332] ; [0x228c] = 0x8800759c
        0x0000213e:    4b54        TK      LDR      r3,[pc,#336] ; [0x2290] = 0x7e37e43c
        0x00002140:    4628        (F      MOV      r0,r5
        0x00002142:    4621        !F      MOV      r1,r4
        0x00002144:    f7fef914    ....    BL       __aeabi_dadd ; 0x370
        0x00002148:    4e52        RN      LDR      r6,[pc,#328] ; [0x2294] = 0x3ff00000
        0x0000214a:    2200        ."      MOVS     r2,#0
        0x0000214c:    4633        3F      MOV      r3,r6
        0x0000214e:    f7fefcb3    ....    BL       __aeabi_cdrcmple ; 0xab8
        0x00002152:    d207        ..      BCS      0x2164 ; exp + 316
        0x00002154:    2200        ."      MOVS     r2,#0
        0x00002156:    4633        3F      MOV      r3,r6
        0x00002158:    4628        (F      MOV      r0,r5
        0x0000215a:    4621        !F      MOV      r1,r4
        0x0000215c:    f7fef908    ....    BL       __aeabi_dadd ; 0x370
        0x00002160:    b007        ..      ADD      sp,sp,#0x1c
        0x00002162:    bdf0        ..      POP      {r4-r7,pc}
        0x00002164:    2600        .&      MOVS     r6,#0
        0x00002166:    462a        *F      MOV      r2,r5
        0x00002168:    4623        #F      MOV      r3,r4
        0x0000216a:    4610        .F      MOV      r0,r2
        0x0000216c:    4619        .F      MOV      r1,r3
        0x0000216e:    f7fef9b1    ....    BL       __aeabi_dmul ; 0x4d4
        0x00002172:    4607        .F      MOV      r7,r0
        0x00002174:    4602        .F      MOV      r2,r0
        0x00002176:    4848        HH      LDR      r0,[pc,#288] ; [0x2298] = 0x1a0e
        0x00002178:    460b        .F      MOV      r3,r1
        0x0000217a:    9104        ..      STR      r1,[sp,#0x10]
        0x0000217c:    2105        .!      MOVS     r1,#5
        0x0000217e:    4478        xD      ADD      r0,r0,pc
        0x00002180:    f7fffa14    ....    BL       __kernel_poly ; 0x15ac
        0x00002184:    463a        :F      MOV      r2,r7
        0x00002186:    9b04        ..      LDR      r3,[sp,#0x10]
        0x00002188:    f7fef9a4    ....    BL       __aeabi_dmul ; 0x4d4
        0x0000218c:    462a        *F      MOV      r2,r5
        0x0000218e:    4623        #F      MOV      r3,r4
        0x00002190:    f7fef998    ....    BL       __aeabi_drsub ; 0x4c4
        0x00002194:    9106        ..      STR      r1,[sp,#0x18]
        0x00002196:    2101        .!      MOVS     r1,#1
        0x00002198:    0789        ..      LSLS     r1,r1,#30
        0x0000219a:    4607        .F      MOV      r7,r0
        0x0000219c:    2e00        ..      CMP      r6,#0
        0x0000219e:    d023        #.      BEQ      0x21e8 ; exp + 448
        0x000021a0:    4602        .F      MOV      r2,r0
        0x000021a2:    2000        .       MOVS     r0,#0
        0x000021a4:    9b06        ..      LDR      r3,[sp,#0x18]
        0x000021a6:    f7fef987    ....    BL       __aeabi_dsub ; 0x4b8
        0x000021aa:    9105        ..      STR      r1,[sp,#0x14]
        0x000021ac:    9004        ..      STR      r0,[sp,#0x10]
        0x000021ae:    463a        :F      MOV      r2,r7
        0x000021b0:    4628        (F      MOV      r0,r5
        0x000021b2:    4621        !F      MOV      r1,r4
        0x000021b4:    9b06        ..      LDR      r3,[sp,#0x18]
        0x000021b6:    f7fef98d    ....    BL       __aeabi_dmul ; 0x4d4
        0x000021ba:    9b05        ..      LDR      r3,[sp,#0x14]
        0x000021bc:    9a04        ..      LDR      r2,[sp,#0x10]
        0x000021be:    f7fef9f1    ....    BL       __aeabi_ddiv ; 0x5a4
        0x000021c2:    9b01        ..      LDR      r3,[sp,#4]
        0x000021c4:    9a00        ..      LDR      r2,[sp,#0]
        0x000021c6:    f7fef97d    ..}.    BL       __aeabi_drsub ; 0x4c4
        0x000021ca:    9b03        ..      LDR      r3,[sp,#0xc]
        0x000021cc:    9a02        ..      LDR      r2,[sp,#8]
        0x000021ce:    f7fef973    ..s.    BL       __aeabi_dsub ; 0x4b8
        0x000021d2:    2200        ."      MOVS     r2,#0
        0x000021d4:    4b2f        /K      LDR      r3,[pc,#188] ; [0x2294] = 0x3ff00000
        0x000021d6:    f7fef975    ..u.    BL       __aeabi_drsub ; 0x4c4
        0x000021da:    4a30        0J      LDR      r2,[pc,#192] ; [0x229c] = 0xfffffc03
        0x000021dc:    4296        .B      CMP      r6,r2
        0x000021de:    db1e        ..      BLT      0x221e ; exp + 502
        0x000021e0:    0532        2.      LSLS     r2,r6,#20
        0x000021e2:    1889        ..      ADDS     r1,r1,r2
        0x000021e4:    b007        ..      ADD      sp,sp,#0x1c
        0x000021e6:    bdf0        ..      POP      {r4-r7,pc}
        0x000021e8:    460b        .F      MOV      r3,r1
        0x000021ea:    2200        ."      MOVS     r2,#0
        0x000021ec:    9906        ..      LDR      r1,[sp,#0x18]
        0x000021ee:    f7fef963    ..c.    BL       __aeabi_dsub ; 0x4b8
        0x000021f2:    4606        .F      MOV      r6,r0
        0x000021f4:    9100        ..      STR      r1,[sp,#0]
        0x000021f6:    463a        :F      MOV      r2,r7
        0x000021f8:    4628        (F      MOV      r0,r5
        0x000021fa:    4621        !F      MOV      r1,r4
        0x000021fc:    9b06        ..      LDR      r3,[sp,#0x18]
        0x000021fe:    f7fef969    ..i.    BL       __aeabi_dmul ; 0x4d4
        0x00002202:    4632        2F      MOV      r2,r6
        0x00002204:    9b00        ..      LDR      r3,[sp,#0]
        0x00002206:    f7fef9cd    ....    BL       __aeabi_ddiv ; 0x5a4
        0x0000220a:    462a        *F      MOV      r2,r5
        0x0000220c:    4623        #F      MOV      r3,r4
        0x0000220e:    f7fef953    ..S.    BL       __aeabi_dsub ; 0x4b8
        0x00002212:    2200        ."      MOVS     r2,#0
        0x00002214:    4b1f        .K      LDR      r3,[pc,#124] ; [0x2294] = 0x3ff00000
        0x00002216:    f7fef955    ..U.    BL       __aeabi_drsub ; 0x4c4
        0x0000221a:    b007        ..      ADD      sp,sp,#0x1c
        0x0000221c:    bdf0        ..      POP      {r4-r7,pc}
        0x0000221e:    237d        }#      MOVS     r3,#0x7d
        0x00002220:    0532        2.      LSLS     r2,r6,#20
        0x00002222:    05db        ..      LSLS     r3,r3,#23
        0x00002224:    18d2        ..      ADDS     r2,r2,r3
        0x00002226:    1889        ..      ADDS     r1,r1,r2
        0x00002228:    4a1d        .J      LDR      r2,[pc,#116] ; [0x22a0] = 0xfffffc18
        0x0000222a:    f7fefa33    ..3.    BL       __ARM_scalbn ; 0x694
        0x0000222e:    460d        .F      MOV      r5,r1
        0x00002230:    4604        .F      MOV      r4,r0
        0x00002232:    f7fff9a5    ....    BL       __ARM_fpclassify ; 0x1580
        0x00002236:    2804        .(      CMP      r0,#4
        0x00002238:    d101        ..      BNE      0x223e ; exp + 534
        0x0000223a:    f7fffa33    ..3.    BL       __mathlib_dbl_underflow ; 0x16a4
        0x0000223e:    4620         F      MOV      r0,r4
        0x00002240:    4629        )F      MOV      r1,r5
        0x00002242:    b007        ..      ADD      sp,sp,#0x1c
        0x00002244:    bdf0        ..      POP      {r4-r7,pc}
    $d
        0x00002246:    0000        ..      DCW    0
        0x00002248:    40862e42    B..@    DCD    1082535490
        0x0000224c:    7ff00000    ....    DCD    2146435072
        0x00002250:    fefa39ef    .9..    DCD    4277811695
        0x00002254:    d52d3051    Q0-.    DCD    3576508497
        0x00002258:    c0874910    .I..    DCD    3230091536
        0x0000225c:    3fd62e42    B..?    DCD    1071001154
        0x00002260:    3ff0a2b2    ...?    DCD    1072734898
        0x00002264:    00001abe    ....    DCD    6846
        0x00002268:    00001ab8    ....    DCD    6840
        0x0000226c:    652b82fe    ..+e    DCD    1697350398
        0x00002270:    3ff71547    G..?    DCD    1073157447
        0x00002274:    00001a76    v...    DCD    6774
        0x00002278:    fee00000    ....    DCD    4276092928
        0x0000227c:    3fe62e42    B..?    DCD    1072049730
        0x00002280:    35793c76    v<y5    DCD    897137782
        0x00002284:    3dea39ef    .9.=    DCD    1038760431
        0x00002288:    3e300000    ..0>    DCD    1043333120
        0x0000228c:    8800759c    .u..    DCD    2281731484
        0x00002290:    7e37e43c    <.7~    DCD    2117592124
        0x00002294:    3ff00000    ...?    DCD    1072693248
        0x00002298:    00001a0e    ....    DCD    6670
        0x0000229c:    fffffc03    ....    DCD    4294966275
        0x000022a0:    fffffc18    ....    DCD    4294966296
    $t
    i.fputc
    fputc
        0x000022a4:    b500        ..      PUSH     {lr}
        0x000022a6:    4603        .F      MOV      r3,r0
        0x000022a8:    f7fff896    ....    BL       SendChar_ToUART ; 0x13d8
        0x000022ac:    4618        .F      MOV      r0,r3
        0x000022ae:    bd00        ..      POP      {pc}
    i.load_weight
    load_weight
        0x000022b0:    b5f8        ..      PUSH     {r3-r7,lr}
        0x000022b2:    a031        1.      ADR      r0,{pc}+0xc6 ; 0x2378
        0x000022b4:    f7fff93c    ..<.    BL       __0printf ; 0x1530
        0x000022b8:    a037        7.      ADR      r0,{pc}+0xe0 ; 0x2398
        0x000022ba:    f7fff939    ..9.    BL       __0printf ; 0x1530
        0x000022be:    4f37        7O      LDR      r7,[pc,#220] ; [0x239c] = 0x20000f08
        0x000022c0:    2500        .%      MOVS     r5,#0
        0x000022c2:    a035        5.      ADR      r0,{pc}+0xd6 ; 0x2398
        0x000022c4:    f7fff934    ..4.    BL       __0printf ; 0x1530
        0x000022c8:    4628        (F      MOV      r0,r5
        0x000022ca:    2128        (!      MOVS     r1,#0x28
        0x000022cc:    2400        .$      MOVS     r4,#0
        0x000022ce:    4348        HC      MULS     r0,r1,r0
        0x000022d0:    19c6        ..      ADDS     r6,r0,r7
        0x000022d2:    e001        ..      B        0x22d8 ; load_weight + 40
        0x000022d4:    2c09        .,      CMP      r4,#9
        0x000022d6:    d007        ..      BEQ      0x22e8 ; load_weight + 56
        0x000022d8:    00a0        ..      LSLS     r0,r4,#2
        0x000022da:    5830        0X      LDR      r0,[r6,r0]
        0x000022dc:    f7fefa02    ....    BL       __aeabi_f2d ; 0x6e4
        0x000022e0:    4602        .F      MOV      r2,r0
        0x000022e2:    460b        .F      MOV      r3,r1
        0x000022e4:    a02e        ..      ADR      r0,{pc}+0xbc ; 0x23a0
        0x000022e6:    e005        ..      B        0x22f4 ; load_weight + 68
        0x000022e8:    6a70        pj      LDR      r0,[r6,#0x24]
        0x000022ea:    f7fef9fb    ....    BL       __aeabi_f2d ; 0x6e4
        0x000022ee:    4602        .F      MOV      r2,r0
        0x000022f0:    460b        .F      MOV      r3,r1
        0x000022f2:    a02c        ,.      ADR      r0,{pc}+0xb2 ; 0x23a4
        0x000022f4:    f7fff91c    ....    BL       __0printf ; 0x1530
        0x000022f8:    1c64        d.      ADDS     r4,r4,#1
        0x000022fa:    2c0a        .,      CMP      r4,#0xa
        0x000022fc:    dbea        ..      BLT      0x22d4 ; load_weight + 36
        0x000022fe:    2d03        .-      CMP      r5,#3
        0x00002300:    d001        ..      BEQ      0x2306 ; load_weight + 86
        0x00002302:    a029        ).      ADR      r0,{pc}+0xa6 ; 0x23a8
        0x00002304:    e000        ..      B        0x2308 ; load_weight + 88
        0x00002306:    a029        ).      ADR      r0,{pc}+0xa6 ; 0x23ac
        0x00002308:    f7fff912    ....    BL       __0printf ; 0x1530
        0x0000230c:    1c6d        m.      ADDS     r5,r5,#1
        0x0000230e:    2d03        .-      CMP      r5,#3
        0x00002310:    ddd7        ..      BLE      0x22c2 ; load_weight + 18
        0x00002312:    a027        '.      ADR      r0,{pc}+0x9e ; 0x23b0
        0x00002314:    f7fff90c    ....    BL       __0printf ; 0x1530
        0x00002318:    a026        &.      ADR      r0,{pc}+0x9c ; 0x23b4
        0x0000231a:    f7fff909    ....    BL       __0printf ; 0x1530
        0x0000231e:    4f1f        .O      LDR      r7,[pc,#124] ; [0x239c] = 0x20000f08
        0x00002320:    2500        .%      MOVS     r5,#0
        0x00002322:    37a0        .7      ADDS     r7,r7,#0xa0
        0x00002324:    a01c        ..      ADR      r0,{pc}+0x74 ; 0x2398
        0x00002326:    f7fff903    ....    BL       __0printf ; 0x1530
        0x0000232a:    2400        .$      MOVS     r4,#0
        0x0000232c:    0128        (.      LSLS     r0,r5,#4
        0x0000232e:    19c6        ..      ADDS     r6,r0,r7
        0x00002330:    e001        ..      B        0x2336 ; load_weight + 134
        0x00002332:    2c03        .,      CMP      r4,#3
        0x00002334:    d007        ..      BEQ      0x2346 ; load_weight + 150
        0x00002336:    00a0        ..      LSLS     r0,r4,#2
        0x00002338:    5830        0X      LDR      r0,[r6,r0]
        0x0000233a:    f7fef9d3    ....    BL       __aeabi_f2d ; 0x6e4
        0x0000233e:    4602        .F      MOV      r2,r0
        0x00002340:    460b        .F      MOV      r3,r1
        0x00002342:    a017        ..      ADR      r0,{pc}+0x5e ; 0x23a0
        0x00002344:    e005        ..      B        0x2352 ; load_weight + 162
        0x00002346:    68f0        .h      LDR      r0,[r6,#0xc]
        0x00002348:    f7fef9cc    ....    BL       __aeabi_f2d ; 0x6e4
        0x0000234c:    4602        .F      MOV      r2,r0
        0x0000234e:    460b        .F      MOV      r3,r1
        0x00002350:    a014        ..      ADR      r0,{pc}+0x54 ; 0x23a4
        0x00002352:    f7fff8ed    ....    BL       __0printf ; 0x1530
        0x00002356:    1c64        d.      ADDS     r4,r4,#1
        0x00002358:    2c04        .,      CMP      r4,#4
        0x0000235a:    dbea        ..      BLT      0x2332 ; load_weight + 130
        0x0000235c:    2d0a        .-      CMP      r5,#0xa
        0x0000235e:    d001        ..      BEQ      0x2364 ; load_weight + 180
        0x00002360:    a011        ..      ADR      r0,{pc}+0x48 ; 0x23a8
        0x00002362:    e000        ..      B        0x2366 ; load_weight + 182
        0x00002364:    a011        ..      ADR      r0,{pc}+0x48 ; 0x23ac
        0x00002366:    f7fff8e3    ....    BL       __0printf ; 0x1530
        0x0000236a:    1c6d        m.      ADDS     r5,r5,#1
        0x0000236c:    2d0a        .-      CMP      r5,#0xa
        0x0000236e:    ddd9        ..      BLE      0x2324 ; load_weight + 116
        0x00002370:    a00f        ..      ADR      r0,{pc}+0x40 ; 0x23b0
        0x00002372:    f7fff8dd    ....    BL       __0printf ; 0x1530
        0x00002376:    bdf8        ..      POP      {r3-r7,pc}
    $d
        0x00002378:    3d3d3d0a    .===    DCD    1027423498
        0x0000237c:    3d3d3d3d    ====    DCD    1027423549
        0x00002380:    64646948    Hidd    DCD    1684302152
        0x00002384:    57206e65    en W    DCD    1461743205
        0x00002388:    68676965    eigh    DCD    1751607653
        0x0000238c:    3d3d3d74    t===    DCD    1027423604
        0x00002390:    3d3d3d3d    ====    DCD    1027423549
        0x00002394:    0000000a    ....    DCD    10
        0x00002398:    0000007b    {...    DCD    123
        0x0000239c:    20000f08    ...     DCD    536874760
        0x000023a0:    002c6625    %f,.    DCD    2909733
        0x000023a4:    00006625    %f..    DCD    26149
        0x000023a8:    000a2c7d    },..    DCD    666749
        0x000023ac:    0000007d    }...    DCD    125
        0x000023b0:    00000a7d    }...    DCD    2685
        0x000023b4:    3d3d3d0a    .===    DCD    1027423498
        0x000023b8:    3d3d3d3d    ====    DCD    1027423549
        0x000023bc:    7074754f    Outp    DCD    1886680399
        0x000023c0:    57207475    ut W    DCD    1461744757
        0x000023c4:    68676965    eigh    DCD    1751607653
        0x000023c8:    3d3d3d74    t===    DCD    1027423604
        0x000023cc:    3d3d3d3d    ====    DCD    1027423549
        0x000023d0:    0000000a    ....    DCD    10
    $t
    i.main
    main
        0x000023d4:    b5f0        ..      PUSH     {r4-r7,lr}
        0x000023d6:    2159        Y!      MOVS     r1,#0x59
        0x000023d8:    2016        .       MOVS     r0,#0x16
        0x000023da:    b087        ..      SUB      sp,sp,#0x1c
        0x000023dc:    4cf3        .L      LDR      r4,[pc,#972] ; [0x27ac] = 0x50000100
        0x000023de:    2288        ."      MOVS     r2,#0x88
        0x000023e0:    e002        ..      B        0x23e8 ; main + 20
        0x000023e2:    6021        !`      STR      r1,[r4,#0]
        0x000023e4:    6020         `      STR      r0,[r4,#0]
        0x000023e6:    6022        "`      STR      r2,[r4,#0]
        0x000023e8:    6823        #h      LDR      r3,[r4,#0]
        0x000023ea:    2b01        .+      CMP      r3,#1
        0x000023ec:    d1f9        ..      BNE      0x23e2 ; main + 14
        0x000023ee:    f7feff97    ....    BL       SYS_Init ; 0x1320
        0x000023f2:    2600        .&      MOVS     r6,#0
        0x000023f4:    6026        &`      STR      r6,[r4,#0]
        0x000023f6:    f7fff849    ..I.    BL       UART0_Init ; 0x148c
        0x000023fa:    2201        ."      MOVS     r2,#1
        0x000023fc:    2104        .!      MOVS     r1,#4
        0x000023fe:    48ec        .H      LDR      r0,[pc,#944] ; [0x27b0] = 0x50004040
        0x00002400:    f7fefea6    ....    BL       GPIO_SetMode ; 0x1150
        0x00002404:    48eb        .H      LDR      r0,[pc,#940] ; [0x27b4] = 0x50004240
        0x00002406:    6086        .`      STR      r6,[r0,#8]
        0x00002408:    48eb        .H      LDR      r0,[pc,#940] ; [0x27b8] = 0x3c48
        0x0000240a:    f7fff891    ....    BL       __0printf ; 0x1530
        0x0000240e:    48eb        .H      LDR      r0,[pc,#940] ; [0x27bc] = 0x3ce0
        0x00002410:    f7fff88e    ....    BL       __0printf ; 0x1530
        0x00002414:    48ea        .H      LDR      r0,[pc,#936] ; [0x27c0] = 0x3c94
        0x00002416:    f7fff88b    ....    BL       __0printf ; 0x1530
        0x0000241a:    48ea        .H      LDR      r0,[pc,#936] ; [0x27c4] = 0x20000000
        0x0000241c:    6801        .h      LDR      r1,[r0,#0]
        0x0000241e:    a0ea        ..      ADR      r0,{pc}+0x3aa ; 0x27c8
        0x00002420:    f7fff886    ....    BL       __0printf ; 0x1530
        0x00002424:    a0ef        ..      ADR      r0,{pc}+0x3c0 ; 0x27e4
        0x00002426:    f7fff883    ....    BL       __0printf ; 0x1530
        0x0000242a:    f7fffdb1    ....    BL       data_setup ; 0x1f90
        0x0000242e:    2800        .(      CMP      r0,#0
        0x00002430:    d005        ..      BEQ      0x243e ; main + 106
        0x00002432:    a0f5        ..      ADR      r0,{pc}+0x3d6 ; 0x2808
        0x00002434:    f7fff87c    ..|.    BL       __0printf ; 0x1530
        0x00002438:    2000        .       MOVS     r0,#0
        0x0000243a:    b007        ..      ADD      sp,sp,#0x1c
        0x0000243c:    bdf0        ..      POP      {r4-r7,pc}
        0x0000243e:    a0fa        ..      ADR      r0,{pc}+0x3ea ; 0x2828
        0x00002440:    f7fff876    ..v.    BL       __0printf ; 0x1530
        0x00002444:    a0fa        ..      ADR      r0,{pc}+0x3ec ; 0x2830
        0x00002446:    f7fff873    ..s.    BL       __0printf ; 0x1530
        0x0000244a:    2500        .%      MOVS     r5,#0
        0x0000244c:    2400        .$      MOVS     r4,#0
        0x0000244e:    00ae        ..      LSLS     r6,r5,#2
        0x00002450:    2128        (!      MOVS     r1,#0x28
        0x00002452:    4627        'F      MOV      r7,r4
        0x00002454:    434f        OC      MULS     r7,r1,r7
        0x00002456:    49ff        .I      LDR      r1,[pc,#1020] ; [0x2854] = 0x20001090
        0x00002458:    2000        .       MOVS     r0,#0
        0x0000245a:    1879        y.      ADDS     r1,r7,r1
        0x0000245c:    5188        .Q      STR      r0,[r1,r6]
        0x0000245e:    f7fdfe97    ....    BL       rand ; 0x190
        0x00002462:    2164        d!      MOVS     r1,#0x64
        0x00002464:    f7fdfe80    ....    BL       __aeabi_idiv ; 0x168
        0x00002468:    4608        .F      MOV      r0,r1
        0x0000246a:    f7fef929    ..).    BL       __aeabi_i2f ; 0x6c0
        0x0000246e:    49fa        .I      LDR      r1,[pc,#1000] ; [0x2858] = 0x42c80000
        0x00002470:    f7fdff3f    ..?.    BL       __aeabi_fdiv ; 0x2f2
        0x00002474:    49f9        .I      LDR      r1,[pc,#996] ; [0x285c] = 0x2000002c
        0x00002476:    6088        .`      STR      r0,[r1,#8]
        0x00002478:    f7fef934    ..4.    BL       __aeabi_f2d ; 0x6e4
        0x0000247c:    2200        ."      MOVS     r2,#0
        0x0000247e:    4bf8        .K      LDR      r3,[pc,#992] ; [0x2860] = 0x3fe00000
        0x00002480:    f7fef81a    ....    BL       __aeabi_dsub ; 0x4b8
        0x00002484:    2201        ."      MOVS     r2,#1
        0x00002486:    f7fef905    ....    BL       __ARM_scalbn ; 0x694
        0x0000248a:    2200        ."      MOVS     r2,#0
        0x0000248c:    43d2        .C      MVNS     r2,r2
        0x0000248e:    f7fef901    ....    BL       __ARM_scalbn ; 0x694
        0x00002492:    f7fef93b    ..;.    BL       __aeabi_d2f ; 0x70c
        0x00002496:    49f3        .I      LDR      r1,[pc,#972] ; [0x2864] = 0x20000f08
        0x00002498:    1c64        d.      ADDS     r4,r4,#1
        0x0000249a:    1879        y.      ADDS     r1,r7,r1
        0x0000249c:    5188        .Q      STR      r0,[r1,r6]
        0x0000249e:    2c03        .,      CMP      r4,#3
        0x000024a0:    ddd6        ..      BLE      0x2450 ; main + 124
        0x000024a2:    1c6d        m.      ADDS     r5,r5,#1
        0x000024a4:    2d0a        .-      CMP      r5,#0xa
        0x000024a6:    dbd1        ..      BLT      0x244c ; main + 120
        0x000024a8:    2500        .%      MOVS     r5,#0
        0x000024aa:    2400        .$      MOVS     r4,#0
        0x000024ac:    00ae        ..      LSLS     r6,r5,#2
        0x000024ae:    49e9        .I      LDR      r1,[pc,#932] ; [0x2854] = 0x20001090
        0x000024b0:    0127        '.      LSLS     r7,r4,#4
        0x000024b2:    31a0        .1      ADDS     r1,r1,#0xa0
        0x000024b4:    2000        .       MOVS     r0,#0
        0x000024b6:    1879        y.      ADDS     r1,r7,r1
        0x000024b8:    5188        .Q      STR      r0,[r1,r6]
        0x000024ba:    f7fdfe69    ..i.    BL       rand ; 0x190
        0x000024be:    2164        d!      MOVS     r1,#0x64
        0x000024c0:    f7fdfe52    ..R.    BL       __aeabi_idiv ; 0x168
        0x000024c4:    4608        .F      MOV      r0,r1
        0x000024c6:    f7fef8fb    ....    BL       __aeabi_i2f ; 0x6c0
        0x000024ca:    49e3        .I      LDR      r1,[pc,#908] ; [0x2858] = 0x42c80000
        0x000024cc:    f7fdff11    ....    BL       __aeabi_fdiv ; 0x2f2
        0x000024d0:    4601        .F      MOV      r1,r0
        0x000024d2:    48e2        .H      LDR      r0,[pc,#904] ; [0x285c] = 0x2000002c
        0x000024d4:    6081        .`      STR      r1,[r0,#8]
        0x000024d6:    4608        .F      MOV      r0,r1
        0x000024d8:    f7fef904    ....    BL       __aeabi_f2d ; 0x6e4
        0x000024dc:    2200        ."      MOVS     r2,#0
        0x000024de:    4be0        .K      LDR      r3,[pc,#896] ; [0x2860] = 0x3fe00000
        0x000024e0:    f7fdffea    ....    BL       __aeabi_dsub ; 0x4b8
        0x000024e4:    2201        ."      MOVS     r2,#1
        0x000024e6:    f7fef8d5    ....    BL       __ARM_scalbn ; 0x694
        0x000024ea:    2200        ."      MOVS     r2,#0
        0x000024ec:    43d2        .C      MVNS     r2,r2
        0x000024ee:    f7fef8d1    ....    BL       __ARM_scalbn ; 0x694
        0x000024f2:    f7fef90b    ....    BL       __aeabi_d2f ; 0x70c
        0x000024f6:    49db        .I      LDR      r1,[pc,#876] ; [0x2864] = 0x20000f08
        0x000024f8:    1c64        d.      ADDS     r4,r4,#1
        0x000024fa:    31a0        .1      ADDS     r1,r1,#0xa0
        0x000024fc:    1879        y.      ADDS     r1,r7,r1
        0x000024fe:    5188        .Q      STR      r0,[r1,r6]
        0x00002500:    2c0a        .,      CMP      r4,#0xa
        0x00002502:    ddd4        ..      BLE      0x24ae ; main + 218
        0x00002504:    1c6d        m.      ADDS     r5,r5,#1
        0x00002506:    2d04        .-      CMP      r5,#4
        0x00002508:    dbcf        ..      BLT      0x24aa ; main + 214
        0x0000250a:    48d4        .H      LDR      r0,[pc,#848] ; [0x285c] = 0x2000002c
        0x0000250c:    2101        .!      MOVS     r1,#1
        0x0000250e:    6041        A`      STR      r1,[r0,#4]
        0x00002510:    2000        .       MOVS     r0,#0
        0x00002512:    4ed2        .N      LDR      r6,[pc,#840] ; [0x285c] = 0x2000002c
        0x00002514:    4604        .F      MOV      r4,r0
        0x00002516:    4dd4        .M      LDR      r5,[pc,#848] ; [0x2868] = 0x20000d90
        0x00002518:    60f0        .`      STR      r0,[r6,#0xc]
        0x0000251a:    f7fdfe39    ..9.    BL       rand ; 0x190
        0x0000251e:    2150        P!      MOVS     r1,#0x50
        0x00002520:    f7fdfe22    ..".    BL       __aeabi_idiv ; 0x168
        0x00002524:    00a2        ..      LSLS     r2,r4,#2
        0x00002526:    0089        ..      LSLS     r1,r1,#2
        0x00002528:    58a8        .X      LDR      r0,[r5,r2]
        0x0000252a:    586b        kX      LDR      r3,[r5,r1]
        0x0000252c:    50ab        .P      STR      r3,[r5,r2]
        0x0000252e:    1c64        d.      ADDS     r4,r4,#1
        0x00002530:    5068        hP      STR      r0,[r5,r1]
        0x00002532:    2c50        P,      CMP      r4,#0x50
        0x00002534:    dbf1        ..      BLT      0x251a ; main + 326
        0x00002536:    2700        .'      MOVS     r7,#0
        0x00002538:    48cb        .H      LDR      r0,[pc,#812] ; [0x2868] = 0x20000d90
        0x0000253a:    00b9        ..      LSLS     r1,r7,#2
        0x0000253c:    5840        @X      LDR      r0,[r0,r1]
        0x0000253e:    210c        .!      MOVS     r1,#0xc
        0x00002540:    9004        ..      STR      r0,[sp,#0x10]
        0x00002542:    4348        HC      MULS     r0,r1,r0
        0x00002544:    49c5        .I      LDR      r1,[pc,#788] ; [0x285c] = 0x2000002c
        0x00002546:    2400        .$      MOVS     r4,#0
        0x00002548:    3120         1      ADDS     r1,r1,#0x20
        0x0000254a:    1840        @.      ADDS     r0,r0,r1
        0x0000254c:    9003        ..      STR      r0,[sp,#0xc]
        0x0000254e:    48c5        .H      LDR      r0,[pc,#788] ; [0x2864] = 0x20000f08
        0x00002550:    00a5        ..      LSLS     r5,r4,#2
        0x00002552:    1829        ).      ADDS     r1,r5,r0
        0x00002554:    6f8a        .o      LDR      r2,[r1,#0x78]
        0x00002556:    49c1        .I      LDR      r1,[pc,#772] ; [0x285c] = 0x2000002c
        0x00002558:    2600        .&      MOVS     r6,#0
        0x0000255a:    610a        .a      STR      r2,[r1,#0x10]
        0x0000255c:    2028        (       MOVS     r0,#0x28
        0x0000255e:    49c1        .I      LDR      r1,[pc,#772] ; [0x2864] = 0x20000f08
        0x00002560:    4370        pC      MULS     r0,r6,r0
        0x00002562:    1840        @.      ADDS     r0,r0,r1
        0x00002564:    5941        AY      LDR      r1,[r0,r5]
        0x00002566:    9803        ..      LDR      r0,[sp,#0xc]
        0x00002568:    00b2        ..      LSLS     r2,r6,#2
        0x0000256a:    5880        .X      LDR      r0,[r0,r2]
        0x0000256c:    f7fdfe84    ....    BL       __aeabi_fmul ; 0x278
        0x00002570:    49ba        .I      LDR      r1,[pc,#744] ; [0x285c] = 0x2000002c
        0x00002572:    6909        .i      LDR      r1,[r1,#0x10]
        0x00002574:    f7fdfe27    ..'.    BL       __aeabi_fadd ; 0x1c6
        0x00002578:    49b8        .I      LDR      r1,[pc,#736] ; [0x285c] = 0x2000002c
        0x0000257a:    1c76        v.      ADDS     r6,r6,#1
        0x0000257c:    6108        .a      STR      r0,[r1,#0x10]
        0x0000257e:    2e03        ..      CMP      r6,#3
        0x00002580:    dbec        ..      BLT      0x255c ; main + 392
        0x00002582:    4608        .F      MOV      r0,r1
        0x00002584:    6900        .i      LDR      r0,[r0,#0x10]
        0x00002586:    2101        .!      MOVS     r1,#1
        0x00002588:    07c9        ..      LSLS     r1,r1,#31
        0x0000258a:    4048        H@      EORS     r0,r0,r1
        0x0000258c:    f7fef8aa    ....    BL       __aeabi_f2d ; 0x6e4
        0x00002590:    f7fffd4a    ..J.    BL       exp ; 0x2028
        0x00002594:    2200        ."      MOVS     r2,#0
        0x00002596:    4bb5        .K      LDR      r3,[pc,#724] ; [0x286c] = 0x3ff00000
        0x00002598:    f7fdfeea    ....    BL       __aeabi_dadd ; 0x370
        0x0000259c:    4602        .F      MOV      r2,r0
        0x0000259e:    460b        .F      MOV      r3,r1
        0x000025a0:    2000        .       MOVS     r0,#0
        0x000025a2:    49b2        .I      LDR      r1,[pc,#712] ; [0x286c] = 0x3ff00000
        0x000025a4:    f7fdfffe    ....    BL       __aeabi_ddiv ; 0x5a4
        0x000025a8:    f7fef8b0    ....    BL       __aeabi_d2f ; 0x70c
        0x000025ac:    49ad        .I      LDR      r1,[pc,#692] ; [0x2864] = 0x20000f08
        0x000025ae:    1c64        d.      ADDS     r4,r4,#1
        0x000025b0:    3938        89      SUBS     r1,r1,#0x38
        0x000025b2:    5148        HQ      STR      r0,[r1,r5]
        0x000025b4:    2c0a        .,      CMP      r4,#0xa
        0x000025b6:    dbca        ..      BLT      0x254e ; main + 378
        0x000025b8:    2500        .%      MOVS     r5,#0
        0x000025ba:    48aa        .H      LDR      r0,[pc,#680] ; [0x2864] = 0x20000f08
        0x000025bc:    00ac        ..      LSLS     r4,r5,#2
        0x000025be:    30a0        .0      ADDS     r0,r0,#0xa0
        0x000025c0:    1821        !.      ADDS     r1,r4,r0
        0x000025c2:    3180        .1      ADDS     r1,r1,#0x80
        0x000025c4:    6a0a        .j      LDR      r2,[r1,#0x20]
        0x000025c6:    49a5        .I      LDR      r1,[pc,#660] ; [0x285c] = 0x2000002c
        0x000025c8:    2600        .&      MOVS     r6,#0
        0x000025ca:    610a        .a      STR      r2,[r1,#0x10]
        0x000025cc:    48a5        .H      LDR      r0,[pc,#660] ; [0x2864] = 0x20000f08
        0x000025ce:    0131        1.      LSLS     r1,r6,#4
        0x000025d0:    30a0        .0      ADDS     r0,r0,#0xa0
        0x000025d2:    1808        ..      ADDS     r0,r1,r0
        0x000025d4:    5901        .Y      LDR      r1,[r0,r4]
        0x000025d6:    48a3        .H      LDR      r0,[pc,#652] ; [0x2864] = 0x20000f08
        0x000025d8:    00b2        ..      LSLS     r2,r6,#2
        0x000025da:    3838        88      SUBS     r0,r0,#0x38
        0x000025dc:    5880        .X      LDR      r0,[r0,r2]
        0x000025de:    f7fdfe4b    ..K.    BL       __aeabi_fmul ; 0x278
        0x000025e2:    499e        .I      LDR      r1,[pc,#632] ; [0x285c] = 0x2000002c
        0x000025e4:    6909        .i      LDR      r1,[r1,#0x10]
        0x000025e6:    f7fdfdee    ....    BL       __aeabi_fadd ; 0x1c6
        0x000025ea:    499c        .I      LDR      r1,[pc,#624] ; [0x285c] = 0x2000002c
        0x000025ec:    1c76        v.      ADDS     r6,r6,#1
        0x000025ee:    6108        .a      STR      r0,[r1,#0x10]
        0x000025f0:    2e0a        ..      CMP      r6,#0xa
        0x000025f2:    dbeb        ..      BLT      0x25cc ; main + 504
        0x000025f4:    4608        .F      MOV      r0,r1
        0x000025f6:    6900        .i      LDR      r0,[r0,#0x10]
        0x000025f8:    2101        .!      MOVS     r1,#1
        0x000025fa:    07c9        ..      LSLS     r1,r1,#31
        0x000025fc:    4048        H@      EORS     r0,r0,r1
        0x000025fe:    f7fef871    ..q.    BL       __aeabi_f2d ; 0x6e4
        0x00002602:    f7fffd11    ....    BL       exp ; 0x2028
        0x00002606:    2200        ."      MOVS     r2,#0
        0x00002608:    4b98        .K      LDR      r3,[pc,#608] ; [0x286c] = 0x3ff00000
        0x0000260a:    f7fdfeb1    ....    BL       __aeabi_dadd ; 0x370
        0x0000260e:    4602        .F      MOV      r2,r0
        0x00002610:    460b        .F      MOV      r3,r1
        0x00002612:    2000        .       MOVS     r0,#0
        0x00002614:    4995        .I      LDR      r1,[pc,#596] ; [0x286c] = 0x3ff00000
        0x00002616:    f7fdffc5    ....    BL       __aeabi_ddiv ; 0x5a4
        0x0000261a:    f7fef877    ..w.    BL       __aeabi_d2f ; 0x70c
        0x0000261e:    4991        .I      LDR      r1,[pc,#580] ; [0x2864] = 0x20000f08
        0x00002620:    3910        .9      SUBS     r1,r1,#0x10
        0x00002622:    5108        .Q      STR      r0,[r1,r4]
        0x00002624:    9002        ..      STR      r0,[sp,#8]
        0x00002626:    f7fef85d    ..].    BL       __aeabi_f2d ; 0x6e4
        0x0000262a:    2200        ."      MOVS     r2,#0
        0x0000262c:    4b8f        .K      LDR      r3,[pc,#572] ; [0x286c] = 0x3ff00000
        0x0000262e:    f7fdff49    ..I.    BL       __aeabi_drsub ; 0x4c4
        0x00002632:    9000        ..      STR      r0,[sp,#0]
        0x00002634:    9804        ..      LDR      r0,[sp,#0x10]
        0x00002636:    9101        ..      STR      r1,[sp,#4]
        0x00002638:    0101        ..      LSLS     r1,r0,#4
        0x0000263a:    488d        .H      LDR      r0,[pc,#564] ; [0x2870] = 0x2000040c
        0x0000263c:    1808        ..      ADDS     r0,r1,r0
        0x0000263e:    5900        .Y      LDR      r0,[r0,r4]
        0x00002640:    f7fef83e    ..>.    BL       __aeabi_i2f ; 0x6c0
        0x00002644:    9902        ..      LDR      r1,[sp,#8]
        0x00002646:    f7fdfe0f    ....    BL       __aeabi_fsub ; 0x268
        0x0000264a:    9005        ..      STR      r0,[sp,#0x14]
        0x0000264c:    9902        ..      LDR      r1,[sp,#8]
        0x0000264e:    f7fdfe13    ....    BL       __aeabi_fmul ; 0x278
        0x00002652:    f7fef847    ..G.    BL       __aeabi_f2d ; 0x6e4
        0x00002656:    9b01        ..      LDR      r3,[sp,#4]
        0x00002658:    9a00        ..      LDR      r2,[sp,#0]
        0x0000265a:    f7fdff3b    ..;.    BL       __aeabi_dmul ; 0x4d4
        0x0000265e:    f7fef855    ..U.    BL       __aeabi_d2f ; 0x70c
        0x00002662:    497c        |I      LDR      r1,[pc,#496] ; [0x2854] = 0x20001090
        0x00002664:    3910        .9      SUBS     r1,r1,#0x10
        0x00002666:    5108        .Q      STR      r0,[r1,r4]
        0x00002668:    9805        ..      LDR      r0,[sp,#0x14]
        0x0000266a:    f7fef83b    ..;.    BL       __aeabi_f2d ; 0x6e4
        0x0000266e:    2200        ."      MOVS     r2,#0
        0x00002670:    460e        .F      MOV      r6,r1
        0x00002672:    43d2        .C      MVNS     r2,r2
        0x00002674:    9000        ..      STR      r0,[sp,#0]
        0x00002676:    f7fef80d    ....    BL       __ARM_scalbn ; 0x694
        0x0000267a:    4633        3F      MOV      r3,r6
        0x0000267c:    9a00        ..      LDR      r2,[sp,#0]
        0x0000267e:    f7fdff29    ..).    BL       __aeabi_dmul ; 0x4d4
        0x00002682:    4606        .F      MOV      r6,r0
        0x00002684:    4875        uH      LDR      r0,[pc,#468] ; [0x285c] = 0x2000002c
        0x00002686:    9100        ..      STR      r1,[sp,#0]
        0x00002688:    68c0        .h      LDR      r0,[r0,#0xc]
        0x0000268a:    f7fef82b    ..+.    BL       __aeabi_f2d ; 0x6e4
        0x0000268e:    4632        2F      MOV      r2,r6
        0x00002690:    9b00        ..      LDR      r3,[sp,#0]
        0x00002692:    f7fdfe6d    ..m.    BL       __aeabi_dadd ; 0x370
        0x00002696:    f7fef839    ..9.    BL       __aeabi_d2f ; 0x70c
        0x0000269a:    4970        pI      LDR      r1,[pc,#448] ; [0x285c] = 0x2000002c
        0x0000269c:    1c6d        m.      ADDS     r5,r5,#1
        0x0000269e:    60c8        .`      STR      r0,[r1,#0xc]
        0x000026a0:    2d04        .-      CMP      r5,#4
        0x000026a2:    db8a        ..      BLT      0x25ba ; main + 486
        0x000026a4:    2400        .$      MOVS     r4,#0
        0x000026a6:    2000        .       MOVS     r0,#0
        0x000026a8:    4a6c        lJ      LDR      r2,[pc,#432] ; [0x285c] = 0x2000002c
        0x000026aa:    496e        nI      LDR      r1,[pc,#440] ; [0x2864] = 0x20000f08
        0x000026ac:    4605        .F      MOV      r5,r0
        0x000026ae:    6110        .a      STR      r0,[r2,#0x10]
        0x000026b0:    0120         .      LSLS     r0,r4,#4
        0x000026b2:    31a0        .1      ADDS     r1,r1,#0xa0
        0x000026b4:    1840        @.      ADDS     r0,r0,r1
        0x000026b6:    9000        ..      STR      r0,[sp,#0]
        0x000026b8:    9900        ..      LDR      r1,[sp,#0]
        0x000026ba:    00a8        ..      LSLS     r0,r5,#2
        0x000026bc:    580b        .X      LDR      r3,[r1,r0]
        0x000026be:    4965        eI      LDR      r1,[pc,#404] ; [0x2854] = 0x20001090
        0x000026c0:    3910        .9      SUBS     r1,r1,#0x10
        0x000026c2:    5809        .X      LDR      r1,[r1,r0]
        0x000026c4:    4618        .F      MOV      r0,r3
        0x000026c6:    f7fdfdd7    ....    BL       __aeabi_fmul ; 0x278
        0x000026ca:    4e64        dN      LDR      r6,[pc,#400] ; [0x285c] = 0x2000002c
        0x000026cc:    6931        1i      LDR      r1,[r6,#0x10]
        0x000026ce:    f7fdfd7a    ..z.    BL       __aeabi_fadd ; 0x1c6
        0x000026d2:    1c6d        m.      ADDS     r5,r5,#1
        0x000026d4:    6130        0a      STR      r0,[r6,#0x10]
        0x000026d6:    2d04        .-      CMP      r5,#4
        0x000026d8:    dbee        ..      BLT      0x26b8 ; main + 740
        0x000026da:    4862        bH      LDR      r0,[pc,#392] ; [0x2864] = 0x20000f08
        0x000026dc:    00a1        ..      LSLS     r1,r4,#2
        0x000026de:    3838        88      SUBS     r0,r0,#0x38
        0x000026e0:    9102        ..      STR      r1,[sp,#8]
        0x000026e2:    5845        EX      LDR      r5,[r0,r1]
        0x000026e4:    4628        (F      MOV      r0,r5
        0x000026e6:    f7fdfffd    ....    BL       __aeabi_f2d ; 0x6e4
        0x000026ea:    2200        ."      MOVS     r2,#0
        0x000026ec:    4b5f        _K      LDR      r3,[pc,#380] ; [0x286c] = 0x3ff00000
        0x000026ee:    f7fdfee9    ....    BL       __aeabi_drsub ; 0x4c4
        0x000026f2:    9101        ..      STR      r1,[sp,#4]
        0x000026f4:    9000        ..      STR      r0,[sp,#0]
        0x000026f6:    4630        0F      MOV      r0,r6
        0x000026f8:    4629        )F      MOV      r1,r5
        0x000026fa:    6900        .i      LDR      r0,[r0,#0x10]
        0x000026fc:    f7fdfdbc    ....    BL       __aeabi_fmul ; 0x278
        0x00002700:    f7fdfff0    ....    BL       __aeabi_f2d ; 0x6e4
        0x00002704:    9b01        ..      LDR      r3,[sp,#4]
        0x00002706:    9a00        ..      LDR      r2,[sp,#0]
        0x00002708:    f7fdfee4    ....    BL       __aeabi_dmul ; 0x4d4
        0x0000270c:    f7fdfffe    ....    BL       __aeabi_d2f ; 0x70c
        0x00002710:    4a50        PJ      LDR      r2,[pc,#320] ; [0x2854] = 0x20001090
        0x00002712:    9902        ..      LDR      r1,[sp,#8]
        0x00002714:    3a38        8:      SUBS     r2,r2,#0x38
        0x00002716:    1c64        d.      ADDS     r4,r4,#1
        0x00002718:    5050        PP      STR      r0,[r2,r1]
        0x0000271a:    2c0a        .,      CMP      r4,#0xa
        0x0000271c:    dbc3        ..      BLT      0x26a6 ; main + 722
        0x0000271e:    2600        .&      MOVS     r6,#0
        0x00002720:    484c        LH      LDR      r0,[pc,#304] ; [0x2854] = 0x20001090
        0x00002722:    00b5        ..      LSLS     r5,r6,#2
        0x00002724:    182c        ,.      ADDS     r4,r5,r0
        0x00002726:    4953        SI      LDR      r1,[pc,#332] ; [0x2874] = 0x3f666666
        0x00002728:    6fa0        .o      LDR      r0,[r4,#0x78]
        0x0000272a:    f7fdfda5    ....    BL       __aeabi_fmul ; 0x278
        0x0000272e:    9000        ..      STR      r0,[sp,#0]
        0x00002730:    4848        HH      LDR      r0,[pc,#288] ; [0x2854] = 0x20001090
        0x00002732:    4951        QI      LDR      r1,[pc,#324] ; [0x2878] = 0x3a83126f
        0x00002734:    3838        88      SUBS     r0,r0,#0x38
        0x00002736:    5940        @Y      LDR      r0,[r0,r5]
        0x00002738:    9002        ..      STR      r0,[sp,#8]
        0x0000273a:    f7fdfd9d    ....    BL       __aeabi_fmul ; 0x278
        0x0000273e:    9900        ..      LDR      r1,[sp,#0]
        0x00002740:    f7fdfd41    ..A.    BL       __aeabi_fadd ; 0x1c6
        0x00002744:    4601        .F      MOV      r1,r0
        0x00002746:    67a0        .g      STR      r0,[r4,#0x78]
        0x00002748:    4846        FH      LDR      r0,[pc,#280] ; [0x2864] = 0x20000f08
        0x0000274a:    182c        ,.      ADDS     r4,r5,r0
        0x0000274c:    6fa0        .o      LDR      r0,[r4,#0x78]
        0x0000274e:    f7fdfd3a    ..:.    BL       __aeabi_fadd ; 0x1c6
        0x00002752:    67a0        .g      STR      r0,[r4,#0x78]
        0x00002754:    2400        .$      MOVS     r4,#0
        0x00002756:    4620         F      MOV      r0,r4
        0x00002758:    2128        (!      MOVS     r1,#0x28
        0x0000275a:    4348        HC      MULS     r0,r1,r0
        0x0000275c:    493d        =I      LDR      r1,[pc,#244] ; [0x2854] = 0x20001090
        0x0000275e:    9001        ..      STR      r0,[sp,#4]
        0x00002760:    1842        B.      ADDS     r2,r0,r1
        0x00002762:    9200        ..      STR      r2,[sp,#0]
        0x00002764:    5950        PY      LDR      r0,[r2,r5]
        0x00002766:    4943        CI      LDR      r1,[pc,#268] ; [0x2874] = 0x3f666666
        0x00002768:    f7fdfd86    ....    BL       __aeabi_fmul ; 0x278
        0x0000276c:    9004        ..      STR      r0,[sp,#0x10]
        0x0000276e:    9803        ..      LDR      r0,[sp,#0xc]
        0x00002770:    00a1        ..      LSLS     r1,r4,#2
        0x00002772:    5840        @X      LDR      r0,[r0,r1]
        0x00002774:    4940        @I      LDR      r1,[pc,#256] ; [0x2878] = 0x3a83126f
        0x00002776:    f7fdfd7f    ....    BL       __aeabi_fmul ; 0x278
        0x0000277a:    9902        ..      LDR      r1,[sp,#8]
        0x0000277c:    f7fdfd7c    ..|.    BL       __aeabi_fmul ; 0x278
        0x00002780:    9904        ..      LDR      r1,[sp,#0x10]
        0x00002782:    f7fdfd20    .. .    BL       __aeabi_fadd ; 0x1c6
        0x00002786:    9a00        ..      LDR      r2,[sp,#0]
        0x00002788:    4601        .F      MOV      r1,r0
        0x0000278a:    5150        PQ      STR      r0,[r2,r5]
        0x0000278c:    4a35        5J      LDR      r2,[pc,#212] ; [0x2864] = 0x20000f08
        0x0000278e:    9801        ..      LDR      r0,[sp,#4]
        0x00002790:    1882        ..      ADDS     r2,r0,r2
        0x00002792:    9200        ..      STR      r2,[sp,#0]
        0x00002794:    5950        PY      LDR      r0,[r2,r5]
        0x00002796:    f7fdfd16    ....    BL       __aeabi_fadd ; 0x1c6
        0x0000279a:    9a00        ..      LDR      r2,[sp,#0]
        0x0000279c:    1c64        d.      ADDS     r4,r4,#1
        0x0000279e:    5150        PQ      STR      r0,[r2,r5]
        0x000027a0:    2c03        .,      CMP      r4,#3
        0x000027a2:    dbd8        ..      BLT      0x2756 ; main + 898
        0x000027a4:    1c76        v.      ADDS     r6,r6,#1
        0x000027a6:    2e0a        ..      CMP      r6,#0xa
        0x000027a8:    dbba        ..      BLT      0x2720 ; main + 844
        0x000027aa:    e067        g.      B        0x287c ; main + 1192
    $d
        0x000027ac:    50000100    ...P    DCD    1342177536
        0x000027b0:    50004040    @@.P    DCD    1342193728
        0x000027b4:    50004240    @B.P    DCD    1342194240
        0x000027b8:    00003c48    H<..    DCD    15432
        0x000027bc:    00003ce0    .<..    DCD    15584
        0x000027c0:    00003c94    .<..    DCD    15508
        0x000027c4:    20000000    ...     DCD    536870912
        0x000027c8:    74737953    Syst    DCD    1953724755
        0x000027cc:    63206d65    em c    DCD    1663069541
        0x000027d0:    6b636f6c    lock    DCD    1801678700
        0x000027d4:    74617220     rat    DCD    1952543264
        0x000027d8:    25203a65    e: %    DCD    622869093
        0x000027dc:    7a482064    d Hz    DCD    2051547236
        0x000027e0:    0000000a    ....    DCD    10
        0x000027e4:    68505b0a    .[Ph    DCD    1750096650
        0x000027e8:    20657361    ase     DCD    543519585
        0x000027ec:    49205d31    1] I    DCD    1226857777
        0x000027f0:    6974696e    niti    DCD    1769236846
        0x000027f4:    7a696c61    aliz    DCD    2053729377
        0x000027f8:    61442065    e Da    DCD    1631854693
        0x000027fc:    65536174    taSe    DCD    1699963252
        0x00002800:    2e2e2074    t ..    DCD    774774900
        0x00002804:    0000002e    ....    DCD    46
        0x00002808:    7272455b    [Err    DCD    1920091483
        0x0000280c:    205d726f    or]     DCD    542995055
        0x00002810:    61746144    Data    DCD    1635017028
        0x00002814:    73746573    sets    DCD    1937007987
        0x00002818:    74655320     Set    DCD    1952797472
        0x0000281c:    45207075    up E    DCD    1159753845
        0x00002820:    726f7272    rror    DCD    1919906418
        0x00002824:    0000000a    ....    DCD    10
        0x00002828:    656e6f44    Done    DCD    1701736260
        0x0000282c:    000a0a21    !...    DCD    657953
        0x00002830:    6168505b    [Pha    DCD    1634226267
        0x00002834:    32206573    se 2    DCD    840983923
        0x00002838:    7453205d    ] St    DCD    1951604829
        0x0000283c:    20747261    art     DCD    544502369
        0x00002840:    65646f4d    Mode    DCD    1701080909
        0x00002844:    7254206c    l Tr    DCD    1918115948
        0x00002848:    696e6961    aini    DCD    1768843617
        0x0000284c:    2e20676e    ng .    DCD    773875566
        0x00002850:    000a2e2e    ....    DCD    667182
        0x00002854:    20001090    ...     DCD    536875152
        0x00002858:    42c80000    ...B    DCD    1120403456
        0x0000285c:    2000002c    ,..     DCD    536870956
        0x00002860:    3fe00000    ...?    DCD    1071644672
        0x00002864:    20000f08    ...     DCD    536874760
        0x00002868:    20000d90    ...     DCD    536874384
        0x0000286c:    3ff00000    ...?    DCD    1072693248
        0x00002870:    2000040c    ...     DCD    536871948
        0x00002874:    3f666666    fff?    DCD    1063675494
        0x00002878:    3a83126f    o..:    DCD    981668463
    $t
        0x0000287c:    2600        .&      MOVS     r6,#0
        0x0000287e:    4850        PH      LDR      r0,[pc,#320] ; [0x29c0] = 0x20001130
        0x00002880:    00b5        ..      LSLS     r5,r6,#2
        0x00002882:    182c        ,.      ADDS     r4,r5,r0
        0x00002884:    3480        .4      ADDS     r4,r4,#0x80
        0x00002886:    494f        OI      LDR      r1,[pc,#316] ; [0x29c4] = 0x3f666666
        0x00002888:    6a20         j      LDR      r0,[r4,#0x20]
        0x0000288a:    f7fdfcf5    ....    BL       __aeabi_fmul ; 0x278
        0x0000288e:    9001        ..      STR      r0,[sp,#4]
        0x00002890:    484b        KH      LDR      r0,[pc,#300] ; [0x29c0] = 0x20001130
        0x00002892:    494d        MI      LDR      r1,[pc,#308] ; [0x29c8] = 0x3a83126f
        0x00002894:    38b0        .8      SUBS     r0,r0,#0xb0
        0x00002896:    5940        @Y      LDR      r0,[r0,r5]
        0x00002898:    9000        ..      STR      r0,[sp,#0]
        0x0000289a:    f7fdfced    ....    BL       __aeabi_fmul ; 0x278
        0x0000289e:    9901        ..      LDR      r1,[sp,#4]
        0x000028a0:    f7fdfc91    ....    BL       __aeabi_fadd ; 0x1c6
        0x000028a4:    4601        .F      MOV      r1,r0
        0x000028a6:    6220         b      STR      r0,[r4,#0x20]
        0x000028a8:    4848        HH      LDR      r0,[pc,#288] ; [0x29cc] = 0x20000fa8
        0x000028aa:    182c        ,.      ADDS     r4,r5,r0
        0x000028ac:    3480        .4      ADDS     r4,r4,#0x80
        0x000028ae:    6a20         j      LDR      r0,[r4,#0x20]
        0x000028b0:    f7fdfc89    ....    BL       __aeabi_fadd ; 0x1c6
        0x000028b4:    6220         b      STR      r0,[r4,#0x20]
        0x000028b6:    2400        .$      MOVS     r4,#0
        0x000028b8:    0120         .      LSLS     r0,r4,#4
        0x000028ba:    4941        AI      LDR      r1,[pc,#260] ; [0x29c0] = 0x20001130
        0x000028bc:    9002        ..      STR      r0,[sp,#8]
        0x000028be:    1841        A.      ADDS     r1,r0,r1
        0x000028c0:    9101        ..      STR      r1,[sp,#4]
        0x000028c2:    5948        HY      LDR      r0,[r1,r5]
        0x000028c4:    493f        ?I      LDR      r1,[pc,#252] ; [0x29c4] = 0x3f666666
        0x000028c6:    f7fdfcd7    ....    BL       __aeabi_fmul ; 0x278
        0x000028ca:    9003        ..      STR      r0,[sp,#0xc]
        0x000028cc:    483f        ?H      LDR      r0,[pc,#252] ; [0x29cc] = 0x20000fa8
        0x000028ce:    00a1        ..      LSLS     r1,r4,#2
        0x000028d0:    38d8        .8      SUBS     r0,r0,#0xd8
        0x000028d2:    5840        @X      LDR      r0,[r0,r1]
        0x000028d4:    493c        <I      LDR      r1,[pc,#240] ; [0x29c8] = 0x3a83126f
        0x000028d6:    f7fdfccf    ....    BL       __aeabi_fmul ; 0x278
        0x000028da:    9900        ..      LDR      r1,[sp,#0]
        0x000028dc:    f7fdfccc    ....    BL       __aeabi_fmul ; 0x278
        0x000028e0:    9903        ..      LDR      r1,[sp,#0xc]
        0x000028e2:    f7fdfc70    ..p.    BL       __aeabi_fadd ; 0x1c6
        0x000028e6:    9901        ..      LDR      r1,[sp,#4]
        0x000028e8:    4a38        8J      LDR      r2,[pc,#224] ; [0x29cc] = 0x20000fa8
        0x000028ea:    5148        HQ      STR      r0,[r1,r5]
        0x000028ec:    4601        .F      MOV      r1,r0
        0x000028ee:    9802        ..      LDR      r0,[sp,#8]
        0x000028f0:    1882        ..      ADDS     r2,r0,r2
        0x000028f2:    9201        ..      STR      r2,[sp,#4]
        0x000028f4:    5950        PY      LDR      r0,[r2,r5]
        0x000028f6:    f7fdfc66    ..f.    BL       __aeabi_fadd ; 0x1c6
        0x000028fa:    9a01        ..      LDR      r2,[sp,#4]
        0x000028fc:    1c64        d.      ADDS     r4,r4,#1
        0x000028fe:    5150        PQ      STR      r0,[r2,r5]
        0x00002900:    2c0a        .,      CMP      r4,#0xa
        0x00002902:    dbd9        ..      BLT      0x28b8 ; main + 1252
        0x00002904:    1c76        v.      ADDS     r6,r6,#1
        0x00002906:    2e04        ..      CMP      r6,#4
        0x00002908:    dbb9        ..      BLT      0x287e ; main + 1194
        0x0000290a:    1c7f        ..      ADDS     r7,r7,#1
        0x0000290c:    2f50        P/      CMP      r7,#0x50
        0x0000290e:    da00        ..      BGE      0x2912 ; main + 1342
        0x00002910:    e612        ..      B        0x2538 ; main + 356
        0x00002912:    f7fefc31    ..1.    BL       Get_Train_Accuracy ; 0x1178
        0x00002916:    4c2e        .L      LDR      r4,[pc,#184] ; [0x29d0] = 0x2000002c
        0x00002918:    4605        .F      MOV      r5,r0
        0x0000291a:    6820         h      LDR      r0,[r4,#0]
        0x0000291c:    1e40        @.      SUBS     r0,r0,#1
        0x0000291e:    6020         `      STR      r0,[r4,#0]
        0x00002920:    d11b        ..      BNE      0x295a ; main + 1414
        0x00002922:    a02c        ,.      ADR      r0,{pc}+0xb2 ; 0x29d4
        0x00002924:    6861        ah      LDR      r1,[r4,#4]
        0x00002926:    f7fefe03    ....    BL       __0printf ; 0x1530
        0x0000292a:    68e0        .h      LDR      r0,[r4,#0xc]
        0x0000292c:    f7fdfeda    ....    BL       __aeabi_f2d ; 0x6e4
        0x00002930:    4602        .F      MOV      r2,r0
        0x00002932:    460b        .F      MOV      r3,r1
        0x00002934:    a02d        -.      ADR      r0,{pc}+0xb8 ; 0x29ec
        0x00002936:    f7fefdfb    ....    BL       __0printf ; 0x1530
        0x0000293a:    4930        0I      LDR      r1,[pc,#192] ; [0x29fc] = 0x42c80000
        0x0000293c:    4628        (F      MOV      r0,r5
        0x0000293e:    f7fdfc9b    ....    BL       __aeabi_fmul ; 0x278
        0x00002942:    f7fdfecf    ....    BL       __aeabi_f2d ; 0x6e4
        0x00002946:    4602        .F      MOV      r2,r0
        0x00002948:    460b        .F      MOV      r3,r1
        0x0000294a:    a02d        -.      ADR      r0,{pc}+0xb6 ; 0x2a00
        0x0000294c:    f7fefdf0    ....    BL       __0printf ; 0x1530
        0x00002950:    6860        `h      LDR      r0,[r4,#4]
        0x00002952:    2801        .(      CMP      r0,#1
        0x00002954:    d031        1.      BEQ      0x29ba ; main + 1510
        0x00002956:    210a        .!      MOVS     r1,#0xa
        0x00002958:    6021        !`      STR      r1,[r4,#0]
        0x0000295a:    482f        /H      LDR      r0,[pc,#188] ; [0x2a18] = 0x3f7ae148
        0x0000295c:    4285        .B      CMP      r5,r0
        0x0000295e:    da06        ..      BGE      0x296e ; main + 1434
        0x00002960:    6860        `h      LDR      r0,[r4,#4]
        0x00002962:    492e        .I      LDR      r1,[pc,#184] ; [0x2a1c] = 0x7fffffff
        0x00002964:    1c40        @.      ADDS     r0,r0,#1
        0x00002966:    6060        ``      STR      r0,[r4,#4]
        0x00002968:    4288        .B      CMP      r0,r1
        0x0000296a:    d000        ..      BEQ      0x296e ; main + 1434
        0x0000296c:    e5d0        ..      B        0x2510 ; main + 316
        0x0000296e:    4c18        .L      LDR      r4,[pc,#96] ; [0x29d0] = 0x2000002c
        0x00002970:    a018        ..      ADR      r0,{pc}+0x64 ; 0x29d4
        0x00002972:    6861        ah      LDR      r1,[r4,#4]
        0x00002974:    f7fefddc    ....    BL       __0printf ; 0x1530
        0x00002978:    68e0        .h      LDR      r0,[r4,#0xc]
        0x0000297a:    f7fdfeb3    ....    BL       __aeabi_f2d ; 0x6e4
        0x0000297e:    4602        .F      MOV      r2,r0
        0x00002980:    460b        .F      MOV      r3,r1
        0x00002982:    a01a        ..      ADR      r0,{pc}+0x6a ; 0x29ec
        0x00002984:    f7fefdd4    ....    BL       __0printf ; 0x1530
        0x00002988:    f000fe90    ....    BL       run_train_data ; 0x36ac
        0x0000298c:    a024        $.      ADR      r0,{pc}+0x94 ; 0x2a20
        0x0000298e:    f7fefdcf    ....    BL       __0printf ; 0x1530
        0x00002992:    a029        ).      ADR      r0,{pc}+0xa6 ; 0x2a38
        0x00002994:    f7fefdcc    ....    BL       __0printf ; 0x1530
        0x00002998:    a02a        *.      ADR      r0,{pc}+0xac ; 0x2a44
        0x0000299a:    f7fefdc9    ....    BL       __0printf ; 0x1530
        0x0000299e:    f000fd81    ....    BL       run_test_data ; 0x34a4
        0x000029a2:    a025        %.      ADR      r0,{pc}+0x96 ; 0x2a38
        0x000029a4:    f7fefdc4    ....    BL       __0printf ; 0x1530
        0x000029a8:    2001        .       MOVS     r0,#1
        0x000029aa:    6020         `      STR      r0,[r4,#0]
        0x000029ac:    f7fffc80    ....    BL       load_weight ; 0x22b0
        0x000029b0:    a029        ).      ADR      r0,{pc}+0xa8 ; 0x2a58
        0x000029b2:    f7fefdbd    ....    BL       __0printf ; 0x1530
        0x000029b6:    f7fef8c7    ....    BL       AdcSingleCycleScanModeTest ; 0xb48
        0x000029ba:    2109        .!      MOVS     r1,#9
        0x000029bc:    e7cc        ..      B        0x2958 ; main + 1412
    $d
        0x000029be:    0000        ..      DCW    0
        0x000029c0:    20001130    0..     DCD    536875312
        0x000029c4:    3f666666    fff?    DCD    1063675494
        0x000029c8:    3a83126f    o..:    DCD    981668463
        0x000029cc:    20000fa8    ...     DCD    536874920
        0x000029d0:    2000002c    ,..     DCD    536870956
        0x000029d4:    6172540a    .Tra    DCD    1634882570
        0x000029d8:    6e696e69    inin    DCD    1852403305
        0x000029dc:    63794367    gCyc    DCD    1668891495
        0x000029e0:    203a656c    le:     DCD    540697964
        0x000029e4:    0a646c25    %ld.    DCD    174353445
        0x000029e8:    00000000    ....    DCD    0
        0x000029ec:    6f727245    Erro    DCD    1869771333
        0x000029f0:    203d2072    r =     DCD    540876914
        0x000029f4:    66352e25    %.5f    DCD    1714761253
        0x000029f8:    0000000a    ....    DCD    10
        0x000029fc:    42c80000    ...B    DCD    1120403456
        0x00002a00:    75636341    Accu    DCD    1969447745
        0x00002a04:    79636172    racy    DCD    2036556146
        0x00002a08:    25203d20     = %    DCD    622869792
        0x00002a0c:    2066322e    .2f     DCD    543568430
        0x00002a10:    3030312f    /100    DCD    808464687
        0x00002a14:    00000a20     ...    DCD    2592
        0x00002a18:    3f7ae148    H.z?    DCD    1065017672
        0x00002a1c:    7fffffff    ....    DCD    2147483647
        0x00002a20:    69617254    Trai    DCD    1767993940
        0x00002a24:    676e696e    ning    DCD    1735289198
        0x00002a28:    74655320     Set    DCD    1952797472
        0x00002a2c:    6c6f5320     Sol    DCD    1819235104
        0x00002a30:    21646576    ved!    DCD    560227702
        0x00002a34:    0000000a    ....    DCD    10
        0x00002a38:    2d2d2d2d    ----    DCD    757935405
        0x00002a3c:    2d2d2d2d    ----    DCD    757935405
        0x00002a40:    0000000a    ....    DCD    10
        0x00002a44:    74736554    Test    DCD    1953719636
        0x00002a48:    20676e69    ing     DCD    543649385
        0x00002a4c:    72617453    Star    DCD    1918989395
        0x00002a50:    200a2174    t!.     DCD    537534836
        0x00002a54:    00000000    ....    DCD    0
        0x00002a58:    646f4d0a    .Mod    DCD    1685015818
        0x00002a5c:    54206c65    el T    DCD    1411411045
        0x00002a60:    6e696172    rain    DCD    1852399986
        0x00002a64:    20676e69    ing     DCD    543649385
        0x00002a68:    73616850    Phas    DCD    1935763536
        0x00002a6c:    61682065    e ha    DCD    1634213989
        0x00002a70:    6e652073    s en    DCD    1852121203
        0x00002a74:    2e646564    ded.    DCD    778331492
        0x00002a78:    0000000a    ....    DCD    10
    $t
    i.normalize
    normalize
        0x00002a7c:    b5f8        ..      PUSH     {r3-r7,lr}
        0x00002a7e:    4f09        .O      LDR      r7,[pc,#36] ; [0x2aa4] = 0x20000d78
        0x00002a80:    4606        .F      MOV      r6,r0
        0x00002a82:    2400        .$      MOVS     r4,#0
        0x00002a84:    00a5        ..      LSLS     r5,r4,#2
        0x00002a86:    5979        yY      LDR      r1,[r7,r5]
        0x00002a88:    5970        pY      LDR      r0,[r6,r5]
        0x00002a8a:    f7fdfbed    ....    BL       __aeabi_fsub ; 0x268
        0x00002a8e:    4905        .I      LDR      r1,[pc,#20] ; [0x2aa4] = 0x20000d78
        0x00002a90:    310c        .1      ADDS     r1,r1,#0xc
        0x00002a92:    5949        IY      LDR      r1,[r1,r5]
        0x00002a94:    f7fdfc2d    ..-.    BL       __aeabi_fdiv ; 0x2f2
        0x00002a98:    1c64        d.      ADDS     r4,r4,#1
        0x00002a9a:    5170        pQ      STR      r0,[r6,r5]
        0x00002a9c:    2c03        .,      CMP      r4,#3
        0x00002a9e:    dbf1        ..      BLT      0x2a84 ; normalize + 8
        0x00002aa0:    bdf8        ..      POP      {r3-r7,pc}
    $d
        0x00002aa2:    0000        ..      DCW    0
        0x00002aa4:    20000d78    x..     DCD    536874360
    $t
    i.pow
    pow
        0x00002aa8:    b5f0        ..      PUSH     {r4-r7,lr}
        0x00002aaa:    b41f        ..      PUSH     {r0-r4}
        0x00002aac:    b096        ..      SUB      sp,sp,#0x58
        0x00002aae:    4684        .F      MOV      r12,r0
        0x00002ab0:    460c        .F      MOV      r4,r1
        0x00002ab2:    4602        .F      MOV      r2,r0
        0x00002ab4:    9d19        ..      LDR      r5,[sp,#0x64]
        0x00002ab6:    9818        ..      LDR      r0,[sp,#0x60]
        0x00002ab8:    9003        ..      STR      r0,[sp,#0xc]
        0x00002aba:    0049        I.      LSLS     r1,r1,#1
        0x00002abc:    0068        h.      LSLS     r0,r5,#1
        0x00002abe:    0063        c.      LSLS     r3,r4,#1
        0x00002ac0:    0849        I.      LSRS     r1,r1,#1
        0x00002ac2:    0840        @.      LSRS     r0,r0,#1
        0x00002ac4:    9301        ..      STR      r3,[sp,#4]
        0x00002ac6:    2a00        .*      CMP      r2,#0
        0x00002ac8:    d001        ..      BEQ      0x2ace ; pow + 38
        0x00002aca:    2601        .&      MOVS     r6,#1
        0x00002acc:    e000        ..      B        0x2ad0 ; pow + 40
        0x00002ace:    2600        .&      MOVS     r6,#0
        0x00002ad0:    199e        ..      ADDS     r6,r3,r6
        0x00002ad2:    4bfe        .K      LDR      r3,[pc,#1016] ; [0x2ecc] = 0x1fffff
        0x00002ad4:    18f6        ..      ADDS     r6,r6,r3
        0x00002ad6:    105b        [.      ASRS     r3,r3,#1
        0x00002ad8:    429e        .B      CMP      r6,r3
        0x00002ada:    d32b        +.      BCC      0x2b34 ; pow + 140
        0x00002adc:    006e        n.      LSLS     r6,r5,#1
        0x00002ade:    9f03        ..      LDR      r7,[sp,#0xc]
        0x00002ae0:    9602        ..      STR      r6,[sp,#8]
        0x00002ae2:    2f00        ./      CMP      r7,#0
        0x00002ae4:    d000        ..      BEQ      0x2ae8 ; pow + 64
        0x00002ae6:    2701        .'      MOVS     r7,#1
        0x00002ae8:    19f7        ..      ADDS     r7,r6,r7
        0x00002aea:    4ef8        .N      LDR      r6,[pc,#992] ; [0x2ecc] = 0x1fffff
        0x00002aec:    4bf8        .K      LDR      r3,[pc,#992] ; [0x2ed0] = 0xfffff
        0x00002aee:    19be        ..      ADDS     r6,r7,r6
        0x00002af0:    429e        .B      CMP      r6,r3
        0x00002af2:    d31f        ..      BCC      0x2b34 ; pow + 140
        0x00002af4:    9e03        ..      LDR      r6,[sp,#0xc]
        0x00002af6:    4603        .F      MOV      r3,r0
        0x00002af8:    4ff6        .O      LDR      r7,[pc,#984] ; [0x2ed4] = 0x3ff00000
        0x00002afa:    4333        3C      ORRS     r3,r3,r6
        0x00002afc:    d009        ..      BEQ      0x2b12 ; pow + 106
        0x00002afe:    463b        ;F      MOV      r3,r7
        0x00002b00:    429c        .B      CMP      r4,r3
        0x00002b02:    d101        ..      BNE      0x2b08 ; pow + 96
        0x00002b04:    2a00        .*      CMP      r2,#0
        0x00002b06:    d004        ..      BEQ      0x2b12 ; pow + 106
        0x00002b08:    9b01        ..      LDR      r3,[sp,#4]
        0x00002b0a:    2a00        .*      CMP      r2,#0
        0x00002b0c:    d005        ..      BEQ      0x2b1a ; pow + 114
        0x00002b0e:    2601        .&      MOVS     r6,#1
        0x00002b10:    e004        ..      B        0x2b1c ; pow + 116
        0x00002b12:    2000        .       MOVS     r0,#0
        0x00002b14:    4639        9F      MOV      r1,r7
        0x00002b16:    b01b        ..      ADD      sp,sp,#0x6c
        0x00002b18:    bdf0        ..      POP      {r4-r7,pc}
        0x00002b1a:    2600        .&      MOVS     r6,#0
        0x00002b1c:    199e        ..      ADDS     r6,r3,r6
        0x00002b1e:    4bee        .K      LDR      r3,[pc,#952] ; [0x2ed8] = 0xffe00000
        0x00002b20:    429e        .B      CMP      r6,r3
        0x00002b22:    d807        ..      BHI      0x2b34 ; pow + 140
        0x00002b24:    9f03        ..      LDR      r7,[sp,#0xc]
        0x00002b26:    9e02        ..      LDR      r6,[sp,#8]
        0x00002b28:    2f00        ./      CMP      r7,#0
        0x00002b2a:    d000        ..      BEQ      0x2b2e ; pow + 134
        0x00002b2c:    2701        .'      MOVS     r7,#1
        0x00002b2e:    19f6        ..      ADDS     r6,r6,r7
        0x00002b30:    429e        .B      CMP      r6,r3
        0x00002b32:    d907        ..      BLS      0x2b44 ; pow + 156
        0x00002b34:    462b        +F      MOV      r3,r5
        0x00002b36:    4660        `F      MOV      r0,r12
        0x00002b38:    4621        !F      MOV      r1,r4
        0x00002b3a:    9a18        ..      LDR      r2,[sp,#0x60]
        0x00002b3c:    f7fefd9b    ....    BL       __mathlib_dbl_infnan2 ; 0x1676
        0x00002b40:    b01b        ..      ADD      sp,sp,#0x6c
        0x00002b42:    bdf0        ..      POP      {r4-r7,pc}
        0x00002b44:    2300        .#      MOVS     r3,#0
        0x00002b46:    2c00        .,      CMP      r4,#0
        0x00002b48:    da29        ).      BGE      0x2b9e ; pow + 246
        0x00002b4a:    4ee4        .N      LDR      r6,[pc,#912] ; [0x2edc] = 0x7ff00000
        0x00002b4c:    42b0        .B      CMP      r0,r6
        0x00002b4e:    da26        &.      BGE      0x2b9e ; pow + 246
        0x00002b50:    4ee3        .N      LDR      r6,[pc,#908] ; [0x2ee0] = 0x43400000
        0x00002b52:    42b0        .B      CMP      r0,r6
        0x00002b54:    db01        ..      BLT      0x2b5a ; pow + 178
        0x00002b56:    2302        .#      MOVS     r3,#2
        0x00002b58:    e021        !.      B        0x2b9e ; pow + 246
        0x00002b5a:    4ede        .N      LDR      r6,[pc,#888] ; [0x2ed4] = 0x3ff00000
        0x00002b5c:    42b0        .B      CMP      r0,r6
        0x00002b5e:    db1e        ..      BLT      0x2b9e ; pow + 246
        0x00002b60:    4ee0        .N      LDR      r6,[pc,#896] ; [0x2ee4] = 0xfffffc01
        0x00002b62:    0d07        ..      LSRS     r7,r0,#20
        0x00002b64:    19be        ..      ADDS     r6,r7,r6
        0x00002b66:    2e14        ..      CMP      r6,#0x14
        0x00002b68:    dd09        ..      BLE      0x2b7e ; pow + 214
        0x00002b6a:    2734        4'      MOVS     r7,#0x34
        0x00002b6c:    1bbf        ..      SUBS     r7,r7,r6
        0x00002b6e:    9e03        ..      LDR      r6,[sp,#0xc]
        0x00002b70:    40fe        .@      LSRS     r6,r6,r7
        0x00002b72:    9601        ..      STR      r6,[sp,#4]
        0x00002b74:    40be        .@      LSLS     r6,r6,r7
        0x00002b76:    9f03        ..      LDR      r7,[sp,#0xc]
        0x00002b78:    42be        .B      CMP      r6,r7
        0x00002b7a:    d00b        ..      BEQ      0x2b94 ; pow + 236
        0x00002b7c:    e00f        ..      B        0x2b9e ; pow + 246
        0x00002b7e:    9f03        ..      LDR      r7,[sp,#0xc]
        0x00002b80:    2f00        ./      CMP      r7,#0
        0x00002b82:    d10c        ..      BNE      0x2b9e ; pow + 246
        0x00002b84:    2714        .'      MOVS     r7,#0x14
        0x00002b86:    1bbf        ..      SUBS     r7,r7,r6
        0x00002b88:    4606        .F      MOV      r6,r0
        0x00002b8a:    40fe        .@      LSRS     r6,r6,r7
        0x00002b8c:    9601        ..      STR      r6,[sp,#4]
        0x00002b8e:    40be        .@      LSLS     r6,r6,r7
        0x00002b90:    4286        .B      CMP      r6,r0
        0x00002b92:    d104        ..      BNE      0x2b9e ; pow + 246
        0x00002b94:    9b01        ..      LDR      r3,[sp,#4]
        0x00002b96:    07de        ..      LSLS     r6,r3,#31
        0x00002b98:    0ff6        ..      LSRS     r6,r6,#31
        0x00002b9a:    2302        .#      MOVS     r3,#2
        0x00002b9c:    1b9b        ..      SUBS     r3,r3,r6
        0x00002b9e:    460e        .F      MOV      r6,r1
        0x00002ba0:    4316        .C      ORRS     r6,r6,r2
        0x00002ba2:    d118        ..      BNE      0x2bd6 ; pow + 302
        0x00002ba4:    2d00        .-      CMP      r5,#0
        0x00002ba6:    da16        ..      BGE      0x2bd6 ; pow + 302
        0x00002ba8:    2c00        .,      CMP      r4,#0
        0x00002baa:    d003        ..      BEQ      0x2bb4 ; pow + 268
        0x00002bac:    2b02        .+      CMP      r3,#2
        0x00002bae:    d001        ..      BEQ      0x2bb4 ; pow + 268
        0x00002bb0:    2b01        .+      CMP      r3,#1
        0x00002bb2:    d006        ..      BEQ      0x2bc2 ; pow + 282
        0x00002bb4:    2002        .       MOVS     r0,#2
        0x00002bb6:    f7fefd8f    ....    BL       __set_errno ; 0x16d8
        0x00002bba:    f7fefd4d    ..M.    BL       __mathlib_dbl_divzero ; 0x1658
        0x00002bbe:    b01b        ..      ADD      sp,sp,#0x6c
        0x00002bc0:    bdf0        ..      POP      {r4-r7,pc}
        0x00002bc2:    2002        .       MOVS     r0,#2
        0x00002bc4:    f7fefd88    ....    BL       __set_errno ; 0x16d8
        0x00002bc8:    f7fefd46    ..F.    BL       __mathlib_dbl_divzero ; 0x1658
        0x00002bcc:    2201        ."      MOVS     r2,#1
        0x00002bce:    07d2        ..      LSLS     r2,r2,#31
        0x00002bd0:    4051        Q@      EORS     r1,r1,r2
        0x00002bd2:    b01b        ..      ADD      sp,sp,#0x6c
        0x00002bd4:    bdf0        ..      POP      {r4-r7,pc}
        0x00002bd6:    9e03        ..      LDR      r6,[sp,#0xc]
        0x00002bd8:    2e00        ..      CMP      r6,#0
        0x00002bda:    d161        a.      BNE      0x2ca0 ; pow + 504
        0x00002bdc:    4ebf        .N      LDR      r6,[pc,#764] ; [0x2edc] = 0x7ff00000
        0x00002bde:    42b0        .B      CMP      r0,r6
        0x00002be0:    d120         .      BNE      0x2c24 ; pow + 380
        0x00002be2:    48c1        .H      LDR      r0,[pc,#772] ; [0x2ee8] = 0xbff00000
        0x00002be4:    4284        .B      CMP      r4,r0
        0x00002be6:    d101        ..      BNE      0x2bec ; pow + 324
        0x00002be8:    2a00        .*      CMP      r2,#0
        0x00002bea:    d008        ..      BEQ      0x2bfe ; pow + 342
        0x00002bec:    48b9        .H      LDR      r0,[pc,#740] ; [0x2ed4] = 0x3ff00000
        0x00002bee:    4281        .B      CMP      r1,r0
        0x00002bf0:    db09        ..      BLT      0x2c06 ; pow + 350
        0x00002bf2:    2d00        .-      CMP      r5,#0
        0x00002bf4:    db10        ..      BLT      0x2c18 ; pow + 368
        0x00002bf6:    9818        ..      LDR      r0,[sp,#0x60]
        0x00002bf8:    4629        )F      MOV      r1,r5
        0x00002bfa:    b01b        ..      ADD      sp,sp,#0x6c
        0x00002bfc:    bdf0        ..      POP      {r4-r7,pc}
        0x00002bfe:    2000        .       MOVS     r0,#0
        0x00002c00:    49b4        .I      LDR      r1,[pc,#720] ; [0x2ed4] = 0x3ff00000
        0x00002c02:    b01b        ..      ADD      sp,sp,#0x6c
        0x00002c04:    bdf0        ..      POP      {r4-r7,pc}
        0x00002c06:    2d00        .-      CMP      r5,#0
        0x00002c08:    da06        ..      BGE      0x2c18 ; pow + 368
        0x00002c0a:    2201        ."      MOVS     r2,#1
        0x00002c0c:    4629        )F      MOV      r1,r5
        0x00002c0e:    07d2        ..      LSLS     r2,r2,#31
        0x00002c10:    9818        ..      LDR      r0,[sp,#0x60]
        0x00002c12:    4051        Q@      EORS     r1,r1,r2
        0x00002c14:    b01b        ..      ADD      sp,sp,#0x6c
        0x00002c16:    bdf0        ..      POP      {r4-r7,pc}
        0x00002c18:    49b4        .I      LDR      r1,[pc,#720] ; [0x2eec] = 0x1022
        0x00002c1a:    4479        yD      ADD      r1,r1,pc
        0x00002c1c:    6808        .h      LDR      r0,[r1,#0]
        0x00002c1e:    6849        Ih      LDR      r1,[r1,#4]
        0x00002c20:    b01b        ..      ADD      sp,sp,#0x6c
        0x00002c22:    bdf0        ..      POP      {r4-r7,pc}
        0x00002c24:    4fab        .O      LDR      r7,[pc,#684] ; [0x2ed4] = 0x3ff00000
        0x00002c26:    42b8        .B      CMP      r0,r7
        0x00002c28:    d125        %.      BNE      0x2c76 ; pow + 462
        0x00002c2a:    2d00        .-      CMP      r5,#0
        0x00002c2c:    da1f        ..      BGE      0x2c6e ; pow + 454
        0x00002c2e:    2900        .)      CMP      r1,#0
        0x00002c30:    d004        ..      BEQ      0x2c3c ; pow + 404
        0x00002c32:    42b1        .B      CMP      r1,r6
        0x00002c34:    d112        ..      BNE      0x2c5c ; pow + 436
        0x00002c36:    2a00        .*      CMP      r2,#0
        0x00002c38:    d009        ..      BEQ      0x2c4e ; pow + 422
        0x00002c3a:    e018        ..      B        0x2c6e ; pow + 454
        0x00002c3c:    2a00        .*      CMP      r2,#0
        0x00002c3e:    d172        r.      BNE      0x2d26 ; pow + 638
        0x00002c40:    49a6        .I      LDR      r1,[pc,#664] ; [0x2edc] = 0x7ff00000
        0x00002c42:    0fe2        ..      LSRS     r2,r4,#31
        0x00002c44:    2000        .       MOVS     r0,#0
        0x00002c46:    07d2        ..      LSLS     r2,r2,#31
        0x00002c48:    4311        .C      ORRS     r1,r1,r2
        0x00002c4a:    b01b        ..      ADD      sp,sp,#0x6c
        0x00002c4c:    bdf0        ..      POP      {r4-r7,pc}
        0x00002c4e:    2000        .       MOVS     r0,#0
        0x00002c50:    0fe2        ..      LSRS     r2,r4,#31
        0x00002c52:    4601        .F      MOV      r1,r0
        0x00002c54:    07d2        ..      LSLS     r2,r2,#31
        0x00002c56:    4311        .C      ORRS     r1,r1,r2
        0x00002c58:    b01b        ..      ADD      sp,sp,#0x6c
        0x00002c5a:    bdf0        ..      POP      {r4-r7,pc}
        0x00002c5c:    42b1        .B      CMP      r1,r6
        0x00002c5e:    da06        ..      BGE      0x2c6e ; pow + 454
        0x00002c60:    4623        #F      MOV      r3,r4
        0x00002c62:    2000        .       MOVS     r0,#0
        0x00002c64:    4639        9F      MOV      r1,r7
        0x00002c66:    f7fdfc9d    ....    BL       __aeabi_ddiv ; 0x5a4
        0x00002c6a:    b01b        ..      ADD      sp,sp,#0x6c
        0x00002c6c:    bdf0        ..      POP      {r4-r7,pc}
        0x00002c6e:    4610        .F      MOV      r0,r2
        0x00002c70:    4621        !F      MOV      r1,r4
        0x00002c72:    b01b        ..      ADD      sp,sp,#0x6c
        0x00002c74:    bdf0        ..      POP      {r4-r7,pc}
        0x00002c76:    42b1        .B      CMP      r1,r6
        0x00002c78:    da12        ..      BGE      0x2ca0 ; pow + 504
        0x00002c7a:    2601        .&      MOVS     r6,#1
        0x00002c7c:    07b6        ..      LSLS     r6,r6,#30
        0x00002c7e:    42b5        .B      CMP      r5,r6
        0x00002c80:    d103        ..      BNE      0x2c8a ; pow + 482
        0x00002c82:    4623        #F      MOV      r3,r4
        0x00002c84:    4610        .F      MOV      r0,r2
        0x00002c86:    4619        .F      MOV      r1,r3
        0x00002c88:    e3fe        ..      B        0x3488 ; pow + 2528
        0x00002c8a:    4e99        .N      LDR      r6,[pc,#612] ; [0x2ef0] = 0x3fe00000
        0x00002c8c:    42b5        .B      CMP      r5,r6
        0x00002c8e:    d107        ..      BNE      0x2ca0 ; pow + 504
        0x00002c90:    1e26        &.      SUBS     r6,r4,#0
        0x00002c92:    db05        ..      BLT      0x2ca0 ; pow + 504
        0x00002c94:    4610        .F      MOV      r0,r2
        0x00002c96:    4631        1F      MOV      r1,r6
        0x00002c98:    f000fe96    ....    BL       sqrt ; 0x39c8
        0x00002c9c:    b01b        ..      ADD      sp,sp,#0x6c
        0x00002c9e:    bdf0        ..      POP      {r4-r7,pc}
        0x00002ca0:    0067        g.      LSLS     r7,r4,#1
        0x00002ca2:    087f        ..      LSRS     r7,r7,#1
        0x00002ca4:    4616        .F      MOV      r6,r2
        0x00002ca6:    2a00        .*      CMP      r2,#0
        0x00002ca8:    d140        @.      BNE      0x2d2c ; pow + 644
        0x00002caa:    2900        .)      CMP      r1,#0
        0x00002cac:    d00a        ..      BEQ      0x2cc4 ; pow + 540
        0x00002cae:    4a8b        .J      LDR      r2,[pc,#556] ; [0x2edc] = 0x7ff00000
        0x00002cb0:    4291        .B      CMP      r1,r2
        0x00002cb2:    d129        ).      BNE      0x2d08 ; pow + 608
        0x00002cb4:    2c00        .,      CMP      r4,#0
        0x00002cb6:    dd0e        ..      BLE      0x2cd6 ; pow + 558
        0x00002cb8:    2d00        .-      CMP      r5,#0
        0x00002cba:    db1c        ..      BLT      0x2cf6 ; pow + 590
        0x00002cbc:    2000        .       MOVS     r0,#0
        0x00002cbe:    4611        .F      MOV      r1,r2
        0x00002cc0:    b01b        ..      ADD      sp,sp,#0x6c
        0x00002cc2:    bdf0        ..      POP      {r4-r7,pc}
        0x00002cc4:    2b02        .+      CMP      r3,#2
        0x00002cc6:    d016        ..      BEQ      0x2cf6 ; pow + 590
        0x00002cc8:    2c00        .,      CMP      r4,#0
        0x00002cca:    d014        ..      BEQ      0x2cf6 ; pow + 590
        0x00002ccc:    2b01        .+      CMP      r3,#1
        0x00002cce:    d112        ..      BNE      0x2cf6 ; pow + 590
        0x00002cd0:    2c00        .,      CMP      r4,#0
        0x00002cd2:    db14        ..      BLT      0x2cfe ; pow + 598
        0x00002cd4:    e00f        ..      B        0x2cf6 ; pow + 590
        0x00002cd6:    2c00        .,      CMP      r4,#0
        0x00002cd8:    da28        (.      BGE      0x2d2c ; pow + 644
        0x00002cda:    2d00        .-      CMP      r5,#0
        0x00002cdc:    db09        ..      BLT      0x2cf2 ; pow + 586
        0x00002cde:    2b01        .+      CMP      r3,#1
        0x00002ce0:    d003        ..      BEQ      0x2cea ; pow + 578
        0x00002ce2:    2000        .       MOVS     r0,#0
        0x00002ce4:    497d        }I      LDR      r1,[pc,#500] ; [0x2edc] = 0x7ff00000
        0x00002ce6:    b01b        ..      ADD      sp,sp,#0x6c
        0x00002ce8:    bdf0        ..      POP      {r4-r7,pc}
        0x00002cea:    2000        .       MOVS     r0,#0
        0x00002cec:    4981        .I      LDR      r1,[pc,#516] ; [0x2ef4] = 0xfff00000
        0x00002cee:    b01b        ..      ADD      sp,sp,#0x6c
        0x00002cf0:    bdf0        ..      POP      {r4-r7,pc}
        0x00002cf2:    2b01        .+      CMP      r3,#1
        0x00002cf4:    d003        ..      BEQ      0x2cfe ; pow + 598
        0x00002cf6:    2000        .       MOVS     r0,#0
        0x00002cf8:    4601        .F      MOV      r1,r0
        0x00002cfa:    b01b        ..      ADD      sp,sp,#0x6c
        0x00002cfc:    bdf0        ..      POP      {r4-r7,pc}
        0x00002cfe:    2000        .       MOVS     r0,#0
        0x00002d00:    2101        .!      MOVS     r1,#1
        0x00002d02:    07c9        ..      LSLS     r1,r1,#31
        0x00002d04:    b01b        ..      ADD      sp,sp,#0x6c
        0x00002d06:    bdf0        ..      POP      {r4-r7,pc}
        0x00002d08:    4a72        rJ      LDR      r2,[pc,#456] ; [0x2ed4] = 0x3ff00000
        0x00002d0a:    4291        .B      CMP      r1,r2
        0x00002d0c:    d10e        ..      BNE      0x2d2c ; pow + 644
        0x00002d0e:    2c00        .,      CMP      r4,#0
        0x00002d10:    da01        ..      BGE      0x2d16 ; pow + 622
        0x00002d12:    2b00        .+      CMP      r3,#0
        0x00002d14:    d017        ..      BEQ      0x2d46 ; pow + 670
        0x00002d16:    2b02        .+      CMP      r3,#2
        0x00002d18:    d006        ..      BEQ      0x2d28 ; pow + 640
        0x00002d1a:    2000        .       MOVS     r0,#0
        0x00002d1c:    43c0        .C      MVNS     r0,r0
        0x00002d1e:    f7fdfe5f    .._.    BL       __aeabi_i2d ; 0x9e0
        0x00002d22:    b01b        ..      ADD      sp,sp,#0x6c
        0x00002d24:    bdf0        ..      POP      {r4-r7,pc}
        0x00002d26:    e290        ..      B        0x324a ; pow + 1954
        0x00002d28:    2001        .       MOVS     r0,#1
        0x00002d2a:    e7f8        ..      B        0x2d1e ; pow + 630
        0x00002d2c:    17e2        ..      ASRS     r2,r4,#31
        0x00002d2e:    1c52        R.      ADDS     r2,r2,#1
        0x00002d30:    4694        .F      MOV      r12,r2
        0x00002d32:    431a        .C      ORRS     r2,r2,r3
        0x00002d34:    d007        ..      BEQ      0x2d46 ; pow + 670
        0x00002d36:    2200        ."      MOVS     r2,#0
        0x00002d38:    9208        ..      STR      r2,[sp,#0x20]
        0x00002d3a:    4c66        fL      LDR      r4,[pc,#408] ; [0x2ed4] = 0x3ff00000
        0x00002d3c:    4662        bF      MOV      r2,r12
        0x00002d3e:    1e5b        [.      SUBS     r3,r3,#1
        0x00002d40:    431a        .C      ORRS     r2,r2,r3
        0x00002d42:    d007        ..      BEQ      0x2d54 ; pow + 684
        0x00002d44:    e009        ..      B        0x2d5a ; pow + 690
        0x00002d46:    2001        .       MOVS     r0,#1
        0x00002d48:    f7fefcc6    ....    BL       __set_errno ; 0x16d8
        0x00002d4c:    f7fefc97    ....    BL       __mathlib_dbl_invalid ; 0x167e
        0x00002d50:    b01b        ..      ADD      sp,sp,#0x6c
        0x00002d52:    bdf0        ..      POP      {r4-r7,pc}
        0x00002d54:    2200        ."      MOVS     r2,#0
        0x00002d56:    4c64        dL      LDR      r4,[pc,#400] ; [0x2ee8] = 0xbff00000
        0x00002d58:    9208        ..      STR      r2,[sp,#0x20]
        0x00002d5a:    4a67        gJ      LDR      r2,[pc,#412] ; [0x2ef8] = 0x41e00000
        0x00002d5c:    4290        .B      CMP      r0,r2
        0x00002d5e:    dd7d        }.      BLE      0x2e5c ; pow + 948
        0x00002d60:    4b66        fK      LDR      r3,[pc,#408] ; [0x2efc] = 0x43f00000
        0x00002d62:    4a67        gJ      LDR      r2,[pc,#412] ; [0x2f00] = 0x3fefffff
        0x00002d64:    4298        .B      CMP      r0,r3
        0x00002d66:    dd1f        ..      BLE      0x2da8 ; pow + 768
        0x00002d68:    4291        .B      CMP      r1,r2
        0x00002d6a:    dc02        ..      BGT      0x2d72 ; pow + 714
        0x00002d6c:    2d00        .-      CMP      r5,#0
        0x00002d6e:    db05        ..      BLT      0x2d7c ; pow + 724
        0x00002d70:    e04d        M.      B        0x2e0e ; pow + 870
        0x00002d72:    4858        XH      LDR      r0,[pc,#352] ; [0x2ed4] = 0x3ff00000
        0x00002d74:    4281        .B      CMP      r1,r0
        0x00002d76:    db17        ..      BLT      0x2da8 ; pow + 768
        0x00002d78:    2d00        .-      CMP      r5,#0
        0x00002d7a:    dd48        H.      BLE      0x2e0e ; pow + 870
        0x00002d7c:    2002        .       MOVS     r0,#2
        0x00002d7e:    f7fefcab    ....    BL       __set_errno ; 0x16d8
        0x00002d82:    f7fefc85    ....    BL       __mathlib_dbl_overflow ; 0x1690
        0x00002d86:    4605        .F      MOV      r5,r0
        0x00002d88:    460e        .F      MOV      r6,r1
        0x00002d8a:    2200        ."      MOVS     r2,#0
        0x00002d8c:    4b53        SK      LDR      r3,[pc,#332] ; [0x2edc] = 0x7ff00000
        0x00002d8e:    4621        !F      MOV      r1,r4
        0x00002d90:    9808        ..      LDR      r0,[sp,#0x20]
        0x00002d92:    f7fdfb9f    ....    BL       __aeabi_dmul ; 0x4d4
        0x00002d96:    4608        .F      MOV      r0,r1
        0x00002d98:    0071        q.      LSLS     r1,r6,#1
        0x00002d9a:    0849        I.      LSRS     r1,r1,#1
        0x00002d9c:    0fc0        ..      LSRS     r0,r0,#31
        0x00002d9e:    07c0        ..      LSLS     r0,r0,#31
        0x00002da0:    4301        .C      ORRS     r1,r1,r0
        0x00002da2:    4628        (F      MOV      r0,r5
        0x00002da4:    b01b        ..      ADD      sp,sp,#0x6c
        0x00002da6:    bdf0        ..      POP      {r4-r7,pc}
        0x00002da8:    4291        .B      CMP      r1,r2
        0x00002daa:    da15        ..      BGE      0x2dd8 ; pow + 816
        0x00002dac:    2d00        .-      CMP      r5,#0
        0x00002dae:    da2e        ..      BGE      0x2e0e ; pow + 870
        0x00002db0:    2002        .       MOVS     r0,#2
        0x00002db2:    f7fefc91    ....    BL       __set_errno ; 0x16d8
        0x00002db6:    f7fefc6b    ..k.    BL       __mathlib_dbl_overflow ; 0x1690
        0x00002dba:    4605        .F      MOV      r5,r0
        0x00002dbc:    460e        .F      MOV      r6,r1
        0x00002dbe:    2200        ."      MOVS     r2,#0
        0x00002dc0:    4b46        FK      LDR      r3,[pc,#280] ; [0x2edc] = 0x7ff00000
        0x00002dc2:    4621        !F      MOV      r1,r4
        0x00002dc4:    9808        ..      LDR      r0,[sp,#0x20]
        0x00002dc6:    f7fdfb85    ....    BL       __aeabi_dmul ; 0x4d4
        0x00002dca:    0072        r.      LSLS     r2,r6,#1
        0x00002dcc:    0852        R.      LSRS     r2,r2,#1
        0x00002dce:    0fc8        ..      LSRS     r0,r1,#31
        0x00002dd0:    07c0        ..      LSLS     r0,r0,#31
        0x00002dd2:    4302        .C      ORRS     r2,r2,r0
        0x00002dd4:    4611        .F      MOV      r1,r2
        0x00002dd6:    e017        ..      B        0x2e08 ; pow + 864
        0x00002dd8:    4b3e        >K      LDR      r3,[pc,#248] ; [0x2ed4] = 0x3ff00000
        0x00002dda:    4299        .B      CMP      r1,r3
        0x00002ddc:    dd23        #.      BLE      0x2e26 ; pow + 894
        0x00002dde:    2d00        .-      CMP      r5,#0
        0x00002de0:    dd15        ..      BLE      0x2e0e ; pow + 870
        0x00002de2:    2002        .       MOVS     r0,#2
        0x00002de4:    f7fefc78    ..x.    BL       __set_errno ; 0x16d8
        0x00002de8:    f7fefc52    ..R.    BL       __mathlib_dbl_overflow ; 0x1690
        0x00002dec:    4605        .F      MOV      r5,r0
        0x00002dee:    460e        .F      MOV      r6,r1
        0x00002df0:    2200        ."      MOVS     r2,#0
        0x00002df2:    4b3a        :K      LDR      r3,[pc,#232] ; [0x2edc] = 0x7ff00000
        0x00002df4:    4621        !F      MOV      r1,r4
        0x00002df6:    9808        ..      LDR      r0,[sp,#0x20]
        0x00002df8:    f7fdfb6c    ..l.    BL       __aeabi_dmul ; 0x4d4
        0x00002dfc:    4608        .F      MOV      r0,r1
        0x00002dfe:    0071        q.      LSLS     r1,r6,#1
        0x00002e00:    0849        I.      LSRS     r1,r1,#1
        0x00002e02:    0fc0        ..      LSRS     r0,r0,#31
        0x00002e04:    07c0        ..      LSLS     r0,r0,#31
        0x00002e06:    4301        .C      ORRS     r1,r1,r0
        0x00002e08:    4628        (F      MOV      r0,r5
        0x00002e0a:    b01b        ..      ADD      sp,sp,#0x6c
        0x00002e0c:    bdf0        ..      POP      {r4-r7,pc}
        0x00002e0e:    2002        .       MOVS     r0,#2
        0x00002e10:    f7fefc62    ..b.    BL       __set_errno ; 0x16d8
        0x00002e14:    f7fefc46    ..F.    BL       __mathlib_dbl_underflow ; 0x16a4
        0x00002e18:    0049        I.      LSLS     r1,r1,#1
        0x00002e1a:    0849        I.      LSRS     r1,r1,#1
        0x00002e1c:    0fe2        ..      LSRS     r2,r4,#31
        0x00002e1e:    07d2        ..      LSLS     r2,r2,#31
        0x00002e20:    4311        .C      ORRS     r1,r1,r2
        0x00002e22:    b01b        ..      ADD      sp,sp,#0x6c
        0x00002e24:    bdf0        ..      POP      {r4-r7,pc}
        0x00002e26:    2200        ."      MOVS     r2,#0
        0x00002e28:    4630        0F      MOV      r0,r6
        0x00002e2a:    4639        9F      MOV      r1,r7
        0x00002e2c:    f7fdfb44    ..D.    BL       __aeabi_dsub ; 0x4b8
        0x00002e30:    2201        ."      MOVS     r2,#1
        0x00002e32:    4605        .F      MOV      r5,r0
        0x00002e34:    460e        .F      MOV      r6,r1
        0x00002e36:    43d2        .C      MVNS     r2,r2
        0x00002e38:    f7fdfc2c    ..,.    BL       __ARM_scalbn ; 0x694
        0x00002e3c:    4a31        1J      LDR      r2,[pc,#196] ; [0x2f04] = 0x55555555
        0x00002e3e:    4b32        2K      LDR      r3,[pc,#200] ; [0x2f08] = 0x3fd55555
        0x00002e40:    f7fdfb40    ..@.    BL       __aeabi_drsub ; 0x4c4
        0x00002e44:    462a        *F      MOV      r2,r5
        0x00002e46:    4633        3F      MOV      r3,r6
        0x00002e48:    f7fdfb44    ..D.    BL       __aeabi_dmul ; 0x4d4
        0x00002e4c:    2200        ."      MOVS     r2,#0
        0x00002e4e:    4b28        (K      LDR      r3,[pc,#160] ; [0x2ef0] = 0x3fe00000
        0x00002e50:    f7fdfb38    ..8.    BL       __aeabi_drsub ; 0x4c4
        0x00002e54:    4607        .F      MOV      r7,r0
        0x00002e56:    462a        *F      MOV      r2,r5
        0x00002e58:    4633        3F      MOV      r3,r6
        0x00002e5a:    e000        ..      B        0x2e5e ; pow + 950
        0x00002e5c:    e064        d.      B        0x2f28 ; pow + 1152
        0x00002e5e:    9103        ..      STR      r1,[sp,#0xc]
        0x00002e60:    4610        .F      MOV      r0,r2
        0x00002e62:    4619        .F      MOV      r1,r3
        0x00002e64:    f7fdfb36    ..6.    BL       __aeabi_dmul ; 0x4d4
        0x00002e68:    463a        :F      MOV      r2,r7
        0x00002e6a:    9b03        ..      LDR      r3,[sp,#0xc]
        0x00002e6c:    f7fdfb32    ..2.    BL       __aeabi_dmul ; 0x4d4
        0x00002e70:    4607        .F      MOV      r7,r0
        0x00002e72:    2203        ."      MOVS     r2,#3
        0x00002e74:    9109        ..      STR      r1,[sp,#0x24]
        0x00002e76:    0752        R.      LSLS     r2,r2,#29
        0x00002e78:    4b24        $K      LDR      r3,[pc,#144] ; [0x2f0c] = 0x3ff71547
        0x00002e7a:    4628        (F      MOV      r0,r5
        0x00002e7c:    4631        1F      MOV      r1,r6
        0x00002e7e:    f7fdfb29    ..).    BL       __aeabi_dmul ; 0x4d4
        0x00002e82:    9107        ..      STR      r1,[sp,#0x1c]
        0x00002e84:    900c        ..      STR      r0,[sp,#0x30]
        0x00002e86:    4a22        "J      LDR      r2,[pc,#136] ; [0x2f10] = 0x652b82fe
        0x00002e88:    4b20         K      LDR      r3,[pc,#128] ; [0x2f0c] = 0x3ff71547
        0x00002e8a:    4638        8F      MOV      r0,r7
        0x00002e8c:    9909        ..      LDR      r1,[sp,#0x24]
        0x00002e8e:    f7fdfb21    ..!.    BL       __aeabi_dmul ; 0x4d4
        0x00002e92:    4607        .F      MOV      r7,r0
        0x00002e94:    9101        ..      STR      r1,[sp,#4]
        0x00002e96:    4a1f        .J      LDR      r2,[pc,#124] ; [0x2f14] = 0xf85ddf44
        0x00002e98:    4b1f        .K      LDR      r3,[pc,#124] ; [0x2f18] = 0x3e54ae0b
        0x00002e9a:    4628        (F      MOV      r0,r5
        0x00002e9c:    4631        1F      MOV      r1,r6
        0x00002e9e:    f7fdfb19    ....    BL       __aeabi_dmul ; 0x4d4
        0x00002ea2:    463a        :F      MOV      r2,r7
        0x00002ea4:    9b01        ..      LDR      r3,[sp,#4]
        0x00002ea6:    f7fdfb07    ....    BL       __aeabi_dsub ; 0x4b8
        0x00002eaa:    4607        .F      MOV      r7,r0
        0x00002eac:    460b        .F      MOV      r3,r1
        0x00002eae:    4602        .F      MOV      r2,r0
        0x00002eb0:    9109        ..      STR      r1,[sp,#0x24]
        0x00002eb2:    9907        ..      LDR      r1,[sp,#0x1c]
        0x00002eb4:    980c        ..      LDR      r0,[sp,#0x30]
        0x00002eb6:    f7fdfa5b    ..[.    BL       __aeabi_dadd ; 0x370
        0x00002eba:    2500        .%      MOVS     r5,#0
        0x00002ebc:    460e        .F      MOV      r6,r1
        0x00002ebe:    4628        (F      MOV      r0,r5
        0x00002ec0:    9b07        ..      LDR      r3,[sp,#0x1c]
        0x00002ec2:    9a0c        ..      LDR      r2,[sp,#0x30]
        0x00002ec4:    f7fdfaf8    ....    BL       __aeabi_dsub ; 0x4b8
        0x00002ec8:    463a        :F      MOV      r2,r7
        0x00002eca:    e027        '.      B        0x2f1c ; pow + 1140
    $d
        0x00002ecc:    001fffff    ....    DCD    2097151
        0x00002ed0:    000fffff    ....    DCD    1048575
        0x00002ed4:    3ff00000    ...?    DCD    1072693248
        0x00002ed8:    ffe00000    ....    DCD    4292870144
        0x00002edc:    7ff00000    ....    DCD    2146435072
        0x00002ee0:    43400000    ..@C    DCD    1128267776
        0x00002ee4:    fffffc01    ....    DCD    4294966273
        0x00002ee8:    bff00000    ....    DCD    3220176896
        0x00002eec:    00001022    "...    DCD    4130
        0x00002ef0:    3fe00000    ...?    DCD    1071644672
        0x00002ef4:    fff00000    ....    DCD    4293918720
        0x00002ef8:    41e00000    ...A    DCD    1105199104
        0x00002efc:    43f00000    ...C    DCD    1139802112
        0x00002f00:    3fefffff    ...?    DCD    1072693247
        0x00002f04:    55555555    UUUU    DCD    1431655765
        0x00002f08:    3fd55555    UU.?    DCD    1070945621
        0x00002f0c:    3ff71547    G..?    DCD    1073157447
        0x00002f10:    652b82fe    ..+e    DCD    1697350398
        0x00002f14:    f85ddf44    D.].    DCD    4166901572
        0x00002f18:    3e54ae0b    ..T>    DCD    1045736971
    $t
        0x00002f1c:    9b09        ..      LDR      r3,[sp,#0x24]
        0x00002f1e:    f7fdfad1    ....    BL       __aeabi_drsub ; 0x4c4
        0x00002f22:    4602        .F      MOV      r2,r0
        0x00002f24:    460b        .F      MOV      r3,r1
        0x00002f26:    e152        R.      B        0x31ce ; pow + 1830
        0x00002f28:    2501        .%      MOVS     r5,#1
        0x00002f2a:    2000        .       MOVS     r0,#0
        0x00002f2c:    052d        -.      LSLS     r5,r5,#20
        0x00002f2e:    42a9        .B      CMP      r1,r5
        0x00002f30:    da07        ..      BGE      0x2f42 ; pow + 1178
        0x00002f32:    2235        5"      MOVS     r2,#0x35
        0x00002f34:    4630        0F      MOV      r0,r6
        0x00002f36:    4639        9F      MOV      r1,r7
        0x00002f38:    f7fdfbac    ....    BL       __ARM_scalbn ; 0x694
        0x00002f3c:    4606        .F      MOV      r6,r0
        0x00002f3e:    2034        4       MOVS     r0,#0x34
        0x00002f40:    43c0        .C      MVNS     r0,r0
        0x00002f42:    150a        ..      ASRS     r2,r1,#20
        0x00002f44:    1812        ..      ADDS     r2,r2,r0
        0x00002f46:    48fe        .H      LDR      r0,[pc,#1016] ; [0x3340] = 0xfffffc01
        0x00002f48:    1810        ..      ADDS     r0,r2,r0
        0x00002f4a:    9003        ..      STR      r0,[sp,#0xc]
        0x00002f4c:    0308        ..      LSLS     r0,r1,#12
        0x00002f4e:    49fd        .I      LDR      r1,[pc,#1012] ; [0x3344] = 0x3ff00000
        0x00002f50:    0b00        ..      LSRS     r0,r0,#12
        0x00002f52:    4301        .C      ORRS     r1,r1,r0
        0x00002f54:    460f        .F      MOV      r7,r1
        0x00002f56:    49fc        .I      LDR      r1,[pc,#1008] ; [0x3348] = 0x3988e
        0x00002f58:    4288        .B      CMP      r0,r1
        0x00002f5a:    dc01        ..      BGT      0x2f60 ; pow + 1208
        0x00002f5c:    2000        .       MOVS     r0,#0
        0x00002f5e:    e003        ..      B        0x2f68 ; pow + 1216
        0x00002f60:    49fa        .I      LDR      r1,[pc,#1000] ; [0x334c] = 0xbb67a
        0x00002f62:    4288        .B      CMP      r0,r1
        0x00002f64:    da02        ..      BGE      0x2f6c ; pow + 1220
        0x00002f66:    2001        .       MOVS     r0,#1
        0x00002f68:    9011        ..      STR      r0,[sp,#0x44]
        0x00002f6a:    e005        ..      B        0x2f78 ; pow + 1232
        0x00002f6c:    2000        .       MOVS     r0,#0
        0x00002f6e:    9011        ..      STR      r0,[sp,#0x44]
        0x00002f70:    9803        ..      LDR      r0,[sp,#0xc]
        0x00002f72:    1c40        @.      ADDS     r0,r0,#1
        0x00002f74:    1b7f        ..      SUBS     r7,r7,r5
        0x00002f76:    9003        ..      STR      r0,[sp,#0xc]
        0x00002f78:    9811        ..      LDR      r0,[sp,#0x44]
        0x00002f7a:    9705        ..      STR      r7,[sp,#0x14]
        0x00002f7c:    00c2        ..      LSLS     r2,r0,#3
        0x00002f7e:    48f4        .H      LDR      r0,[pc,#976] ; [0x3350] = 0xc32
        0x00002f80:    920f        ..      STR      r2,[sp,#0x3c]
        0x00002f82:    4478        xD      ADD      r0,r0,pc
        0x00002f84:    1880        ..      ADDS     r0,r0,r2
        0x00002f86:    6843        Ch      LDR      r3,[r0,#4]
        0x00002f88:    6802        .h      LDR      r2,[r0,#0]
        0x00002f8a:    4639        9F      MOV      r1,r7
        0x00002f8c:    4630        0F      MOV      r0,r6
        0x00002f8e:    930d        ..      STR      r3,[sp,#0x34]
        0x00002f90:    9202        ..      STR      r2,[sp,#8]
        0x00002f92:    f7fdfa91    ....    BL       __aeabi_dsub ; 0x4b8
        0x00002f96:    9107        ..      STR      r1,[sp,#0x1c]
        0x00002f98:    900c        ..      STR      r0,[sp,#0x30]
        0x00002f9a:    4630        0F      MOV      r0,r6
        0x00002f9c:    9b0d        ..      LDR      r3,[sp,#0x34]
        0x00002f9e:    9a02        ..      LDR      r2,[sp,#8]
        0x00002fa0:    9905        ..      LDR      r1,[sp,#0x14]
        0x00002fa2:    f7fdf9e5    ....    BL       __aeabi_dadd ; 0x370
        0x00002fa6:    4602        .F      MOV      r2,r0
        0x00002fa8:    460b        .F      MOV      r3,r1
        0x00002faa:    2000        .       MOVS     r0,#0
        0x00002fac:    49e5        .I      LDR      r1,[pc,#916] ; [0x3344] = 0x3ff00000
        0x00002fae:    f7fdfaf9    ....    BL       __aeabi_ddiv ; 0x5a4
        0x00002fb2:    9109        ..      STR      r1,[sp,#0x24]
        0x00002fb4:    9004        ..      STR      r0,[sp,#0x10]
        0x00002fb6:    9b07        ..      LDR      r3,[sp,#0x1c]
        0x00002fb8:    9a0c        ..      LDR      r2,[sp,#0x30]
        0x00002fba:    f7fdfa8b    ....    BL       __aeabi_dmul ; 0x4d4
        0x00002fbe:    9012        ..      STR      r0,[sp,#0x48]
        0x00002fc0:    2000        .       MOVS     r0,#0
        0x00002fc2:    9010        ..      STR      r0,[sp,#0x40]
        0x00002fc4:    48e3        .H      LDR      r0,[pc,#908] ; [0x3354] = 0xc74
        0x00002fc6:    460d        .F      MOV      r5,r1
        0x00002fc8:    4478        xD      ADD      r0,r0,pc
        0x00002fca:    6800        .h      LDR      r0,[r0,#0]
        0x00002fcc:    900e        ..      STR      r0,[sp,#0x38]
        0x00002fce:    2101        .!      MOVS     r1,#1
        0x00002fd0:    1078        x.      ASRS     r0,r7,#1
        0x00002fd2:    0749        I.      LSLS     r1,r1,#29
        0x00002fd4:    4308        .C      ORRS     r0,r0,r1
        0x00002fd6:    9911        ..      LDR      r1,[sp,#0x44]
        0x00002fd8:    9b0d        ..      LDR      r3,[sp,#0x34]
        0x00002fda:    0489        ..      LSLS     r1,r1,#18
        0x00002fdc:    1840        @.      ADDS     r0,r0,r1
        0x00002fde:    2101        .!      MOVS     r1,#1
        0x00002fe0:    04c9        ..      LSLS     r1,r1,#19
        0x00002fe2:    1847        G.      ADDS     r7,r0,r1
        0x00002fe4:    4639        9F      MOV      r1,r7
        0x00002fe6:    9a02        ..      LDR      r2,[sp,#8]
        0x00002fe8:    980e        ..      LDR      r0,[sp,#0x38]
        0x00002fea:    f7fdfa65    ..e.    BL       __aeabi_dsub ; 0x4b8
        0x00002fee:    4632        2F      MOV      r2,r6
        0x00002ff0:    9b05        ..      LDR      r3,[sp,#0x14]
        0x00002ff2:    f7fdfa67    ..g.    BL       __aeabi_drsub ; 0x4c4
        0x00002ff6:    4602        .F      MOV      r2,r0
        0x00002ff8:    460b        .F      MOV      r3,r1
        0x00002ffa:    4629        )F      MOV      r1,r5
        0x00002ffc:    9810        ..      LDR      r0,[sp,#0x40]
        0x00002ffe:    f7fdfa69    ..i.    BL       __aeabi_dmul ; 0x4d4
        0x00003002:    4606        .F      MOV      r6,r0
        0x00003004:    9102        ..      STR      r1,[sp,#8]
        0x00003006:    463b        ;F      MOV      r3,r7
        0x00003008:    4629        )F      MOV      r1,r5
        0x0000300a:    9a0e        ..      LDR      r2,[sp,#0x38]
        0x0000300c:    9810        ..      LDR      r0,[sp,#0x40]
        0x0000300e:    f7fdfa61    ..a.    BL       __aeabi_dmul ; 0x4d4
        0x00003012:    9b07        ..      LDR      r3,[sp,#0x1c]
        0x00003014:    9a0c        ..      LDR      r2,[sp,#0x30]
        0x00003016:    f7fdfa55    ..U.    BL       __aeabi_drsub ; 0x4c4
        0x0000301a:    4632        2F      MOV      r2,r6
        0x0000301c:    9b02        ..      LDR      r3,[sp,#8]
        0x0000301e:    f7fdfa4b    ..K.    BL       __aeabi_dsub ; 0x4b8
        0x00003022:    9b09        ..      LDR      r3,[sp,#0x24]
        0x00003024:    9a04        ..      LDR      r2,[sp,#0x10]
        0x00003026:    f7fdfa55    ..U.    BL       __aeabi_dmul ; 0x4d4
        0x0000302a:    9105        ..      STR      r1,[sp,#0x14]
        0x0000302c:    9a12        ..      LDR      r2,[sp,#0x48]
        0x0000302e:    900a        ..      STR      r0,[sp,#0x28]
        0x00003030:    462b        +F      MOV      r3,r5
        0x00003032:    4610        .F      MOV      r0,r2
        0x00003034:    4619        .F      MOV      r1,r3
        0x00003036:    f7fdfa4d    ..M.    BL       __aeabi_dmul ; 0x4d4
        0x0000303a:    4606        .F      MOV      r6,r0
        0x0000303c:    4602        .F      MOV      r2,r0
        0x0000303e:    48c6        .H      LDR      r0,[pc,#792] ; [0x3358] = 0xb9e
        0x00003040:    460f        .F      MOV      r7,r1
        0x00003042:    460b        .F      MOV      r3,r1
        0x00003044:    2106        .!      MOVS     r1,#6
        0x00003046:    4478        xD      ADD      r0,r0,pc
        0x00003048:    f7fefab0    ....    BL       __kernel_poly ; 0x15ac
        0x0000304c:    4632        2F      MOV      r2,r6
        0x0000304e:    463b        ;F      MOV      r3,r7
        0x00003050:    9100        ..      STR      r1,[sp,#0]
        0x00003052:    9004        ..      STR      r0,[sp,#0x10]
        0x00003054:    4610        .F      MOV      r0,r2
        0x00003056:    4619        .F      MOV      r1,r3
        0x00003058:    f7fdfa3c    ..<.    BL       __aeabi_dmul ; 0x4d4
        0x0000305c:    9b00        ..      LDR      r3,[sp,#0]
        0x0000305e:    9a04        ..      LDR      r2,[sp,#0x10]
        0x00003060:    f7fdfa38    ..8.    BL       __aeabi_dmul ; 0x4d4
        0x00003064:    4606        .F      MOV      r6,r0
        0x00003066:    460f        .F      MOV      r7,r1
        0x00003068:    462b        +F      MOV      r3,r5
        0x0000306a:    4619        .F      MOV      r1,r3
        0x0000306c:    9a12        ..      LDR      r2,[sp,#0x48]
        0x0000306e:    9810        ..      LDR      r0,[sp,#0x40]
        0x00003070:    f7fdf97e    ..~.    BL       __aeabi_dadd ; 0x370
        0x00003074:    9b05        ..      LDR      r3,[sp,#0x14]
        0x00003076:    9a0a        ..      LDR      r2,[sp,#0x28]
        0x00003078:    f7fdfa2c    ..,.    BL       __aeabi_dmul ; 0x4d4
        0x0000307c:    4632        2F      MOV      r2,r6
        0x0000307e:    463b        ;F      MOV      r3,r7
        0x00003080:    f7fdf976    ..v.    BL       __aeabi_dadd ; 0x370
        0x00003084:    9a10        ..      LDR      r2,[sp,#0x40]
        0x00003086:    9107        ..      STR      r1,[sp,#0x1c]
        0x00003088:    9004        ..      STR      r0,[sp,#0x10]
        0x0000308a:    462b        +F      MOV      r3,r5
        0x0000308c:    4610        .F      MOV      r0,r2
        0x0000308e:    4619        .F      MOV      r1,r3
        0x00003090:    f7fdfa20    .. .    BL       __aeabi_dmul ; 0x4d4
        0x00003094:    4eb1        .N      LDR      r6,[pc,#708] ; [0x335c] = 0x40080000
        0x00003096:    2200        ."      MOVS     r2,#0
        0x00003098:    4633        3F      MOV      r3,r6
        0x0000309a:    9109        ..      STR      r1,[sp,#0x24]
        0x0000309c:    9002        ..      STR      r0,[sp,#8]
        0x0000309e:    f7fdf967    ..g.    BL       __aeabi_dadd ; 0x370
        0x000030a2:    9b07        ..      LDR      r3,[sp,#0x1c]
        0x000030a4:    9a04        ..      LDR      r2,[sp,#0x10]
        0x000030a6:    f7fdf963    ..c.    BL       __aeabi_dadd ; 0x370
        0x000030aa:    2000        .       MOVS     r0,#0
        0x000030ac:    4607        .F      MOV      r7,r0
        0x000030ae:    4602        .F      MOV      r2,r0
        0x000030b0:    4633        3F      MOV      r3,r6
        0x000030b2:    9100        ..      STR      r1,[sp,#0]
        0x000030b4:    f7fdfa00    ....    BL       __aeabi_dsub ; 0x4b8
        0x000030b8:    9b09        ..      LDR      r3,[sp,#0x24]
        0x000030ba:    9a02        ..      LDR      r2,[sp,#8]
        0x000030bc:    f7fdf9fc    ....    BL       __aeabi_dsub ; 0x4b8
        0x000030c0:    9b07        ..      LDR      r3,[sp,#0x1c]
        0x000030c2:    9a04        ..      LDR      r2,[sp,#0x10]
        0x000030c4:    f7fdf9fe    ....    BL       __aeabi_drsub ; 0x4c4
        0x000030c8:    4606        .F      MOV      r6,r0
        0x000030ca:    910d        ..      STR      r1,[sp,#0x34]
        0x000030cc:    463a        :F      MOV      r2,r7
        0x000030ce:    4629        )F      MOV      r1,r5
        0x000030d0:    9b00        ..      LDR      r3,[sp,#0]
        0x000030d2:    9810        ..      LDR      r0,[sp,#0x40]
        0x000030d4:    f7fdf9fe    ....    BL       __aeabi_dmul ; 0x4d4
        0x000030d8:    9107        ..      STR      r1,[sp,#0x1c]
        0x000030da:    900c        ..      STR      r0,[sp,#0x30]
        0x000030dc:    462b        +F      MOV      r3,r5
        0x000030de:    4630        0F      MOV      r0,r6
        0x000030e0:    9a12        ..      LDR      r2,[sp,#0x48]
        0x000030e2:    990d        ..      LDR      r1,[sp,#0x34]
        0x000030e4:    f7fdf9f6    ....    BL       __aeabi_dmul ; 0x4d4
        0x000030e8:    4605        .F      MOV      r5,r0
        0x000030ea:    460e        .F      MOV      r6,r1
        0x000030ec:    463a        :F      MOV      r2,r7
        0x000030ee:    9b00        ..      LDR      r3,[sp,#0]
        0x000030f0:    9905        ..      LDR      r1,[sp,#0x14]
        0x000030f2:    980a        ..      LDR      r0,[sp,#0x28]
        0x000030f4:    f7fdf9ee    ....    BL       __aeabi_dmul ; 0x4d4
        0x000030f8:    4633        3F      MOV      r3,r6
        0x000030fa:    462a        *F      MOV      r2,r5
        0x000030fc:    f7fdf938    ..8.    BL       __aeabi_dadd ; 0x370
        0x00003100:    4602        .F      MOV      r2,r0
        0x00003102:    460b        .F      MOV      r3,r1
        0x00003104:    4607        .F      MOV      r7,r0
        0x00003106:    9109        ..      STR      r1,[sp,#0x24]
        0x00003108:    9907        ..      LDR      r1,[sp,#0x1c]
        0x0000310a:    980c        ..      LDR      r0,[sp,#0x30]
        0x0000310c:    f7fdf930    ..0.    BL       __aeabi_dadd ; 0x370
        0x00003110:    2500        .%      MOVS     r5,#0
        0x00003112:    460e        .F      MOV      r6,r1
        0x00003114:    4628        (F      MOV      r0,r5
        0x00003116:    9b07        ..      LDR      r3,[sp,#0x1c]
        0x00003118:    9a0c        ..      LDR      r2,[sp,#0x30]
        0x0000311a:    f7fdf9cd    ....    BL       __aeabi_dsub ; 0x4b8
        0x0000311e:    463a        :F      MOV      r2,r7
        0x00003120:    9b09        ..      LDR      r3,[sp,#0x24]
        0x00003122:    f7fdf9cf    ....    BL       __aeabi_drsub ; 0x4c4
        0x00003126:    4607        .F      MOV      r7,r0
        0x00003128:    2207        ."      MOVS     r2,#7
        0x0000312a:    9109        ..      STR      r1,[sp,#0x24]
        0x0000312c:    0752        R.      LSLS     r2,r2,#29
        0x0000312e:    4b8c        .K      LDR      r3,[pc,#560] ; [0x3360] = 0x3feec709
        0x00003130:    4631        1F      MOV      r1,r6
        0x00003132:    4628        (F      MOV      r0,r5
        0x00003134:    f7fdf9ce    ....    BL       __aeabi_dmul ; 0x4d4
        0x00003138:    9107        ..      STR      r1,[sp,#0x1c]
        0x0000313a:    9000        ..      STR      r0,[sp,#0]
        0x0000313c:    4a89        .J      LDR      r2,[pc,#548] ; [0x3364] = 0xdc3a03fd
        0x0000313e:    4b88        .K      LDR      r3,[pc,#544] ; [0x3360] = 0x3feec709
        0x00003140:    4638        8F      MOV      r0,r7
        0x00003142:    9909        ..      LDR      r1,[sp,#0x24]
        0x00003144:    f7fdf9c6    ....    BL       __aeabi_dmul ; 0x4d4
        0x00003148:    4607        .F      MOV      r7,r0
        0x0000314a:    9101        ..      STR      r1,[sp,#4]
        0x0000314c:    4a86        .J      LDR      r2,[pc,#536] ; [0x3368] = 0x145b01f5
        0x0000314e:    4b87        .K      LDR      r3,[pc,#540] ; [0x336c] = 0xbe3e2fe0
        0x00003150:    4631        1F      MOV      r1,r6
        0x00003152:    4628        (F      MOV      r0,r5
        0x00003154:    f7fdf9be    ....    BL       __aeabi_dmul ; 0x4d4
        0x00003158:    463a        :F      MOV      r2,r7
        0x0000315a:    9b01        ..      LDR      r3,[sp,#4]
        0x0000315c:    f7fdf908    ....    BL       __aeabi_dadd ; 0x370
        0x00003160:    4b83        .K      LDR      r3,[pc,#524] ; [0x3370] = 0xa72
        0x00003162:    447b        {D      ADD      r3,r3,pc
        0x00003164:    9a0f        ..      LDR      r2,[sp,#0x3c]
        0x00003166:    189b        ..      ADDS     r3,r3,r2
        0x00003168:    681a        .h      LDR      r2,[r3,#0]
        0x0000316a:    685b        [h      LDR      r3,[r3,#4]
        0x0000316c:    f7fdf900    ....    BL       __aeabi_dadd ; 0x370
        0x00003170:    9002        ..      STR      r0,[sp,#8]
        0x00003172:    9109        ..      STR      r1,[sp,#0x24]
        0x00003174:    9803        ..      LDR      r0,[sp,#0xc]
        0x00003176:    f7fdfc33    ..3.    BL       __aeabi_i2d ; 0x9e0
        0x0000317a:    9105        ..      STR      r1,[sp,#0x14]
        0x0000317c:    9004        ..      STR      r0,[sp,#0x10]
        0x0000317e:    9b09        ..      LDR      r3,[sp,#0x24]
        0x00003180:    9a02        ..      LDR      r2,[sp,#8]
        0x00003182:    9907        ..      LDR      r1,[sp,#0x1c]
        0x00003184:    9800        ..      LDR      r0,[sp,#0]
        0x00003186:    f7fdf8f3    ....    BL       __aeabi_dadd ; 0x370
        0x0000318a:    4b7a        zK      LDR      r3,[pc,#488] ; [0x3374] = 0xa38
        0x0000318c:    447b        {D      ADD      r3,r3,pc
        0x0000318e:    9a0f        ..      LDR      r2,[sp,#0x3c]
        0x00003190:    189b        ..      ADDS     r3,r3,r2
        0x00003192:    681a        .h      LDR      r2,[r3,#0]
        0x00003194:    685b        [h      LDR      r3,[r3,#4]
        0x00003196:    4617        .F      MOV      r7,r2
        0x00003198:    9303        ..      STR      r3,[sp,#0xc]
        0x0000319a:    f7fdf8e9    ....    BL       __aeabi_dadd ; 0x370
        0x0000319e:    9b05        ..      LDR      r3,[sp,#0x14]
        0x000031a0:    9a04        ..      LDR      r2,[sp,#0x10]
        0x000031a2:    f7fdf8e5    ....    BL       __aeabi_dadd ; 0x370
        0x000031a6:    460e        .F      MOV      r6,r1
        0x000031a8:    4628        (F      MOV      r0,r5
        0x000031aa:    9b05        ..      LDR      r3,[sp,#0x14]
        0x000031ac:    9a04        ..      LDR      r2,[sp,#0x10]
        0x000031ae:    f7fdf983    ....    BL       __aeabi_dsub ; 0x4b8
        0x000031b2:    463a        :F      MOV      r2,r7
        0x000031b4:    9b03        ..      LDR      r3,[sp,#0xc]
        0x000031b6:    f7fdf97f    ....    BL       __aeabi_dsub ; 0x4b8
        0x000031ba:    9b07        ..      LDR      r3,[sp,#0x1c]
        0x000031bc:    9a00        ..      LDR      r2,[sp,#0]
        0x000031be:    f7fdf97b    ..{.    BL       __aeabi_dsub ; 0x4b8
        0x000031c2:    9b09        ..      LDR      r3,[sp,#0x24]
        0x000031c4:    9a02        ..      LDR      r2,[sp,#8]
        0x000031c6:    f7fdf97d    ..}.    BL       __aeabi_drsub ; 0x4c4
        0x000031ca:    4602        .F      MOV      r2,r0
        0x000031cc:    460b        .F      MOV      r3,r1
        0x000031ce:    9919        ..      LDR      r1,[sp,#0x64]
        0x000031d0:    2000        .       MOVS     r0,#0
        0x000031d2:    900c        ..      STR      r0,[sp,#0x30]
        0x000031d4:    460f        .F      MOV      r7,r1
        0x000031d6:    9818        ..      LDR      r0,[sp,#0x60]
        0x000031d8:    f7fdf97c    ..|.    BL       __aeabi_dmul ; 0x4d4
        0x000031dc:    9102        ..      STR      r1,[sp,#8]
        0x000031de:    9004        ..      STR      r0,[sp,#0x10]
        0x000031e0:    463b        ;F      MOV      r3,r7
        0x000031e2:    9a0c        ..      LDR      r2,[sp,#0x30]
        0x000031e4:    9919        ..      LDR      r1,[sp,#0x64]
        0x000031e6:    9818        ..      LDR      r0,[sp,#0x60]
        0x000031e8:    f7fdf966    ..f.    BL       __aeabi_dsub ; 0x4b8
        0x000031ec:    462a        *F      MOV      r2,r5
        0x000031ee:    4633        3F      MOV      r3,r6
        0x000031f0:    f7fdf970    ..p.    BL       __aeabi_dmul ; 0x4d4
        0x000031f4:    9b02        ..      LDR      r3,[sp,#8]
        0x000031f6:    9a04        ..      LDR      r2,[sp,#0x10]
        0x000031f8:    f7fdf8ba    ....    BL       __aeabi_dadd ; 0x370
        0x000031fc:    9109        ..      STR      r1,[sp,#0x24]
        0x000031fe:    900e        ..      STR      r0,[sp,#0x38]
        0x00003200:    462a        *F      MOV      r2,r5
        0x00003202:    4633        3F      MOV      r3,r6
        0x00003204:    4639        9F      MOV      r1,r7
        0x00003206:    980c        ..      LDR      r0,[sp,#0x30]
        0x00003208:    f7fdf964    ..d.    BL       __aeabi_dmul ; 0x4d4
        0x0000320c:    4606        .F      MOV      r6,r0
        0x0000320e:    460f        .F      MOV      r7,r1
        0x00003210:    9b09        ..      LDR      r3,[sp,#0x24]
        0x00003212:    9a0e        ..      LDR      r2,[sp,#0x38]
        0x00003214:    f7fdf8ac    ....    BL       __aeabi_dadd ; 0x370
        0x00003218:    4a57        WJ      LDR      r2,[pc,#348] ; [0x3378] = 0x40900000
        0x0000321a:    460d        .F      MOV      r5,r1
        0x0000321c:    4291        .B      CMP      r1,r2
        0x0000321e:    db20         .      BLT      0x3262 ; pow + 1978
        0x00003220:    4252        RB      RSBS     r2,r2,#0
        0x00003222:    18aa        ..      ADDS     r2,r5,r2
        0x00003224:    4302        .C      ORRS     r2,r2,r0
        0x00003226:    d110        ..      BNE      0x324a ; pow + 1954
        0x00003228:    4632        2F      MOV      r2,r6
        0x0000322a:    463b        ;F      MOV      r3,r7
        0x0000322c:    f7fdf944    ..D.    BL       __aeabi_dsub ; 0x4b8
        0x00003230:    9004        ..      STR      r0,[sp,#0x10]
        0x00003232:    9103        ..      STR      r1,[sp,#0xc]
        0x00003234:    4a51        QJ      LDR      r2,[pc,#324] ; [0x337c] = 0x652b82fe
        0x00003236:    4b52        RK      LDR      r3,[pc,#328] ; [0x3380] = 0x3c971547
        0x00003238:    9909        ..      LDR      r1,[sp,#0x24]
        0x0000323a:    980e        ..      LDR      r0,[sp,#0x38]
        0x0000323c:    f7fdf898    ....    BL       __aeabi_dadd ; 0x370
        0x00003240:    9b03        ..      LDR      r3,[sp,#0xc]
        0x00003242:    9a04        ..      LDR      r2,[sp,#0x10]
        0x00003244:    f7fdfc38    ..8.    BL       __aeabi_cdrcmple ; 0xab8
        0x00003248:    d21e        ..      BCS      0x3288 ; pow + 2016
        0x0000324a:    2002        .       MOVS     r0,#2
        0x0000324c:    f7fefa44    ..D.    BL       __set_errno ; 0x16d8
        0x00003250:    f7fefa1e    ....    BL       __mathlib_dbl_overflow ; 0x1690
        0x00003254:    0049        I.      LSLS     r1,r1,#1
        0x00003256:    0849        I.      LSRS     r1,r1,#1
        0x00003258:    0fe2        ..      LSRS     r2,r4,#31
        0x0000325a:    07d2        ..      LSLS     r2,r2,#31
        0x0000325c:    4311        .C      ORRS     r1,r1,r2
        0x0000325e:    b01b        ..      ADD      sp,sp,#0x6c
        0x00003260:    bdf0        ..      POP      {r4-r7,pc}
        0x00003262:    006a        j.      LSLS     r2,r5,#1
        0x00003264:    4b47        GK      LDR      r3,[pc,#284] ; [0x3384] = 0x4090cc00
        0x00003266:    0852        R.      LSRS     r2,r2,#1
        0x00003268:    429a        .B      CMP      r2,r3
        0x0000326a:    d30d        ..      BCC      0x3288 ; pow + 2016
        0x0000326c:    4a46        FJ      LDR      r2,[pc,#280] ; [0x3388] = 0x3f6f3400
        0x0000326e:    18aa        ..      ADDS     r2,r5,r2
        0x00003270:    4302        .C      ORRS     r2,r2,r0
        0x00003272:    d000        ..      BEQ      0x3276 ; pow + 1998
        0x00003274:    e5cb        ..      B        0x2e0e ; pow + 870
        0x00003276:    4632        2F      MOV      r2,r6
        0x00003278:    463b        ;F      MOV      r3,r7
        0x0000327a:    f7fdf91d    ....    BL       __aeabi_dsub ; 0x4b8
        0x0000327e:    9b09        ..      LDR      r3,[sp,#0x24]
        0x00003280:    9a0e        ..      LDR      r2,[sp,#0x38]
        0x00003282:    f7fdfc19    ....    BL       __aeabi_cdrcmple ; 0xab8
        0x00003286:    d9f5        ..      BLS      0x3274 ; pow + 1996
        0x00003288:    0068        h.      LSLS     r0,r5,#1
        0x0000328a:    2300        .#      MOVS     r3,#0
        0x0000328c:    0840        @.      LSRS     r0,r0,#1
        0x0000328e:    492c        ,I      LDR      r1,[pc,#176] ; [0x3340] = 0xfffffc01
        0x00003290:    9303        ..      STR      r3,[sp,#0xc]
        0x00003292:    0d02        ..      LSRS     r2,r0,#20
        0x00003294:    4b3d        =K      LDR      r3,[pc,#244] ; [0x338c] = 0x3fe00000
        0x00003296:    1852        R.      ADDS     r2,r2,r1
        0x00003298:    4298        .B      CMP      r0,r3
        0x0000329a:    dd23        #.      BLE      0x32e4 ; pow + 2108
        0x0000329c:    2001        .       MOVS     r0,#1
        0x0000329e:    0500        ..      LSLS     r0,r0,#20
        0x000032a0:    1c52        R.      ADDS     r2,r2,#1
        0x000032a2:    40d0        .@      LSRS     r0,r0,r2
        0x000032a4:    1942        B.      ADDS     r2,r0,r5
        0x000032a6:    0050        P.      LSLS     r0,r2,#1
        0x000032a8:    0d40        @.      LSRS     r0,r0,#21
        0x000032aa:    1840        @.      ADDS     r0,r0,r1
        0x000032ac:    4938        8I      LDR      r1,[pc,#224] ; [0x3390] = 0x98e
        0x000032ae:    4479        yD      ADD      r1,r1,pc
        0x000032b0:    6809        .h      LDR      r1,[r1,#0]
        0x000032b2:    4613        .F      MOV      r3,r2
        0x000032b4:    468c        .F      MOV      r12,r1
        0x000032b6:    4937        7I      LDR      r1,[pc,#220] ; [0x3394] = 0xfffff
        0x000032b8:    40c1        .@      LSRS     r1,r1,r0
        0x000032ba:    438b        .C      BICS     r3,r3,r1
        0x000032bc:    0312        ..      LSLS     r2,r2,#12
        0x000032be:    2101        .!      MOVS     r1,#1
        0x000032c0:    0b12        ..      LSRS     r2,r2,#12
        0x000032c2:    0509        ..      LSLS     r1,r1,#20
        0x000032c4:    1851        Q.      ADDS     r1,r2,r1
        0x000032c6:    2214        ."      MOVS     r2,#0x14
        0x000032c8:    1a10        ..      SUBS     r0,r2,r0
        0x000032ca:    40c1        .@      LSRS     r1,r1,r0
        0x000032cc:    9103        ..      STR      r1,[sp,#0xc]
        0x000032ce:    2d00        .-      CMP      r5,#0
        0x000032d0:    da01        ..      BGE      0x32d6 ; pow + 2094
        0x000032d2:    4248        HB      RSBS     r0,r1,#0
        0x000032d4:    9003        ..      STR      r0,[sp,#0xc]
        0x000032d6:    4662        bF      MOV      r2,r12
        0x000032d8:    4630        0F      MOV      r0,r6
        0x000032da:    4639        9F      MOV      r1,r7
        0x000032dc:    f7fdf8ec    ....    BL       __aeabi_dsub ; 0x4b8
        0x000032e0:    4606        .F      MOV      r6,r0
        0x000032e2:    460f        .F      MOV      r7,r1
        0x000032e4:    4632        2F      MOV      r2,r6
        0x000032e6:    463b        ;F      MOV      r3,r7
        0x000032e8:    9909        ..      LDR      r1,[sp,#0x24]
        0x000032ea:    980e        ..      LDR      r0,[sp,#0x38]
        0x000032ec:    f7fdf840    ..@.    BL       __aeabi_dadd ; 0x370
        0x000032f0:    2500        .%      MOVS     r5,#0
        0x000032f2:    462a        *F      MOV      r2,r5
        0x000032f4:    4b28        (K      LDR      r3,[pc,#160] ; [0x3398] = 0x3fe62e43
        0x000032f6:    4628        (F      MOV      r0,r5
        0x000032f8:    9105        ..      STR      r1,[sp,#0x14]
        0x000032fa:    f7fdf8eb    ....    BL       __aeabi_dmul ; 0x4d4
        0x000032fe:    9107        ..      STR      r1,[sp,#0x1c]
        0x00003300:    900c        ..      STR      r0,[sp,#0x30]
        0x00003302:    4a26        &J      LDR      r2,[pc,#152] ; [0x339c] = 0xca86c39
        0x00003304:    4b26        &K      LDR      r3,[pc,#152] ; [0x33a0] = 0xbe205c61
        0x00003306:    4628        (F      MOV      r0,r5
        0x00003308:    9905        ..      LDR      r1,[sp,#0x14]
        0x0000330a:    f7fdf8e3    ....    BL       __aeabi_dmul ; 0x4d4
        0x0000330e:    9100        ..      STR      r1,[sp,#0]
        0x00003310:    9002        ..      STR      r0,[sp,#8]
        0x00003312:    4632        2F      MOV      r2,r6
        0x00003314:    463b        ;F      MOV      r3,r7
        0x00003316:    4628        (F      MOV      r0,r5
        0x00003318:    9905        ..      LDR      r1,[sp,#0x14]
        0x0000331a:    f7fdf8cd    ....    BL       __aeabi_dsub ; 0x4b8
        0x0000331e:    9b09        ..      LDR      r3,[sp,#0x24]
        0x00003320:    9a0e        ..      LDR      r2,[sp,#0x38]
        0x00003322:    f7fdf8cf    ....    BL       __aeabi_drsub ; 0x4c4
        0x00003326:    4a1f        .J      LDR      r2,[pc,#124] ; [0x33a4] = 0xfefa39ef
        0x00003328:    4b1f        .K      LDR      r3,[pc,#124] ; [0x33a8] = 0x3fe62e42
        0x0000332a:    f7fdf8d3    ....    BL       __aeabi_dmul ; 0x4d4
        0x0000332e:    9b00        ..      LDR      r3,[sp,#0]
        0x00003330:    9a02        ..      LDR      r2,[sp,#8]
        0x00003332:    f7fdf81d    ....    BL       __aeabi_dadd ; 0x370
        0x00003336:    4607        .F      MOV      r7,r0
        0x00003338:    460b        .F      MOV      r3,r1
        0x0000333a:    4602        .F      MOV      r2,r0
        0x0000333c:    9109        ..      STR      r1,[sp,#0x24]
        0x0000333e:    e035        5.      B        0x33ac ; pow + 2308
    $d
        0x00003340:    fffffc01    ....    DCD    4294966273
        0x00003344:    3ff00000    ...?    DCD    1072693248
        0x00003348:    0003988e    ....    DCD    235662
        0x0000334c:    000bb67a    z...    DCD    767610
        0x00003350:    00000c32    2...    DCD    3122
        0x00003354:    00000c74    t...    DCD    3188
        0x00003358:    00000b9e    ....    DCD    2974
        0x0000335c:    40080000    ...@    DCD    1074266112
        0x00003360:    3feec709    ...?    DCD    1072613129
        0x00003364:    dc3a03fd    ..:.    DCD    3694789629
        0x00003368:    145b01f5    ..[.    DCD    341508597
        0x0000336c:    be3e2fe0    ./>.    DCD    3191746528
        0x00003370:    00000a72    r...    DCD    2674
        0x00003374:    00000a38    8...    DCD    2616
        0x00003378:    40900000    ...@    DCD    1083179008
        0x0000337c:    652b82fe    ..+e    DCD    1697350398
        0x00003380:    3c971547    G..<    DCD    1016534343
        0x00003384:    4090cc00    ...@    DCD    1083231232
        0x00003388:    3f6f3400    .4o?    DCD    1064252416
        0x0000338c:    3fe00000    ...?    DCD    1071644672
        0x00003390:    0000098e    ....    DCD    2446
        0x00003394:    000fffff    ....    DCD    1048575
        0x00003398:    3fe62e43    C..?    DCD    1072049731
        0x0000339c:    0ca86c39    9l..    DCD    212364345
        0x000033a0:    be205c61    a\ .    DCD    3189791841
        0x000033a4:    fefa39ef    .9..    DCD    4277811695
        0x000033a8:    3fe62e42    B..?    DCD    1072049730
    $t
        0x000033ac:    9907        ..      LDR      r1,[sp,#0x1c]
        0x000033ae:    980c        ..      LDR      r0,[sp,#0x30]
        0x000033b0:    f7fcffde    ....    BL       __aeabi_dadd ; 0x370
        0x000033b4:    4605        .F      MOV      r5,r0
        0x000033b6:    460e        .F      MOV      r6,r1
        0x000033b8:    9b07        ..      LDR      r3,[sp,#0x1c]
        0x000033ba:    9a0c        ..      LDR      r2,[sp,#0x30]
        0x000033bc:    f7fdf87c    ..|.    BL       __aeabi_dsub ; 0x4b8
        0x000033c0:    463a        :F      MOV      r2,r7
        0x000033c2:    9b09        ..      LDR      r3,[sp,#0x24]
        0x000033c4:    f7fdf87e    ..~.    BL       __aeabi_drsub ; 0x4c4
        0x000033c8:    9109        ..      STR      r1,[sp,#0x24]
        0x000033ca:    462a        *F      MOV      r2,r5
        0x000033cc:    4633        3F      MOV      r3,r6
        0x000033ce:    900e        ..      STR      r0,[sp,#0x38]
        0x000033d0:    4610        .F      MOV      r0,r2
        0x000033d2:    4619        .F      MOV      r1,r3
        0x000033d4:    f7fdf87e    ..~.    BL       __aeabi_dmul ; 0x4d4
        0x000033d8:    4607        .F      MOV      r7,r0
        0x000033da:    4602        .F      MOV      r2,r0
        0x000033dc:    482f        /H      LDR      r0,[pc,#188] ; [0x349c] = 0x830
        0x000033de:    460b        .F      MOV      r3,r1
        0x000033e0:    9105        ..      STR      r1,[sp,#0x14]
        0x000033e2:    2105        .!      MOVS     r1,#5
        0x000033e4:    4478        xD      ADD      r0,r0,pc
        0x000033e6:    f7fef8e1    ....    BL       __kernel_poly ; 0x15ac
        0x000033ea:    463a        :F      MOV      r2,r7
        0x000033ec:    9b05        ..      LDR      r3,[sp,#0x14]
        0x000033ee:    f7fdf871    ..q.    BL       __aeabi_dmul ; 0x4d4
        0x000033f2:    462a        *F      MOV      r2,r5
        0x000033f4:    4633        3F      MOV      r3,r6
        0x000033f6:    f7fdf865    ..e.    BL       __aeabi_drsub ; 0x4c4
        0x000033fa:    4607        .F      MOV      r7,r0
        0x000033fc:    9101        ..      STR      r1,[sp,#4]
        0x000033fe:    4628        (F      MOV      r0,r5
        0x00003400:    4631        1F      MOV      r1,r6
        0x00003402:    9b09        ..      LDR      r3,[sp,#0x24]
        0x00003404:    9a0e        ..      LDR      r2,[sp,#0x38]
        0x00003406:    f7fdf865    ..e.    BL       __aeabi_dmul ; 0x4d4
        0x0000340a:    9b09        ..      LDR      r3,[sp,#0x24]
        0x0000340c:    9a0e        ..      LDR      r2,[sp,#0x38]
        0x0000340e:    f7fcffaf    ....    BL       __aeabi_dadd ; 0x370
        0x00003412:    2301        .#      MOVS     r3,#1
        0x00003414:    9104        ..      STR      r1,[sp,#0x10]
        0x00003416:    900c        ..      STR      r0,[sp,#0x30]
        0x00003418:    2200        ."      MOVS     r2,#0
        0x0000341a:    079b        ..      LSLS     r3,r3,#30
        0x0000341c:    4638        8F      MOV      r0,r7
        0x0000341e:    9901        ..      LDR      r1,[sp,#4]
        0x00003420:    f7fdf84a    ..J.    BL       __aeabi_dsub ; 0x4b8
        0x00003424:    9105        ..      STR      r1,[sp,#0x14]
        0x00003426:    900e        ..      STR      r0,[sp,#0x38]
        0x00003428:    463a        :F      MOV      r2,r7
        0x0000342a:    4628        (F      MOV      r0,r5
        0x0000342c:    4631        1F      MOV      r1,r6
        0x0000342e:    9b01        ..      LDR      r3,[sp,#4]
        0x00003430:    f7fdf850    ..P.    BL       __aeabi_dmul ; 0x4d4
        0x00003434:    9b05        ..      LDR      r3,[sp,#0x14]
        0x00003436:    9a0e        ..      LDR      r2,[sp,#0x38]
        0x00003438:    f7fdf8b4    ....    BL       __aeabi_ddiv ; 0x5a4
        0x0000343c:    9b04        ..      LDR      r3,[sp,#0x10]
        0x0000343e:    9a0c        ..      LDR      r2,[sp,#0x30]
        0x00003440:    f7fdf83a    ..:.    BL       __aeabi_dsub ; 0x4b8
        0x00003444:    462a        *F      MOV      r2,r5
        0x00003446:    4633        3F      MOV      r3,r6
        0x00003448:    f7fdf836    ..6.    BL       __aeabi_dsub ; 0x4b8
        0x0000344c:    2200        ."      MOVS     r2,#0
        0x0000344e:    4b14        .K      LDR      r3,[pc,#80] ; [0x34a0] = 0x3ff00000
        0x00003450:    f7fdf838    ..8.    BL       __aeabi_drsub ; 0x4c4
        0x00003454:    4606        .F      MOV      r6,r0
        0x00003456:    9803        ..      LDR      r0,[sp,#0xc]
        0x00003458:    460d        .F      MOV      r5,r1
        0x0000345a:    0500        ..      LSLS     r0,r0,#20
        0x0000345c:    1941        A.      ADDS     r1,r0,r5
        0x0000345e:    1509        ..      ASRS     r1,r1,#20
        0x00003460:    2900        .)      CMP      r1,#0
        0x00003462:    dc12        ..      BGT      0x348a ; pow + 2530
        0x00003464:    4630        0F      MOV      r0,r6
        0x00003466:    4629        )F      MOV      r1,r5
        0x00003468:    9a03        ..      LDR      r2,[sp,#0xc]
        0x0000346a:    f7fdf913    ....    BL       __ARM_scalbn ; 0x694
        0x0000346e:    f7fef887    ....    BL       __ARM_fpclassify ; 0x1580
        0x00003472:    2804        .(      CMP      r0,#4
        0x00003474:    d101        ..      BNE      0x347a ; pow + 2514
        0x00003476:    f7fef915    ....    BL       __mathlib_dbl_underflow ; 0x16a4
        0x0000347a:    4630        0F      MOV      r0,r6
        0x0000347c:    4629        )F      MOV      r1,r5
        0x0000347e:    9a03        ..      LDR      r2,[sp,#0xc]
        0x00003480:    f7fdf908    ....    BL       __ARM_scalbn ; 0x694
        0x00003484:    4606        .F      MOV      r6,r0
        0x00003486:    e001        ..      B        0x348c ; pow + 2532
        0x00003488:    e004        ..      B        0x3494 ; pow + 2540
        0x0000348a:    1829        ).      ADDS     r1,r5,r0
        0x0000348c:    460b        .F      MOV      r3,r1
        0x0000348e:    4632        2F      MOV      r2,r6
        0x00003490:    4621        !F      MOV      r1,r4
        0x00003492:    9808        ..      LDR      r0,[sp,#0x20]
        0x00003494:    f7fdf81e    ....    BL       __aeabi_dmul ; 0x4d4
        0x00003498:    b01b        ..      ADD      sp,sp,#0x6c
        0x0000349a:    bdf0        ..      POP      {r4-r7,pc}
    $d
        0x0000349c:    00000830    0...    DCD    2096
        0x000034a0:    3ff00000    ...?    DCD    1072693248
    $t
    i.run_test_data
    run_test_data
        0x000034a4:    b5fe        ..      PUSH     {r1-r7,lr}
        0x000034a6:    2000        .       MOVS     r0,#0
        0x000034a8:    9000        ..      STR      r0,[sp,#0]
        0x000034aa:    a060        `.      ADR      r0,{pc}+0x182 ; 0x362c
        0x000034ac:    f7fef840    ..@.    BL       __0printf ; 0x1530
        0x000034b0:    2500        .%      MOVS     r5,#0
        0x000034b2:    4a62        bJ      LDR      r2,[pc,#392] ; [0x363c] = 0x2000002c
        0x000034b4:    2000        .       MOVS     r0,#0
        0x000034b6:    61d0        .a      STR      r0,[r2,#0x1c]
        0x000034b8:    4961        aI      LDR      r1,[pc,#388] ; [0x3640] = 0x20000aec
        0x000034ba:    2001        .       MOVS     r0,#1
        0x000034bc:    012b        +.      LSLS     r3,r5,#4
        0x000034be:    1859        Y.      ADDS     r1,r3,r1
        0x000034c0:    69d4        .i      LDR      r4,[r2,#0x1c]
        0x000034c2:    0083        ..      LSLS     r3,r0,#2
        0x000034c4:    00a4        ..      LSLS     r4,r4,#2
        0x000034c6:    58cb        .X      LDR      r3,[r1,r3]
        0x000034c8:    590c        .Y      LDR      r4,[r1,r4]
        0x000034ca:    42a3        .B      CMP      r3,r4
        0x000034cc:    dd00        ..      BLE      0x34d0 ; run_test_data + 44
        0x000034ce:    61d0        .a      STR      r0,[r2,#0x1c]
        0x000034d0:    1c40        @.      ADDS     r0,r0,#1
        0x000034d2:    2804        .(      CMP      r0,#4
        0x000034d4:    dbf4        ..      BLT      0x34c0 ; run_test_data + 28
        0x000034d6:    69d0        .i      LDR      r0,[r2,#0x1c]
        0x000034d8:    6150        Pa      STR      r0,[r2,#0x14]
        0x000034da:    4628        (F      MOV      r0,r5
        0x000034dc:    210c        .!      MOVS     r1,#0xc
        0x000034de:    4348        HC      MULS     r0,r1,r0
        0x000034e0:    4958        XI      LDR      r1,[pc,#352] ; [0x3644] = 0x2000090c
        0x000034e2:    2400        .$      MOVS     r4,#0
        0x000034e4:    1840        @.      ADDS     r0,r0,r1
        0x000034e6:    9001        ..      STR      r0,[sp,#4]
        0x000034e8:    4857        WH      LDR      r0,[pc,#348] ; [0x3648] = 0x20000f08
        0x000034ea:    00a6        ..      LSLS     r6,r4,#2
        0x000034ec:    1831        1.      ADDS     r1,r6,r0
        0x000034ee:    6f8a        .o      LDR      r2,[r1,#0x78]
        0x000034f0:    4952        RI      LDR      r1,[pc,#328] ; [0x363c] = 0x2000002c
        0x000034f2:    2700        .'      MOVS     r7,#0
        0x000034f4:    610a        .a      STR      r2,[r1,#0x10]
        0x000034f6:    2028        (       MOVS     r0,#0x28
        0x000034f8:    4953        SI      LDR      r1,[pc,#332] ; [0x3648] = 0x20000f08
        0x000034fa:    4378        xC      MULS     r0,r7,r0
        0x000034fc:    1840        @.      ADDS     r0,r0,r1
        0x000034fe:    5981        .Y      LDR      r1,[r0,r6]
        0x00003500:    9801        ..      LDR      r0,[sp,#4]
        0x00003502:    00ba        ..      LSLS     r2,r7,#2
        0x00003504:    5880        .X      LDR      r0,[r0,r2]
        0x00003506:    f7fcfeb7    ....    BL       __aeabi_fmul ; 0x278
        0x0000350a:    494c        LI      LDR      r1,[pc,#304] ; [0x363c] = 0x2000002c
        0x0000350c:    6909        .i      LDR      r1,[r1,#0x10]
        0x0000350e:    f7fcfe5a    ..Z.    BL       __aeabi_fadd ; 0x1c6
        0x00003512:    494a        JI      LDR      r1,[pc,#296] ; [0x363c] = 0x2000002c
        0x00003514:    1c7f        ..      ADDS     r7,r7,#1
        0x00003516:    6108        .a      STR      r0,[r1,#0x10]
        0x00003518:    2f03        ./      CMP      r7,#3
        0x0000351a:    dbec        ..      BLT      0x34f6 ; run_test_data + 82
        0x0000351c:    460f        .F      MOV      r7,r1
        0x0000351e:    2101        .!      MOVS     r1,#1
        0x00003520:    6938        8i      LDR      r0,[r7,#0x10]
        0x00003522:    07c9        ..      LSLS     r1,r1,#31
        0x00003524:    4048        H@      EORS     r0,r0,r1
        0x00003526:    f7fdf8dd    ....    BL       __aeabi_f2d ; 0x6e4
        0x0000352a:    f7fefd7d    ..}.    BL       exp ; 0x2028
        0x0000352e:    2200        ."      MOVS     r2,#0
        0x00003530:    4b46        FK      LDR      r3,[pc,#280] ; [0x364c] = 0x3ff00000
        0x00003532:    f7fcff1d    ....    BL       __aeabi_dadd ; 0x370
        0x00003536:    4602        .F      MOV      r2,r0
        0x00003538:    460b        .F      MOV      r3,r1
        0x0000353a:    2000        .       MOVS     r0,#0
        0x0000353c:    4943        CI      LDR      r1,[pc,#268] ; [0x364c] = 0x3ff00000
        0x0000353e:    f7fdf831    ..1.    BL       __aeabi_ddiv ; 0x5a4
        0x00003542:    f7fdf8e3    ....    BL       __aeabi_d2f ; 0x70c
        0x00003546:    4940        @I      LDR      r1,[pc,#256] ; [0x3648] = 0x20000f08
        0x00003548:    1c64        d.      ADDS     r4,r4,#1
        0x0000354a:    3938        89      SUBS     r1,r1,#0x38
        0x0000354c:    5188        .Q      STR      r0,[r1,r6]
        0x0000354e:    2c0a        .,      CMP      r4,#0xa
        0x00003550:    dbca        ..      BLT      0x34e8 ; run_test_data + 68
        0x00003552:    2400        .$      MOVS     r4,#0
        0x00003554:    493c        <I      LDR      r1,[pc,#240] ; [0x3648] = 0x20000f08
        0x00003556:    00a6        ..      LSLS     r6,r4,#2
        0x00003558:    31a0        .1      ADDS     r1,r1,#0xa0
        0x0000355a:    1870        p.      ADDS     r0,r6,r1
        0x0000355c:    3080        .0      ADDS     r0,r0,#0x80
        0x0000355e:    6a02        .j      LDR      r2,[r0,#0x20]
        0x00003560:    4836        6H      LDR      r0,[pc,#216] ; [0x363c] = 0x2000002c
        0x00003562:    2700        .'      MOVS     r7,#0
        0x00003564:    6102        .a      STR      r2,[r0,#0x10]
        0x00003566:    4838        8H      LDR      r0,[pc,#224] ; [0x3648] = 0x20000f08
        0x00003568:    0139        9.      LSLS     r1,r7,#4
        0x0000356a:    30a0        .0      ADDS     r0,r0,#0xa0
        0x0000356c:    1808        ..      ADDS     r0,r1,r0
        0x0000356e:    5981        .Y      LDR      r1,[r0,r6]
        0x00003570:    4835        5H      LDR      r0,[pc,#212] ; [0x3648] = 0x20000f08
        0x00003572:    00ba        ..      LSLS     r2,r7,#2
        0x00003574:    3838        88      SUBS     r0,r0,#0x38
        0x00003576:    5880        .X      LDR      r0,[r0,r2]
        0x00003578:    f7fcfe7e    ..~.    BL       __aeabi_fmul ; 0x278
        0x0000357c:    492f        /I      LDR      r1,[pc,#188] ; [0x363c] = 0x2000002c
        0x0000357e:    6909        .i      LDR      r1,[r1,#0x10]
        0x00003580:    f7fcfe21    ..!.    BL       __aeabi_fadd ; 0x1c6
        0x00003584:    492d        -I      LDR      r1,[pc,#180] ; [0x363c] = 0x2000002c
        0x00003586:    1c7f        ..      ADDS     r7,r7,#1
        0x00003588:    6108        .a      STR      r0,[r1,#0x10]
        0x0000358a:    2f0a        ./      CMP      r7,#0xa
        0x0000358c:    dbeb        ..      BLT      0x3566 ; run_test_data + 194
        0x0000358e:    4608        .F      MOV      r0,r1
        0x00003590:    6900        .i      LDR      r0,[r0,#0x10]
        0x00003592:    2101        .!      MOVS     r1,#1
        0x00003594:    07c9        ..      LSLS     r1,r1,#31
        0x00003596:    4048        H@      EORS     r0,r0,r1
        0x00003598:    f7fdf8a4    ....    BL       __aeabi_f2d ; 0x6e4
        0x0000359c:    f7fefd44    ..D.    BL       exp ; 0x2028
        0x000035a0:    4f2a        *O      LDR      r7,[pc,#168] ; [0x364c] = 0x3ff00000
        0x000035a2:    2200        ."      MOVS     r2,#0
        0x000035a4:    463b        ;F      MOV      r3,r7
        0x000035a6:    f7fcfee3    ....    BL       __aeabi_dadd ; 0x370
        0x000035aa:    4602        .F      MOV      r2,r0
        0x000035ac:    460b        .F      MOV      r3,r1
        0x000035ae:    2000        .       MOVS     r0,#0
        0x000035b0:    4639        9F      MOV      r1,r7
        0x000035b2:    f7fcfff7    ....    BL       __aeabi_ddiv ; 0x5a4
        0x000035b6:    f7fdf8a9    ....    BL       __aeabi_d2f ; 0x70c
        0x000035ba:    4f23        #O      LDR      r7,[pc,#140] ; [0x3648] = 0x20000f08
        0x000035bc:    1c64        d.      ADDS     r4,r4,#1
        0x000035be:    3f10        .?      SUBS     r7,r7,#0x10
        0x000035c0:    51b8        .Q      STR      r0,[r7,r6]
        0x000035c2:    2c04        .,      CMP      r4,#4
        0x000035c4:    dbc6        ..      BLT      0x3554 ; run_test_data + 176
        0x000035c6:    2000        .       MOVS     r0,#0
        0x000035c8:    4e1c        .N      LDR      r6,[pc,#112] ; [0x363c] = 0x2000002c
        0x000035ca:    2401        .$      MOVS     r4,#1
        0x000035cc:    61f0        .a      STR      r0,[r6,#0x1c]
        0x000035ce:    69f0        .i      LDR      r0,[r6,#0x1c]
        0x000035d0:    0080        ..      LSLS     r0,r0,#2
        0x000035d2:    5839        9X      LDR      r1,[r7,r0]
        0x000035d4:    00a0        ..      LSLS     r0,r4,#2
        0x000035d6:    5838        8X      LDR      r0,[r7,r0]
        0x000035d8:    f7fdf8b4    ....    BL       __aeabi_cfrcmple ; 0x744
        0x000035dc:    d200        ..      BCS      0x35e0 ; run_test_data + 316
        0x000035de:    61f4        .a      STR      r4,[r6,#0x1c]
        0x000035e0:    1c64        d.      ADDS     r4,r4,#1
        0x000035e2:    2c04        .,      CMP      r4,#4
        0x000035e4:    dbf3        ..      BLT      0x35ce ; run_test_data + 298
        0x000035e6:    69f3        .i      LDR      r3,[r6,#0x1c]
        0x000035e8:    61b3        .a      STR      r3,[r6,#0x18]
        0x000035ea:    6972        ri      LDR      r2,[r6,#0x14]
        0x000035ec:    4293        .B      CMP      r3,r2
        0x000035ee:    d004        ..      BEQ      0x35fa ; run_test_data + 342
        0x000035f0:    4629        )F      MOV      r1,r5
        0x000035f2:    a017        ..      ADR      r0,{pc}+0x5e ; 0x3650
        0x000035f4:    f7fdff9c    ....    BL       __0printf ; 0x1530
        0x000035f8:    e002        ..      B        0x3600 ; run_test_data + 348
        0x000035fa:    9800        ..      LDR      r0,[sp,#0]
        0x000035fc:    1c40        @.      ADDS     r0,r0,#1
        0x000035fe:    9000        ..      STR      r0,[sp,#0]
        0x00003600:    1c6d        m.      ADDS     r5,r5,#1
        0x00003602:    2d28        (-      CMP      r5,#0x28
        0x00003604:    da00        ..      BGE      0x3608 ; run_test_data + 356
        0x00003606:    e754        T.      B        0x34b2 ; run_test_data + 14
        0x00003608:    9800        ..      LDR      r0,[sp,#0]
        0x0000360a:    f7fdf859    ..Y.    BL       __aeabi_i2f ; 0x6c0
        0x0000360e:    491f        .I      LDR      r1,[pc,#124] ; [0x368c] = 0x42200000
        0x00003610:    f7fcfe6f    ..o.    BL       __aeabi_fdiv ; 0x2f2
        0x00003614:    491e        .I      LDR      r1,[pc,#120] ; [0x3690] = 0x42c80000
        0x00003616:    f7fcfe2f    ../.    BL       __aeabi_fmul ; 0x278
        0x0000361a:    f7fdf863    ..c.    BL       __aeabi_f2d ; 0x6e4
        0x0000361e:    4602        .F      MOV      r2,r0
        0x00003620:    460b        .F      MOV      r3,r1
        0x00003622:    a01c        ..      ADR      r0,{pc}+0x72 ; 0x3694
        0x00003624:    f7fdff84    ....    BL       __0printf ; 0x1530
        0x00003628:    bdfe        ..      POP      {r1-r7,pc}
    $d
        0x0000362a:    0000        ..      DCW    0
        0x0000362c:    74736554    Test    DCD    1953719636
        0x00003630:    73657220     res    DCD    1936028192
        0x00003634:    3a746c75    ult:    DCD    980708469
        0x00003638:    0000000a    ....    DCD    10
        0x0000363c:    2000002c    ,..     DCD    536870956
        0x00003640:    20000aec    ...     DCD    536873708
        0x00003644:    2000090c    ...     DCD    536873228
        0x00003648:    20000f08    ...     DCD    536874760
        0x0000364c:    3ff00000    ...?    DCD    1072693248
        0x00003650:    6f727245    Erro    DCD    1869771333
        0x00003654:    2d2d2072    r --    DCD    757932146
        0x00003658:    7254203e    > Tr    DCD    1918115902
        0x0000365c:    696e6961    aini    DCD    1768843617
        0x00003660:    5020676e    ng P    DCD    1344300910
        0x00003664:    65747461    atte    DCD    1702130785
        0x00003668:    203a6e72    rn:     DCD    540700274
        0x0000366c:    542c6425    %d,T    DCD    1412195365
        0x00003670:    65677261    arge    DCD    1701278305
        0x00003674:    203a2074    t :     DCD    540680308
        0x00003678:    202c6425    %d,     DCD    539780133
        0x0000367c:    7074754f    Outp    DCD    1886680399
        0x00003680:    3a207475    ut :    DCD    975205493
        0x00003684:    0a642520     %d.    DCD    174335264
        0x00003688:    00000000    ....    DCD    0
        0x0000368c:    42200000    .. B    DCD    1109393408
        0x00003690:    42c80000    ...B    DCD    1120403456
        0x00003694:    75636341    Accu    DCD    1969447745
        0x00003698:    79636172    racy    DCD    2036556146
        0x0000369c:    25203d20     = %    DCD    622869792
        0x000036a0:    2066322e    .2f     DCD    543568430
        0x000036a4:    3030312f    /100    DCD    808464687
        0x000036a8:    00000a20     ...    DCD    2592
    $t
    i.run_train_data
    run_train_data
        0x000036ac:    b5fe        ..      PUSH     {r1-r7,lr}
        0x000036ae:    2000        .       MOVS     r0,#0
        0x000036b0:    9000        ..      STR      r0,[sp,#0]
        0x000036b2:    a060        `.      ADR      r0,{pc}+0x182 ; 0x3834
        0x000036b4:    f7fdff3c    ..<.    BL       __0printf ; 0x1530
        0x000036b8:    2500        .%      MOVS     r5,#0
        0x000036ba:    4a62        bJ      LDR      r2,[pc,#392] ; [0x3844] = 0x2000002c
        0x000036bc:    2000        .       MOVS     r0,#0
        0x000036be:    61d0        .a      STR      r0,[r2,#0x1c]
        0x000036c0:    4961        aI      LDR      r1,[pc,#388] ; [0x3848] = 0x2000040c
        0x000036c2:    2001        .       MOVS     r0,#1
        0x000036c4:    012b        +.      LSLS     r3,r5,#4
        0x000036c6:    1859        Y.      ADDS     r1,r3,r1
        0x000036c8:    69d4        .i      LDR      r4,[r2,#0x1c]
        0x000036ca:    0083        ..      LSLS     r3,r0,#2
        0x000036cc:    00a4        ..      LSLS     r4,r4,#2
        0x000036ce:    58cb        .X      LDR      r3,[r1,r3]
        0x000036d0:    590c        .Y      LDR      r4,[r1,r4]
        0x000036d2:    42a3        .B      CMP      r3,r4
        0x000036d4:    dd00        ..      BLE      0x36d8 ; run_train_data + 44
        0x000036d6:    61d0        .a      STR      r0,[r2,#0x1c]
        0x000036d8:    1c40        @.      ADDS     r0,r0,#1
        0x000036da:    2804        .(      CMP      r0,#4
        0x000036dc:    dbf4        ..      BLT      0x36c8 ; run_train_data + 28
        0x000036de:    69d0        .i      LDR      r0,[r2,#0x1c]
        0x000036e0:    6150        Pa      STR      r0,[r2,#0x14]
        0x000036e2:    4628        (F      MOV      r0,r5
        0x000036e4:    210c        .!      MOVS     r1,#0xc
        0x000036e6:    4348        HC      MULS     r0,r1,r0
        0x000036e8:    4956        VI      LDR      r1,[pc,#344] ; [0x3844] = 0x2000002c
        0x000036ea:    2400        .$      MOVS     r4,#0
        0x000036ec:    3120         1      ADDS     r1,r1,#0x20
        0x000036ee:    1840        @.      ADDS     r0,r0,r1
        0x000036f0:    9001        ..      STR      r0,[sp,#4]
        0x000036f2:    4856        VH      LDR      r0,[pc,#344] ; [0x384c] = 0x20000f08
        0x000036f4:    00a6        ..      LSLS     r6,r4,#2
        0x000036f6:    1831        1.      ADDS     r1,r6,r0
        0x000036f8:    6f8a        .o      LDR      r2,[r1,#0x78]
        0x000036fa:    4952        RI      LDR      r1,[pc,#328] ; [0x3844] = 0x2000002c
        0x000036fc:    2700        .'      MOVS     r7,#0
        0x000036fe:    610a        .a      STR      r2,[r1,#0x10]
        0x00003700:    2028        (       MOVS     r0,#0x28
        0x00003702:    4952        RI      LDR      r1,[pc,#328] ; [0x384c] = 0x20000f08
        0x00003704:    4378        xC      MULS     r0,r7,r0
        0x00003706:    1840        @.      ADDS     r0,r0,r1
        0x00003708:    5981        .Y      LDR      r1,[r0,r6]
        0x0000370a:    9801        ..      LDR      r0,[sp,#4]
        0x0000370c:    00ba        ..      LSLS     r2,r7,#2
        0x0000370e:    5880        .X      LDR      r0,[r0,r2]
        0x00003710:    f7fcfdb2    ....    BL       __aeabi_fmul ; 0x278
        0x00003714:    494b        KI      LDR      r1,[pc,#300] ; [0x3844] = 0x2000002c
        0x00003716:    6909        .i      LDR      r1,[r1,#0x10]
        0x00003718:    f7fcfd55    ..U.    BL       __aeabi_fadd ; 0x1c6
        0x0000371c:    4949        II      LDR      r1,[pc,#292] ; [0x3844] = 0x2000002c
        0x0000371e:    1c7f        ..      ADDS     r7,r7,#1
        0x00003720:    6108        .a      STR      r0,[r1,#0x10]
        0x00003722:    2f03        ./      CMP      r7,#3
        0x00003724:    dbec        ..      BLT      0x3700 ; run_train_data + 84
        0x00003726:    460f        .F      MOV      r7,r1
        0x00003728:    2101        .!      MOVS     r1,#1
        0x0000372a:    6938        8i      LDR      r0,[r7,#0x10]
        0x0000372c:    07c9        ..      LSLS     r1,r1,#31
        0x0000372e:    4048        H@      EORS     r0,r0,r1
        0x00003730:    f7fcffd8    ....    BL       __aeabi_f2d ; 0x6e4
        0x00003734:    f7fefc78    ..x.    BL       exp ; 0x2028
        0x00003738:    2200        ."      MOVS     r2,#0
        0x0000373a:    4b45        EK      LDR      r3,[pc,#276] ; [0x3850] = 0x3ff00000
        0x0000373c:    f7fcfe18    ....    BL       __aeabi_dadd ; 0x370
        0x00003740:    4602        .F      MOV      r2,r0
        0x00003742:    460b        .F      MOV      r3,r1
        0x00003744:    2000        .       MOVS     r0,#0
        0x00003746:    4942        BI      LDR      r1,[pc,#264] ; [0x3850] = 0x3ff00000
        0x00003748:    f7fcff2c    ..,.    BL       __aeabi_ddiv ; 0x5a4
        0x0000374c:    f7fcffde    ....    BL       __aeabi_d2f ; 0x70c
        0x00003750:    493e        >I      LDR      r1,[pc,#248] ; [0x384c] = 0x20000f08
        0x00003752:    1c64        d.      ADDS     r4,r4,#1
        0x00003754:    3938        89      SUBS     r1,r1,#0x38
        0x00003756:    5188        .Q      STR      r0,[r1,r6]
        0x00003758:    2c0a        .,      CMP      r4,#0xa
        0x0000375a:    dbca        ..      BLT      0x36f2 ; run_train_data + 70
        0x0000375c:    2400        .$      MOVS     r4,#0
        0x0000375e:    493b        ;I      LDR      r1,[pc,#236] ; [0x384c] = 0x20000f08
        0x00003760:    00a6        ..      LSLS     r6,r4,#2
        0x00003762:    31a0        .1      ADDS     r1,r1,#0xa0
        0x00003764:    1870        p.      ADDS     r0,r6,r1
        0x00003766:    3080        .0      ADDS     r0,r0,#0x80
        0x00003768:    6a02        .j      LDR      r2,[r0,#0x20]
        0x0000376a:    4836        6H      LDR      r0,[pc,#216] ; [0x3844] = 0x2000002c
        0x0000376c:    2700        .'      MOVS     r7,#0
        0x0000376e:    6102        .a      STR      r2,[r0,#0x10]
        0x00003770:    4836        6H      LDR      r0,[pc,#216] ; [0x384c] = 0x20000f08
        0x00003772:    0139        9.      LSLS     r1,r7,#4
        0x00003774:    30a0        .0      ADDS     r0,r0,#0xa0
        0x00003776:    1808        ..      ADDS     r0,r1,r0
        0x00003778:    5981        .Y      LDR      r1,[r0,r6]
        0x0000377a:    4834        4H      LDR      r0,[pc,#208] ; [0x384c] = 0x20000f08
        0x0000377c:    00ba        ..      LSLS     r2,r7,#2
        0x0000377e:    3838        88      SUBS     r0,r0,#0x38
        0x00003780:    5880        .X      LDR      r0,[r0,r2]
        0x00003782:    f7fcfd79    ..y.    BL       __aeabi_fmul ; 0x278
        0x00003786:    492f        /I      LDR      r1,[pc,#188] ; [0x3844] = 0x2000002c
        0x00003788:    6909        .i      LDR      r1,[r1,#0x10]
        0x0000378a:    f7fcfd1c    ....    BL       __aeabi_fadd ; 0x1c6
        0x0000378e:    492d        -I      LDR      r1,[pc,#180] ; [0x3844] = 0x2000002c
        0x00003790:    1c7f        ..      ADDS     r7,r7,#1
        0x00003792:    6108        .a      STR      r0,[r1,#0x10]
        0x00003794:    2f0a        ./      CMP      r7,#0xa
        0x00003796:    dbeb        ..      BLT      0x3770 ; run_train_data + 196
        0x00003798:    4608        .F      MOV      r0,r1
        0x0000379a:    6900        .i      LDR      r0,[r0,#0x10]
        0x0000379c:    2101        .!      MOVS     r1,#1
        0x0000379e:    07c9        ..      LSLS     r1,r1,#31
        0x000037a0:    4048        H@      EORS     r0,r0,r1
        0x000037a2:    f7fcff9f    ....    BL       __aeabi_f2d ; 0x6e4
        0x000037a6:    f7fefc3f    ..?.    BL       exp ; 0x2028
        0x000037aa:    4f29        )O      LDR      r7,[pc,#164] ; [0x3850] = 0x3ff00000
        0x000037ac:    2200        ."      MOVS     r2,#0
        0x000037ae:    463b        ;F      MOV      r3,r7
        0x000037b0:    f7fcfdde    ....    BL       __aeabi_dadd ; 0x370
        0x000037b4:    4602        .F      MOV      r2,r0
        0x000037b6:    460b        .F      MOV      r3,r1
        0x000037b8:    2000        .       MOVS     r0,#0
        0x000037ba:    4639        9F      MOV      r1,r7
        0x000037bc:    f7fcfef2    ....    BL       __aeabi_ddiv ; 0x5a4
        0x000037c0:    f7fcffa4    ....    BL       __aeabi_d2f ; 0x70c
        0x000037c4:    4f21        !O      LDR      r7,[pc,#132] ; [0x384c] = 0x20000f08
        0x000037c6:    1c64        d.      ADDS     r4,r4,#1
        0x000037c8:    3f10        .?      SUBS     r7,r7,#0x10
        0x000037ca:    51b8        .Q      STR      r0,[r7,r6]
        0x000037cc:    2c04        .,      CMP      r4,#4
        0x000037ce:    dbc6        ..      BLT      0x375e ; run_train_data + 178
        0x000037d0:    2000        .       MOVS     r0,#0
        0x000037d2:    4e1c        .N      LDR      r6,[pc,#112] ; [0x3844] = 0x2000002c
        0x000037d4:    2401        .$      MOVS     r4,#1
        0x000037d6:    61f0        .a      STR      r0,[r6,#0x1c]
        0x000037d8:    69f0        .i      LDR      r0,[r6,#0x1c]
        0x000037da:    0080        ..      LSLS     r0,r0,#2
        0x000037dc:    5839        9X      LDR      r1,[r7,r0]
        0x000037de:    00a0        ..      LSLS     r0,r4,#2
        0x000037e0:    5838        8X      LDR      r0,[r7,r0]
        0x000037e2:    f7fcffaf    ....    BL       __aeabi_cfrcmple ; 0x744
        0x000037e6:    d200        ..      BCS      0x37ea ; run_train_data + 318
        0x000037e8:    61f4        .a      STR      r4,[r6,#0x1c]
        0x000037ea:    1c64        d.      ADDS     r4,r4,#1
        0x000037ec:    2c04        .,      CMP      r4,#4
        0x000037ee:    dbf3        ..      BLT      0x37d8 ; run_train_data + 300
        0x000037f0:    69f3        .i      LDR      r3,[r6,#0x1c]
        0x000037f2:    61b3        .a      STR      r3,[r6,#0x18]
        0x000037f4:    6972        ri      LDR      r2,[r6,#0x14]
        0x000037f6:    4293        .B      CMP      r3,r2
        0x000037f8:    d004        ..      BEQ      0x3804 ; run_train_data + 344
        0x000037fa:    4629        )F      MOV      r1,r5
        0x000037fc:    a015        ..      ADR      r0,{pc}+0x58 ; 0x3854
        0x000037fe:    f7fdfe97    ....    BL       __0printf ; 0x1530
        0x00003802:    e002        ..      B        0x380a ; run_train_data + 350
        0x00003804:    9800        ..      LDR      r0,[sp,#0]
        0x00003806:    1c40        @.      ADDS     r0,r0,#1
        0x00003808:    9000        ..      STR      r0,[sp,#0]
        0x0000380a:    1c6d        m.      ADDS     r5,r5,#1
        0x0000380c:    2d50        P-      CMP      r5,#0x50
        0x0000380e:    da00        ..      BGE      0x3812 ; run_train_data + 358
        0x00003810:    e753        S.      B        0x36ba ; run_train_data + 14
        0x00003812:    9800        ..      LDR      r0,[sp,#0]
        0x00003814:    f7fcff54    ..T.    BL       __aeabi_i2f ; 0x6c0
        0x00003818:    491d        .I      LDR      r1,[pc,#116] ; [0x3890] = 0x42a00000
        0x0000381a:    f7fcfd6a    ..j.    BL       __aeabi_fdiv ; 0x2f2
        0x0000381e:    491d        .I      LDR      r1,[pc,#116] ; [0x3894] = 0x42c80000
        0x00003820:    f7fcfd2a    ..*.    BL       __aeabi_fmul ; 0x278
        0x00003824:    f7fcff5e    ..^.    BL       __aeabi_f2d ; 0x6e4
        0x00003828:    4602        .F      MOV      r2,r0
        0x0000382a:    460b        .F      MOV      r3,r1
        0x0000382c:    a01a        ..      ADR      r0,{pc}+0x6c ; 0x3898
        0x0000382e:    f7fdfe7f    ....    BL       __0printf ; 0x1530
        0x00003832:    bdfe        ..      POP      {r1-r7,pc}
    $d
        0x00003834:    69617254    Trai    DCD    1767993940
        0x00003838:    6572206e    n re    DCD    1701978222
        0x0000383c:    746c7573    sult    DCD    1953265011
        0x00003840:    00000a3a    :...    DCD    2618
        0x00003844:    2000002c    ,..     DCD    536870956
        0x00003848:    2000040c    ...     DCD    536871948
        0x0000384c:    20000f08    ...     DCD    536874760
        0x00003850:    3ff00000    ...?    DCD    1072693248
        0x00003854:    6f727245    Erro    DCD    1869771333
        0x00003858:    2d2d2072    r --    DCD    757932146
        0x0000385c:    7254203e    > Tr    DCD    1918115902
        0x00003860:    696e6961    aini    DCD    1768843617
        0x00003864:    5020676e    ng P    DCD    1344300910
        0x00003868:    65747461    atte    DCD    1702130785
        0x0000386c:    203a6e72    rn:     DCD    540700274
        0x00003870:    542c6425    %d,T    DCD    1412195365
        0x00003874:    65677261    arge    DCD    1701278305
        0x00003878:    203a2074    t :     DCD    540680308
        0x0000387c:    202c6425    %d,     DCD    539780133
        0x00003880:    7074754f    Outp    DCD    1886680399
        0x00003884:    3a207475    ut :    DCD    975205493
        0x00003888:    0a642520     %d.    DCD    174335264
        0x0000388c:    00000000    ....    DCD    0
        0x00003890:    42a00000    ...B    DCD    1117782016
        0x00003894:    42c80000    ...B    DCD    1120403456
        0x00003898:    75636341    Accu    DCD    1969447745
        0x0000389c:    79636172    racy    DCD    2036556146
        0x000038a0:    25203d20     = %    DCD    622869792
        0x000038a4:    2066322e    .2f     DCD    543568430
        0x000038a8:    3030312f    /100    DCD    808464687
        0x000038ac:    00000a20     ...    DCD    2592
    $t
    i.scale_data
    scale_data
        0x000038b0:    b5f0        ..      PUSH     {r4-r7,lr}
        0x000038b2:    b085        ..      SUB      sp,sp,#0x14
        0x000038b4:    2000        .       MOVS     r0,#0
        0x000038b6:    9000        ..      STR      r0,[sp,#0]
        0x000038b8:    9001        ..      STR      r0,[sp,#4]
        0x000038ba:    4605        .F      MOV      r5,r0
        0x000038bc:    466f        oF      MOV      r7,sp
        0x000038be:    9002        ..      STR      r0,[sp,#8]
        0x000038c0:    4628        (F      MOV      r0,r5
        0x000038c2:    210c        .!      MOVS     r1,#0xc
        0x000038c4:    4348        HC      MULS     r0,r1,r0
        0x000038c6:    4937        7I      LDR      r1,[pc,#220] ; [0x39a4] = 0x2000004c
        0x000038c8:    2400        .$      MOVS     r4,#0
        0x000038ca:    1840        @.      ADDS     r0,r0,r1
        0x000038cc:    9003        ..      STR      r0,[sp,#0xc]
        0x000038ce:    00a6        ..      LSLS     r6,r4,#2
        0x000038d0:    5981        .Y      LDR      r1,[r0,r6]
        0x000038d2:    59b8        .Y      LDR      r0,[r7,r6]
        0x000038d4:    f7fcfc77    ..w.    BL       __aeabi_fadd ; 0x1c6
        0x000038d8:    1c64        d.      ADDS     r4,r4,#1
        0x000038da:    51b8        .Q      STR      r0,[r7,r6]
        0x000038dc:    2c03        .,      CMP      r4,#3
        0x000038de:    da01        ..      BGE      0x38e4 ; scale_data + 52
        0x000038e0:    9803        ..      LDR      r0,[sp,#0xc]
        0x000038e2:    e7f4        ..      B        0x38ce ; scale_data + 30
        0x000038e4:    1c6d        m.      ADDS     r5,r5,#1
        0x000038e6:    2d50        P-      CMP      r5,#0x50
        0x000038e8:    dbea        ..      BLT      0x38c0 ; scale_data + 16
        0x000038ea:    2400        .$      MOVS     r4,#0
        0x000038ec:    00a5        ..      LSLS     r5,r4,#2
        0x000038ee:    5978        xY      LDR      r0,[r7,r5]
        0x000038f0:    492d        -I      LDR      r1,[pc,#180] ; [0x39a8] = 0x42a00000
        0x000038f2:    f7fcfcfe    ....    BL       __aeabi_fdiv ; 0x2f2
        0x000038f6:    492d        -I      LDR      r1,[pc,#180] ; [0x39ac] = 0x20000d78
        0x000038f8:    5148        HQ      STR      r0,[r1,r5]
        0x000038fa:    f7fcfef3    ....    BL       __aeabi_f2d ; 0x6e4
        0x000038fe:    4602        .F      MOV      r2,r0
        0x00003900:    460b        .F      MOV      r3,r1
        0x00003902:    a02b        +.      ADR      r0,{pc}+0xae ; 0x39b0
        0x00003904:    f7fdfe14    ....    BL       __0printf ; 0x1530
        0x00003908:    2000        .       MOVS     r0,#0
        0x0000390a:    1c64        d.      ADDS     r4,r4,#1
        0x0000390c:    5178        xQ      STR      r0,[r7,r5]
        0x0000390e:    2c03        .,      CMP      r4,#3
        0x00003910:    dbec        ..      BLT      0x38ec ; scale_data + 60
        0x00003912:    2600        .&      MOVS     r6,#0
        0x00003914:    4630        0F      MOV      r0,r6
        0x00003916:    210c        .!      MOVS     r1,#0xc
        0x00003918:    4348        HC      MULS     r0,r1,r0
        0x0000391a:    4922        "I      LDR      r1,[pc,#136] ; [0x39a4] = 0x2000004c
        0x0000391c:    2400        .$      MOVS     r4,#0
        0x0000391e:    1840        @.      ADDS     r0,r0,r1
        0x00003920:    9004        ..      STR      r0,[sp,#0x10]
        0x00003922:    00a5        ..      LSLS     r5,r4,#2
        0x00003924:    4921        !I      LDR      r1,[pc,#132] ; [0x39ac] = 0x20000d78
        0x00003926:    5940        @Y      LDR      r0,[r0,r5]
        0x00003928:    5949        IY      LDR      r1,[r1,r5]
        0x0000392a:    f7fcfc9d    ....    BL       __aeabi_fsub ; 0x268
        0x0000392e:    f7fcfed9    ....    BL       __aeabi_f2d ; 0x6e4
        0x00003932:    2301        .#      MOVS     r3,#1
        0x00003934:    2200        ."      MOVS     r2,#0
        0x00003936:    079b        ..      LSLS     r3,r3,#30
        0x00003938:    f7fff8b6    ....    BL       pow ; 0x2aa8
        0x0000393c:    4607        .F      MOV      r7,r0
        0x0000393e:    4668        hF      MOV      r0,sp
        0x00003940:    9103        ..      STR      r1,[sp,#0xc]
        0x00003942:    5940        @Y      LDR      r0,[r0,r5]
        0x00003944:    f7fcfece    ....    BL       __aeabi_f2d ; 0x6e4
        0x00003948:    463a        :F      MOV      r2,r7
        0x0000394a:    9b03        ..      LDR      r3,[sp,#0xc]
        0x0000394c:    f7fcfd10    ....    BL       __aeabi_dadd ; 0x370
        0x00003950:    f7fcfedc    ....    BL       __aeabi_d2f ; 0x70c
        0x00003954:    4669        iF      MOV      r1,sp
        0x00003956:    1c64        d.      ADDS     r4,r4,#1
        0x00003958:    5148        HQ      STR      r0,[r1,r5]
        0x0000395a:    2c03        .,      CMP      r4,#3
        0x0000395c:    da01        ..      BGE      0x3962 ; scale_data + 178
        0x0000395e:    9804        ..      LDR      r0,[sp,#0x10]
        0x00003960:    e7df        ..      B        0x3922 ; scale_data + 114
        0x00003962:    1c76        v.      ADDS     r6,r6,#1
        0x00003964:    2e50        P.      CMP      r6,#0x50
        0x00003966:    dbd5        ..      BLT      0x3914 ; scale_data + 100
        0x00003968:    2400        .$      MOVS     r4,#0
        0x0000396a:    4627        'F      MOV      r7,r4
        0x0000396c:    460e        .F      MOV      r6,r1
        0x0000396e:    00a5        ..      LSLS     r5,r4,#2
        0x00003970:    5970        pY      LDR      r0,[r6,r5]
        0x00003972:    490d        .I      LDR      r1,[pc,#52] ; [0x39a8] = 0x42a00000
        0x00003974:    f7fcfcbd    ....    BL       __aeabi_fdiv ; 0x2f2
        0x00003978:    f7fcfeb4    ....    BL       __aeabi_f2d ; 0x6e4
        0x0000397c:    f000f824    ..$.    BL       sqrt ; 0x39c8
        0x00003980:    f7fcfec4    ....    BL       __aeabi_d2f ; 0x70c
        0x00003984:    4909        .I      LDR      r1,[pc,#36] ; [0x39ac] = 0x20000d78
        0x00003986:    310c        .1      ADDS     r1,r1,#0xc
        0x00003988:    5148        HQ      STR      r0,[r1,r5]
        0x0000398a:    f7fcfeab    ....    BL       __aeabi_f2d ; 0x6e4
        0x0000398e:    4602        .F      MOV      r2,r0
        0x00003990:    460b        .F      MOV      r3,r1
        0x00003992:    a00a        ..      ADR      r0,{pc}+0x2a ; 0x39bc
        0x00003994:    f7fdfdcc    ....    BL       __0printf ; 0x1530
        0x00003998:    1c64        d.      ADDS     r4,r4,#1
        0x0000399a:    5177        wQ      STR      r7,[r6,r5]
        0x0000399c:    2c03        .,      CMP      r4,#3
        0x0000399e:    dbe6        ..      BLT      0x396e ; scale_data + 190
        0x000039a0:    b005        ..      ADD      sp,sp,#0x14
        0x000039a2:    bdf0        ..      POP      {r4-r7,pc}
    $d
        0x000039a4:    2000004c    L..     DCD    536870988
        0x000039a8:    42a00000    ...B    DCD    1117782016
        0x000039ac:    20000d78    x..     DCD    536874360
        0x000039b0:    4e41454d    MEAN    DCD    1312900429
        0x000039b4:    2e25203a    : %.    DCD    774185018
        0x000039b8:    000a6632    2f..    DCD    681522
        0x000039bc:    3a445453    STD:    DCD    977556563
        0x000039c0:    322e2520     %.2    DCD    841884960
        0x000039c4:    00000a66    f...    DCD    2662
    $t
    i.sqrt
    sqrt
        0x000039c8:    b5f8        ..      PUSH     {r3-r7,lr}
        0x000039ca:    4606        .F      MOV      r6,r0
        0x000039cc:    460c        .F      MOV      r4,r1
        0x000039ce:    f7fcffb6    ....    BL       _dsqrt ; 0x93e
        0x000039d2:    1e05        ..      SUBS     r5,r0,#0
        0x000039d4:    460f        .F      MOV      r7,r1
        0x000039d6:    d000        ..      BEQ      0x39da ; sqrt + 18
        0x000039d8:    2001        .       MOVS     r0,#1
        0x000039da:    4301        .C      ORRS     r1,r1,r0
        0x000039dc:    0049        I.      LSLS     r1,r1,#1
        0x000039de:    480b        .H      LDR      r0,[pc,#44] ; [0x3a0c] = 0x7ff00000
        0x000039e0:    0849        I.      LSRS     r1,r1,#1
        0x000039e2:    1a41        A.      SUBS     r1,r0,r1
        0x000039e4:    0fc9        ..      LSRS     r1,r1,#31
        0x000039e6:    d00d        ..      BEQ      0x3a04 ; sqrt + 60
        0x000039e8:    2e00        ..      CMP      r6,#0
        0x000039ea:    d001        ..      BEQ      0x39f0 ; sqrt + 40
        0x000039ec:    2101        .!      MOVS     r1,#1
        0x000039ee:    e000        ..      B        0x39f2 ; sqrt + 42
        0x000039f0:    2100        .!      MOVS     r1,#0
        0x000039f2:    430c        .C      ORRS     r4,r4,r1
        0x000039f4:    0061        a.      LSLS     r1,r4,#1
        0x000039f6:    0849        I.      LSRS     r1,r1,#1
        0x000039f8:    1a40        @.      SUBS     r0,r0,r1
        0x000039fa:    0fc0        ..      LSRS     r0,r0,#31
        0x000039fc:    d102        ..      BNE      0x3a04 ; sqrt + 60
        0x000039fe:    2001        .       MOVS     r0,#1
        0x00003a00:    f7fdfe6a    ..j.    BL       __set_errno ; 0x16d8
        0x00003a04:    4628        (F      MOV      r0,r5
        0x00003a06:    4639        9F      MOV      r1,r7
        0x00003a08:    bdf8        ..      POP      {r3-r7,pc}
    $d
        0x00003a0a:    0000        ..      DCW    0
        0x00003a0c:    7ff00000    ....    DCD    2146435072
    $t
    i.stackDump
    stackDump
        0x00003a10:    b510        ..      PUSH     {r4,lr}
        0x00003a12:    4604        .F      MOV      r4,r0
        0x00003a14:    6801        .h      LDR      r1,[r0,#0]
        0x00003a16:    a010        ..      ADR      r0,{pc}+0x42 ; 0x3a58
        0x00003a18:    f7fdfd8a    ....    BL       __0printf ; 0x1530
        0x00003a1c:    a011        ..      ADR      r0,{pc}+0x48 ; 0x3a64
        0x00003a1e:    6861        ah      LDR      r1,[r4,#4]
        0x00003a20:    f7fdfd86    ....    BL       __0printf ; 0x1530
        0x00003a24:    a012        ..      ADR      r0,{pc}+0x4c ; 0x3a70
        0x00003a26:    68a1        .h      LDR      r1,[r4,#8]
        0x00003a28:    f7fdfd82    ....    BL       __0printf ; 0x1530
        0x00003a2c:    a013        ..      ADR      r0,{pc}+0x50 ; 0x3a7c
        0x00003a2e:    68e1        .h      LDR      r1,[r4,#0xc]
        0x00003a30:    f7fdfd7e    ..~.    BL       __0printf ; 0x1530
        0x00003a34:    a014        ..      ADR      r0,{pc}+0x54 ; 0x3a88
        0x00003a36:    6921        !i      LDR      r1,[r4,#0x10]
        0x00003a38:    f7fdfd7a    ..z.    BL       __0printf ; 0x1530
        0x00003a3c:    a015        ..      ADR      r0,{pc}+0x58 ; 0x3a94
        0x00003a3e:    6961        ai      LDR      r1,[r4,#0x14]
        0x00003a40:    f7fdfd76    ..v.    BL       __0printf ; 0x1530
        0x00003a44:    a016        ..      ADR      r0,{pc}+0x5c ; 0x3aa0
        0x00003a46:    69a1        .i      LDR      r1,[r4,#0x18]
        0x00003a48:    f7fdfd72    ..r.    BL       __0printf ; 0x1530
        0x00003a4c:    a017        ..      ADR      r0,{pc}+0x60 ; 0x3aac
        0x00003a4e:    69e1        .i      LDR      r1,[r4,#0x1c]
        0x00003a50:    f7fdfd6e    ..n.    BL       __0printf ; 0x1530
        0x00003a54:    bd10        ..      POP      {r4,pc}
    $d
        0x00003a56:    0000        ..      DCW    0
        0x00003a58:    20203072    r0      DCD    538980466
        0x00003a5c:    7830203d    = 0x    DCD    2016419901
        0x00003a60:    000a7825    %x..    DCD    686117
        0x00003a64:    20203172    r1      DCD    538980722
        0x00003a68:    7830203d    = 0x    DCD    2016419901
        0x00003a6c:    000a7825    %x..    DCD    686117
        0x00003a70:    20203272    r2      DCD    538980978
        0x00003a74:    7830203d    = 0x    DCD    2016419901
        0x00003a78:    000a7825    %x..    DCD    686117
        0x00003a7c:    20203372    r3      DCD    538981234
        0x00003a80:    7830203d    = 0x    DCD    2016419901
        0x00003a84:    000a7825    %x..    DCD    686117
        0x00003a88:    20323172    r12     DCD    540160370
        0x00003a8c:    7830203d    = 0x    DCD    2016419901
        0x00003a90:    000a7825    %x..    DCD    686117
        0x00003a94:    2020726c    lr      DCD    538997356
        0x00003a98:    7830203d    = 0x    DCD    2016419901
        0x00003a9c:    000a7825    %x..    DCD    686117
        0x00003aa0:    20206370    pc      DCD    538993520
        0x00003aa4:    7830203d    = 0x    DCD    2016419901
        0x00003aa8:    000a7825    %x..    DCD    686117
        0x00003aac:    20727370    psr     DCD    544371568
        0x00003ab0:    7830203d    = 0x    DCD    2016419901
        0x00003ab4:    000a7825    %x..    DCD    686117
    $t
    i.test_preprocess
    test_preprocess
        0x00003ab8:    b570        p.      PUSH     {r4-r6,lr}
        0x00003aba:    4d06        .M      LDR      r5,[pc,#24] ; [0x3ad4] = 0x2000090c
        0x00003abc:    2400        .$      MOVS     r4,#0
        0x00003abe:    200c        .       MOVS     r0,#0xc
        0x00003ac0:    4360        `C      MULS     r0,r4,r0
        0x00003ac2:    1940        @.      ADDS     r0,r0,r5
        0x00003ac4:    f7feffda    ....    BL       normalize ; 0x2a7c
        0x00003ac8:    1c64        d.      ADDS     r4,r4,#1
        0x00003aca:    2c28        (,      CMP      r4,#0x28
        0x00003acc:    dbf7        ..      BLT      0x3abe ; test_preprocess + 6
        0x00003ace:    2000        .       MOVS     r0,#0
        0x00003ad0:    bd70        p.      POP      {r4-r6,pc}
    $d
        0x00003ad2:    0000        ..      DCW    0
        0x00003ad4:    2000090c    ...     DCD    536873228
    $t
    i.train_preprocess
    train_preprocess
        0x00003ad8:    b570        p.      PUSH     {r4-r6,lr}
        0x00003ada:    4d06        .M      LDR      r5,[pc,#24] ; [0x3af4] = 0x2000004c
        0x00003adc:    2400        .$      MOVS     r4,#0
        0x00003ade:    200c        .       MOVS     r0,#0xc
        0x00003ae0:    4360        `C      MULS     r0,r4,r0
        0x00003ae2:    1940        @.      ADDS     r0,r0,r5
        0x00003ae4:    f7feffca    ....    BL       normalize ; 0x2a7c
        0x00003ae8:    1c64        d.      ADDS     r4,r4,#1
        0x00003aea:    2c50        P,      CMP      r4,#0x50
        0x00003aec:    dbf7        ..      BLT      0x3ade ; train_preprocess + 6
        0x00003aee:    2000        .       MOVS     r0,#0
        0x00003af0:    bd70        p.      POP      {r4-r6,pc}
    $d
        0x00003af2:    0000        ..      DCW    0
        0x00003af4:    2000004c    L..     DCD    536870988
    $d.realdata
    .constdata
        0x00003af8:    00000000    ....    DCD    0
        0x00003afc:    00000020     ...    DCD    32
        0x00003b00:    00000000    ....    DCD    0
        0x00003b04:    00000004    ....    DCD    4
        0x00003b08:    0000000c    ....    DCD    12
        0x00003b0c:    00000024    $...    DCD    36
        0x00003b10:    00000000    ....    DCD    0
        0x00003b14:    00000004    ....    DCD    4
        0x00003b18:    0000002c    ,...    DCD    44
        0x00003b1c:    00000000    ....    DCD    0
        0x00003b20:    00000000    ....    DCD    0
        0x00003b24:    00000004    ....    DCD    4
        0x00003b28:    0000002c    ,...    DCD    44
        0x00003b2c:    00000000    ....    DCD    0
    .constdata
        0x00003b30:    00b71b00    ....    DCD    12000000
        0x00003b34:    00000000    ....    DCD    0
        0x00003b38:    00000000    ....    DCD    0
        0x00003b3c:    01518000    ..Q.    DCD    22118400
        0x00003b40:    00b71b00    ....    DCD    12000000
        0x00003b44:    00000000    ....    DCD    0
        0x00003b48:    00000000    ....    DCD    0
        0x00003b4c:    01518000    ..Q.    DCD    22118400
        0x00003b50:    00b71b00    ....    DCD    12000000
        0x00003b54:    00000000    ....    DCD    0
        0x00003b58:    00000000    ....    DCD    0
        0x00003b5c:    01518000    ..Q.    DCD    22118400
    .constdata
    halF
        0x00003b60:    00000000    ....    DCD    0
        0x00003b64:    3fe00000    ...?    DCD    1071644672
        0x00003b68:    00000000    ....    DCD    0
        0x00003b6c:    bfe00000    ....    DCD    3219128320
    ln2HI
        0x00003b70:    fee00000    ....    DCD    4276092928
        0x00003b74:    3fe62e42    B..?    DCD    1072049730
        0x00003b78:    fee00000    ....    DCD    4276092928
        0x00003b7c:    bfe62e42    B...    DCD    3219533378
    ln2LO
        0x00003b80:    35793c76    v<y5    DCD    897137782
        0x00003b84:    3dea39ef    .9.=    DCD    1038760431
        0x00003b88:    35793c76    v<y5    DCD    897137782
        0x00003b8c:    bdea39ef    .9..    DCD    3186244079
    P
        0x00003b90:    5555553e    >UUU    DCD    1431655742
        0x00003b94:    3fc55555    UU.?    DCD    1069897045
        0x00003b98:    16bebd93    ....    DCD    381599123
        0x00003b9c:    bf66c16c    l.f.    DCD    3211182444
        0x00003ba0:    af25de2c    ,.%.    DCD    2938494508
        0x00003ba4:    3f11566a    jV.?    DCD    1058100842
        0x00003ba8:    c5d26bf1    .k..    DCD    3318901745
        0x00003bac:    bebbbd41    A...    DCD    3199974721
        0x00003bb0:    72bea4d0    ...r    DCD    1925096656
        0x00003bb4:    3e663769    i7f>    DCD    1046886249
    .constdata
    bp
        0x00003bb8:    00000000    ....    DCD    0
        0x00003bbc:    3ff00000    ...?    DCD    1072693248
        0x00003bc0:    00000000    ....    DCD    0
        0x00003bc4:    3ff80000    ...?    DCD    1073217536
    dp_h
        0x00003bc8:    00000000    ....    DCD    0
        0x00003bcc:    00000000    ....    DCD    0
        0x00003bd0:    40000000    ...@    DCD    1073741824
        0x00003bd4:    3fe2b803    ...?    DCD    1071822851
    dp_l
        0x00003bd8:    00000000    ....    DCD    0
        0x00003bdc:    00000000    ....    DCD    0
        0x00003be0:    43cfd006    ...C    DCD    1137692678
        0x00003be4:    3e4cfdeb    ..L>    DCD    1045233131
    L
        0x00003be8:    33333303    .333    DCD    858993411
        0x00003bec:    3fe33333    33.?    DCD    1071854387
        0x00003bf0:    db6fabff    ..o.    DCD    3681528831
        0x00003bf4:    3fdb6db6    .m.?    DCD    1071345078
        0x00003bf8:    518f264d    M&.Q    DCD    1368335949
        0x00003bfc:    3fd55555    UU.?    DCD    1070945621
        0x00003c00:    a91d4101    .A..    DCD    2837266689
        0x00003c04:    3fd17460    `t.?    DCD    1070691424
        0x00003c08:    93c9db65    e...    DCD    2479479653
        0x00003c0c:    3fcd864a    J..?    DCD    1070433866
        0x00003c10:    4a454eef    .NEJ    DCD    1246056175
        0x00003c14:    3fca7e28    (~.?    DCD    1070235176
    P
        0x00003c18:    5555553e    >UUU    DCD    1431655742
        0x00003c1c:    3fc55555    UU.?    DCD    1069897045
        0x00003c20:    16bebd93    ....    DCD    381599123
        0x00003c24:    bf66c16c    l.f.    DCD    3211182444
        0x00003c28:    af25de2c    ,.%.    DCD    2938494508
        0x00003c2c:    3f11566a    jV.?    DCD    1058100842
        0x00003c30:    c5d26bf1    .k..    DCD    3318901745
        0x00003c34:    bebbbd41    A...    DCD    3199974721
        0x00003c38:    72bea4d0    ...r    DCD    1925096656
        0x00003c3c:    3e663769    i7f>    DCD    1046886249
    .constdata
    __mathlib_zero
        0x00003c40:    00000000    ....    DCD    0
        0x00003c44:    00000000    ....    DCD    0
    .conststring
        0x00003c48:    2d2d2b0a    .+--    DCD    757934858
        0x00003c4c:    2d2d2d2d    ----    DCD    757935405
        0x00003c50:    2d2d2d2d    ----    DCD    757935405
        0x00003c54:    2d2d2d2d    ----    DCD    757935405
        0x00003c58:    2d2d2d2d    ----    DCD    757935405
        0x00003c5c:    2d2d2d2d    ----    DCD    757935405
        0x00003c60:    2d2d2d2d    ----    DCD    757935405
        0x00003c64:    2d2d2d2d    ----    DCD    757935405
        0x00003c68:    2d2d2d2d    ----    DCD    757935405
        0x00003c6c:    2d2d2d2d    ----    DCD    757935405
        0x00003c70:    2d2d2d2d    ----    DCD    757935405
        0x00003c74:    2d2d2d2d    ----    DCD    757935405
        0x00003c78:    2d2d2d2d    ----    DCD    757935405
        0x00003c7c:    2d2d2d2d    ----    DCD    757935405
        0x00003c80:    2d2d2d2d    ----    DCD    757935405
        0x00003c84:    2d2d2d2d    ----    DCD    757935405
        0x00003c88:    2d2d2d2d    ----    DCD    757935405
        0x00003c8c:    2d2d2d2d    ----    DCD    757935405
        0x00003c90:    000a2b2d    -+..    DCD    666413
        0x00003c94:    2d2d2d2b    +---    DCD    757935403
        0x00003c98:    2d2d2d2d    ----    DCD    757935405
        0x00003c9c:    2d2d2d2d    ----    DCD    757935405
        0x00003ca0:    2d2d2d2d    ----    DCD    757935405
        0x00003ca4:    2d2d2d2d    ----    DCD    757935405
        0x00003ca8:    2d2d2d2d    ----    DCD    757935405
        0x00003cac:    2d2d2d2d    ----    DCD    757935405
        0x00003cb0:    2d2d2d2d    ----    DCD    757935405
        0x00003cb4:    2d2d2d2d    ----    DCD    757935405
        0x00003cb8:    2d2d2d2d    ----    DCD    757935405
        0x00003cbc:    2d2d2d2d    ----    DCD    757935405
        0x00003cc0:    2d2d2d2d    ----    DCD    757935405
        0x00003cc4:    2d2d2d2d    ----    DCD    757935405
        0x00003cc8:    2d2d2d2d    ----    DCD    757935405
        0x00003ccc:    2d2d2d2d    ----    DCD    757935405
        0x00003cd0:    2d2d2d2d    ----    DCD    757935405
        0x00003cd4:    2d2d2d2d    ----    DCD    757935405
        0x00003cd8:    2d2d2d2d    ----    DCD    757935405
        0x00003cdc:    00000a2b    +...    DCD    2603
        0x00003ce0:    2020207c    |       DCD    538976380
        0x00003ce4:    20202020            DCD    538976288
        0x00003ce8:    20202020            DCD    538976288
        0x00003cec:    20202020            DCD    538976288
        0x00003cf0:    20202020            DCD    538976288
        0x00003cf4:    20202020            DCD    538976288
        0x00003cf8:    42414c20     LAB    DCD    1111575584
        0x00003cfc:    202d2038    8 -     DCD    539828280
        0x00003d00:    6863614d    Mach    DCD    1751343437
        0x00003d04:    20656e69    ine     DCD    543518313
        0x00003d08:    7261654c    Lear    DCD    1918985548
        0x00003d0c:    676e696e    ning    DCD    1735289198
        0x00003d10:    20202020            DCD    538976288
        0x00003d14:    20202020            DCD    538976288
        0x00003d18:    20202020            DCD    538976288
        0x00003d1c:    20202020            DCD    538976288
        0x00003d20:    20202020            DCD    538976288
        0x00003d24:    20202020            DCD    538976288
        0x00003d28:    00000a7c    |...    DCD    2684
    Region$$Table$$Base
        0x00003d2c:    00003d4c    L=..    DCD    15692
        0x00003d30:    20000000    ...     DCD    536870912
        0x00003d34:    00000d78    x...    DCD    3448
        0x00003d38:    000016b8    ....    DCD    5816
        0x00003d3c:    00004ac4    .J..    DCD    19140
        0x00003d40:    20000d78    x..     DCD    536874360
        0x00003d44:    00000868    h...    DCD    2152
        0x00003d48:    000016c8    ....    DCD    5832
    Region$$Table$$Limit

** Section #2 'ER_RW' (SHT_PROGBITS) [SHF_ALLOC + SHF_WRITE]
    Size   : 3448 bytes (alignment 4)
    Address: 0x20000000


** Section #3 'ER_ZI' (SHT_NOBITS) [SHF_ALLOC + SHF_WRITE]
    Size   : 2152 bytes (alignment 8)
    Address: 0x20000d78


** Section #4 '.debug_abbrev' (SHT_PROGBITS)
    Size   : 1476 bytes


** Section #5 '.debug_frame' (SHT_PROGBITS)
    Size   : 3128 bytes


** Section #6 '.debug_info' (SHT_PROGBITS)
    Size   : 28420 bytes


** Section #7 '.debug_line' (SHT_PROGBITS)
    Size   : 8744 bytes


** Section #8 '.debug_loc' (SHT_PROGBITS)
    Size   : 4124 bytes


** Section #9 '.debug_macinfo' (SHT_PROGBITS)
    Size   : 247532 bytes


** Section #10 '.debug_pubnames' (SHT_PROGBITS)
    Size   : 1718 bytes


** Section #11 '.symtab' (SHT_SYMTAB)
    Size   : 8688 bytes (alignment 4)
    String table #12 '.strtab'
    Last local symbol no. 325


** Section #12 '.strtab' (SHT_STRTAB)
    Size   : 5956 bytes


** Section #13 '.note' (SHT_NOTE)
    Size   : 28 bytes (alignment 4)


** Section #14 '.comment' (SHT_PROGBITS)
    Size   : 9128 bytes


** Section #15 '.shstrtab' (SHT_STRTAB)
    Size   : 156 bytes


