
========================================================================

** ELF Header Information

    File Name: .\obj\I2C_Master.axf

    Machine class: ELFCLASS32 (32-bit)
    Data encoding: ELFDATA2LSB (Little endian)
    Header version: EV_CURRENT (Current version)
    Operating System ABI: none
    ABI Version: 0
    File Type: ET_EXEC (Executable) (2)
    Machine: EM_ARM (ARM)

    Image Entry point: 0x000000f1
    Flags: EF_ARM_HASENTRY + EF_ARM_ABI_FLOAT_SOFT (0x05000202)

    ARM ELF revision: 5 (ABI version 2)

    Conforms to Soft float procedure-call standard

    Built with
    Component: ARM Compiler 5.06 update 5 (build 528) Tool: armasm [4d35e1]
    Component: ARM Compiler 5.06 update 5 (build 528) Tool: armlink [4d35e2]

    Header size: 52 bytes (0x34)
    Program header entry size: 32 bytes (0x20)
    Section header entry size: 40 bytes (0x28)

    Program header entries: 1
    Section header entries: 16

    Program header offset: 305264 (0x0004a870)
    Section header offset: 305296 (0x0004a890)

    Section header string table index: 15

========================================================================

** Program header #0 (PT_LOAD) [PF_X + PF_W + PF_R + PF_ARM_ENTRY]
    Size : 9256 bytes (8228 bytes in file)
    Virtual address: 0x00000000 (Alignment 8)


========================================================================

** Section #1 'ER_RO' (SHT_PROGBITS) [SHF_ALLOC + SHF_EXECINSTR]
    Size   : 8160 bytes (alignment 4)
    Address: 0x00000000

    $d.realdata
    RESET
    __Vectors
        0x00000000:    20000448    H..     DCD    536872008
        0x00000004:    000000f1    ....    DCD    241
        0x00000008:    00000111    ....    DCD    273
        0x0000000c:    000000d5    ....    DCD    213
        0x00000010:    00000000    ....    DCD    0
        0x00000014:    00000000    ....    DCD    0
        0x00000018:    00000000    ....    DCD    0
        0x0000001c:    00000000    ....    DCD    0
        0x00000020:    00000000    ....    DCD    0
        0x00000024:    00000000    ....    DCD    0
        0x00000028:    00000000    ....    DCD    0
        0x0000002c:    00000115    ....    DCD    277
        0x00000030:    00000000    ....    DCD    0
        0x00000034:    00000000    ....    DCD    0
        0x00000038:    00000117    ....    DCD    279
        0x0000003c:    00000119    ....    DCD    281
        0x00000040:    0000011b    ....    DCD    283
        0x00000044:    0000011b    ....    DCD    283
        0x00000048:    0000011b    ....    DCD    283
        0x0000004c:    0000011b    ....    DCD    283
        0x00000050:    0000011b    ....    DCD    283
        0x00000054:    0000011b    ....    DCD    283
        0x00000058:    0000011b    ....    DCD    283
        0x0000005c:    0000011b    ....    DCD    283
        0x00000060:    0000011b    ....    DCD    283
        0x00000064:    0000011b    ....    DCD    283
        0x00000068:    0000011b    ....    DCD    283
        0x0000006c:    0000011b    ....    DCD    283
        0x00000070:    0000011b    ....    DCD    283
        0x00000074:    0000011b    ....    DCD    283
        0x00000078:    0000011b    ....    DCD    283
        0x0000007c:    0000011b    ....    DCD    283
        0x00000080:    0000011b    ....    DCD    283
        0x00000084:    0000011b    ....    DCD    283
        0x00000088:    00000f05    ....    DCD    3845
        0x0000008c:    0000011b    ....    DCD    283
        0x00000090:    0000011b    ....    DCD    283
        0x00000094:    0000011b    ....    DCD    283
        0x00000098:    0000011b    ....    DCD    283
        0x0000009c:    0000011b    ....    DCD    283
        0x000000a0:    0000011b    ....    DCD    283
        0x000000a4:    0000011b    ....    DCD    283
        0x000000a8:    0000011b    ....    DCD    283
        0x000000ac:    0000011b    ....    DCD    283
        0x000000b0:    0000011b    ....    DCD    283
        0x000000b4:    0000011b    ....    DCD    283
        0x000000b8:    0000011b    ....    DCD    283
        0x000000bc:    0000011b    ....    DCD    283
    $t
    .ARM.Collect$$$$00000000
    .ARM.Collect$$$$00000001
    __main
    _main_stk
        0x000000c0:    4803        .H      LDR      r0,__lit__00000000 ; [0xd0] = 0x20000448
        0x000000c2:    4685        .F      MOV      sp,r0
    .ARM.Collect$$$$00000004
    _main_scatterload
        0x000000c4:    f000fb38    ..8.    BL       __scatterload ; 0x738
    .ARM.Collect$$$$00000008
    .ARM.Collect$$$$0000000A
    .ARM.Collect$$$$0000000B
    __main_after_scatterload
    _main_clock
    _main_cpp_init
    _main_init
        0x000000c8:    4800        .H      LDR      r0,[pc,#0] ; [0xcc] = 0x1bf1
        0x000000ca:    4700        .G      BX       r0
    $d
        0x000000cc:    00001bf1    ....    DCD    7153
    .ARM.Collect$$$$00002712
    __lit__00000000
    .ARM.Collect$$$$0000000D
    .ARM.Collect$$$$0000000F
    __rt_final_cpp
    __rt_final_exit
        0x000000d0:    20000448    H..     DCD    536872008
    $t
    .emb_text
    HardFault_Handler
        0x000000d4:    2004        .       MOVS     r0,#4
        0x000000d6:    4671        qF      MOV      r1,lr
        0x000000d8:    4208        .B      TST      r0,r1
        0x000000da:    d002        ..      BEQ      0xe2 ; HardFault_Handler + 14
        0x000000dc:    f3ef8009    ....    MRS      r0,PSP
        0x000000e0:    e001        ..      B        0xe6 ; HardFault_Handler + 18
        0x000000e2:    f3ef8008    ....    MRS      r0,MSP
        0x000000e6:    4671        qF      MOV      r1,lr
        0x000000e8:    4a00        .J      LDR      r2,[pc,#0] ; [0xec] = 0xedd
        0x000000ea:    4710        .G      BX       r2
    $d
        0x000000ec:    00000edd    ....    DCD    3805
    $t
    .text
    Reset_Handler
        0x000000f0:    480a        .H      LDR      r0,[pc,#40] ; [0x11c] = 0x50000100
        0x000000f2:    490b        .I      LDR      r1,[pc,#44] ; [0x120] = 0x59
        0x000000f4:    6001        .`      STR      r1,[r0,#0]
        0x000000f6:    490b        .I      LDR      r1,[pc,#44] ; [0x124] = 0x16
        0x000000f8:    6001        .`      STR      r1,[r0,#0]
        0x000000fa:    490b        .I      LDR      r1,[pc,#44] ; [0x128] = 0x88
        0x000000fc:    6001        .`      STR      r1,[r0,#0]
        0x000000fe:    4a0b        .J      LDR      r2,[pc,#44] ; [0x12c] = 0x50000024
        0x00000100:    490b        .I      LDR      r1,[pc,#44] ; [0x130] = 0x5aa5
        0x00000102:    6011        .`      STR      r1,[r2,#0]
        0x00000104:    2100        .!      MOVS     r1,#0
        0x00000106:    6001        .`      STR      r1,[r0,#0]
        0x00000108:    480a        .H      LDR      r0,[pc,#40] ; [0x134] = 0x1225
        0x0000010a:    4780        .G      BLX      r0
        0x0000010c:    480a        .H      LDR      r0,[pc,#40] ; [0x138] = 0xc1
        0x0000010e:    4700        .G      BX       r0
    NMI_Handler
        0x00000110:    e7fe        ..      B        NMI_Handler ; 0x110
        0x00000112:    e7fe        ..      B        0x112 ; NMI_Handler + 2
    SVC_Handler
        0x00000114:    e7fe        ..      B        SVC_Handler ; 0x114
    PendSV_Handler
        0x00000116:    e7fe        ..      B        PendSV_Handler ; 0x116
    SysTick_Handler
        0x00000118:    e7fe        ..      B        SysTick_Handler ; 0x118
    Default_Handler
    ACMP_IRQHandler
    ADC_IRQHandler
    BOD_IRQHandler
    CAN0_IRQHandler
    CAN1_IRQHandler
    EINT0_IRQHandler
    EINT1_IRQHandler
    GPAB_IRQHandler
    GPCDEF_IRQHandler
    I2C1_IRQHandler
    I2S_IRQHandler
    PDMA_IRQHandler
    PS2_IRQHandler
    PWMA_IRQHandler
    PWMB_IRQHandler
    PWRWU_IRQHandler
    RTC_IRQHandler
    SC012_IRQHandler
    SPI0_IRQHandler
    SPI1_IRQHandler
    SPI2_IRQHandler
    SPI3_IRQHandler
    TMR0_IRQHandler
    TMR1_IRQHandler
    TMR2_IRQHandler
    TMR3_IRQHandler
    UART02_IRQHandler
    UART1_IRQHandler
    USBD_IRQHandler
    WDT_IRQHandler
        0x0000011a:    e7fe        ..      B        Default_Handler ; 0x11a
    $d
        0x0000011c:    50000100    ...P    DCD    1342177536
        0x00000120:    00000059    Y...    DCD    89
        0x00000124:    00000016    ....    DCD    22
        0x00000128:    00000088    ....    DCD    136
        0x0000012c:    50000024    $..P    DCD    1342177316
        0x00000130:    00005aa5    .Z..    DCD    23205
        0x00000134:    00001225    %...    DCD    4645
        0x00000138:    000000c1    ....    DCD    193
    $t
    .text
    __aeabi_uidiv
    __aeabi_uidivmod
        0x0000013c:    b530        0.      PUSH     {r4,r5,lr}
        0x0000013e:    460b        .F      MOV      r3,r1
        0x00000140:    4601        .F      MOV      r1,r0
        0x00000142:    2000        .       MOVS     r0,#0
        0x00000144:    2220         "      MOVS     r2,#0x20
        0x00000146:    2401        .$      MOVS     r4,#1
        0x00000148:    e009        ..      B        0x15e ; __aeabi_uidiv + 34
        0x0000014a:    460d        .F      MOV      r5,r1
        0x0000014c:    40d5        .@      LSRS     r5,r5,r2
        0x0000014e:    429d        .B      CMP      r5,r3
        0x00000150:    d305        ..      BCC      0x15e ; __aeabi_uidiv + 34
        0x00000152:    461d        .F      MOV      r5,r3
        0x00000154:    4095        .@      LSLS     r5,r5,r2
        0x00000156:    1b49        I.      SUBS     r1,r1,r5
        0x00000158:    4625        %F      MOV      r5,r4
        0x0000015a:    4095        .@      LSLS     r5,r5,r2
        0x0000015c:    1940        @.      ADDS     r0,r0,r5
        0x0000015e:    4615        .F      MOV      r5,r2
        0x00000160:    1e52        R.      SUBS     r2,r2,#1
        0x00000162:    2d00        .-      CMP      r5,#0
        0x00000164:    dcf1        ..      BGT      0x14a ; __aeabi_uidiv + 14
        0x00000166:    bd30        0.      POP      {r4,r5,pc}
    .text
    __aeabi_idiv
    __aeabi_idivmod
        0x00000168:    b570        p.      PUSH     {r4-r6,lr}
        0x0000016a:    2400        .$      MOVS     r4,#0
        0x0000016c:    4625        %F      MOV      r5,r4
        0x0000016e:    2800        .(      CMP      r0,#0
        0x00000170:    da01        ..      BGE      0x176 ; __aeabi_idiv + 14
        0x00000172:    2401        .$      MOVS     r4,#1
        0x00000174:    4240        @B      RSBS     r0,r0,#0
        0x00000176:    2900        .)      CMP      r1,#0
        0x00000178:    da01        ..      BGE      0x17e ; __aeabi_idiv + 22
        0x0000017a:    2501        .%      MOVS     r5,#1
        0x0000017c:    4249        IB      RSBS     r1,r1,#0
        0x0000017e:    f7ffffdd    ....    BL       __aeabi_uidiv ; 0x13c
        0x00000182:    42ac        .B      CMP      r4,r5
        0x00000184:    d000        ..      BEQ      0x188 ; __aeabi_idiv + 32
        0x00000186:    4240        @B      RSBS     r0,r0,#0
        0x00000188:    2c00        .,      CMP      r4,#0
        0x0000018a:    d000        ..      BEQ      0x18e ; __aeabi_idiv + 38
        0x0000018c:    4249        IB      RSBS     r1,r1,#0
        0x0000018e:    bd70        p.      POP      {r4-r6,pc}
    .text
    __aeabi_fadd
        0x00000190:    b5f8        ..      PUSH     {r3-r7,lr}
        0x00000192:    4602        .F      MOV      r2,r0
        0x00000194:    404a        J@      EORS     r2,r2,r1
        0x00000196:    0fd4        ..      LSRS     r4,r2,#31
        0x00000198:    0042        B.      LSLS     r2,r0,#1
        0x0000019a:    004b        K.      LSLS     r3,r1,#1
        0x0000019c:    0852        R.      LSRS     r2,r2,#1
        0x0000019e:    085b        [.      LSRS     r3,r3,#1
        0x000001a0:    429a        .B      CMP      r2,r3
        0x000001a2:    d202        ..      BCS      0x1aa ; __aeabi_fadd + 26
        0x000001a4:    4602        .F      MOV      r2,r0
        0x000001a6:    4608        .F      MOV      r0,r1
        0x000001a8:    4611        .F      MOV      r1,r2
        0x000001aa:    004a        J.      LSLS     r2,r1,#1
        0x000001ac:    d023        #.      BEQ      0x1f6 ; __aeabi_fadd + 102
        0x000001ae:    0dc3        ..      LSRS     r3,r0,#23
        0x000001b0:    004a        J.      LSLS     r2,r1,#1
        0x000001b2:    b2dd        ..      UXTB     r5,r3
        0x000001b4:    0e12        ..      LSRS     r2,r2,#24
        0x000001b6:    1aad        ..      SUBS     r5,r5,r2
        0x000001b8:    2d20         -      CMP      r5,#0x20
        0x000001ba:    da35        5.      BGE      0x228 ; __aeabi_fadd + 152
        0x000001bc:    0249        I.      LSLS     r1,r1,#9
        0x000001be:    2601        .&      MOVS     r6,#1
        0x000001c0:    0a49        I.      LSRS     r1,r1,#9
        0x000001c2:    05f6        ..      LSLS     r6,r6,#23
        0x000001c4:    198a        ..      ADDS     r2,r1,r6
        0x000001c6:    2c00        .,      CMP      r4,#0
        0x000001c8:    d000        ..      BEQ      0x1cc ; __aeabi_fadd + 60
        0x000001ca:    4252        RB      RSBS     r2,r2,#0
        0x000001cc:    2120         !      MOVS     r1,#0x20
        0x000001ce:    1b4f        O.      SUBS     r7,r1,r5
        0x000001d0:    4611        .F      MOV      r1,r2
        0x000001d2:    40b9        .@      LSLS     r1,r1,r7
        0x000001d4:    412a        *A      ASRS     r2,r2,r5
        0x000001d6:    1810        ..      ADDS     r0,r2,r0
        0x000001d8:    0dc2        ..      LSRS     r2,r0,#23
        0x000001da:    429a        .B      CMP      r2,r3
        0x000001dc:    d021        !.      BEQ      0x222 ; __aeabi_fadd + 146
        0x000001de:    2c00        .,      CMP      r4,#0
        0x000001e0:    d017        ..      BEQ      0x212 ; __aeabi_fadd + 130
        0x000001e2:    2d01        .-      CMP      r5,#1
        0x000001e4:    dc08        ..      BGT      0x1f8 ; __aeabi_fadd + 104
        0x000001e6:    05da        ..      LSLS     r2,r3,#23
        0x000001e8:    1a80        ..      SUBS     r0,r0,r2
        0x000001ea:    0fd2        ..      LSRS     r2,r2,#31
        0x000001ec:    1980        ..      ADDS     r0,r0,r6
        0x000001ee:    07d2        ..      LSLS     r2,r2,#31
        0x000001f0:    b2db        ..      UXTB     r3,r3
        0x000001f2:    f000f8a2    ....    BL       _float_epilogue ; 0x33a
        0x000001f6:    bdf8        ..      POP      {r3-r7,pc}
        0x000001f8:    05da        ..      LSLS     r2,r3,#23
        0x000001fa:    1a80        ..      SUBS     r0,r0,r2
        0x000001fc:    2301        .#      MOVS     r3,#1
        0x000001fe:    0040        @.      LSLS     r0,r0,#1
        0x00000200:    061b        ..      LSLS     r3,r3,#24
        0x00000202:    18c0        ..      ADDS     r0,r0,r3
        0x00000204:    1880        ..      ADDS     r0,r0,r2
        0x00000206:    425a        ZB      RSBS     r2,r3,#0
        0x00000208:    1880        ..      ADDS     r0,r0,r2
        0x0000020a:    0fca        ..      LSRS     r2,r1,#31
        0x0000020c:    4310        .C      ORRS     r0,r0,r2
        0x0000020e:    0049        I.      LSLS     r1,r1,#1
        0x00000210:    e007        ..      B        0x222 ; __aeabi_fadd + 146
        0x00000212:    0849        I.      LSRS     r1,r1,#1
        0x00000214:    07c2        ..      LSLS     r2,r0,#31
        0x00000216:    4311        .C      ORRS     r1,r1,r2
        0x00000218:    05da        ..      LSLS     r2,r3,#23
        0x0000021a:    1a80        ..      SUBS     r0,r0,r2
        0x0000021c:    1980        ..      ADDS     r0,r0,r6
        0x0000021e:    0840        @.      LSRS     r0,r0,#1
        0x00000220:    1880        ..      ADDS     r0,r0,r2
        0x00000222:    f000f882    ....    BL       __I$use$fp ; 0x32a
        0x00000226:    bdf8        ..      POP      {r3-r7,pc}
        0x00000228:    0061        a.      LSLS     r1,r4,#1
        0x0000022a:    2201        ."      MOVS     r2,#1
        0x0000022c:    1a51        Q.      SUBS     r1,r2,r1
        0x0000022e:    1b00        ..      SUBS     r0,r0,r4
        0x00000230:    e7f7        ..      B        0x222 ; __aeabi_fadd + 146
    __aeabi_fsub
        0x00000232:    2201        ."      MOVS     r2,#1
        0x00000234:    07d2        ..      LSLS     r2,r2,#31
        0x00000236:    4051        Q@      EORS     r1,r1,r2
        0x00000238:    e7aa        ..      B        __aeabi_fadd ; 0x190
    __aeabi_frsub
        0x0000023a:    2201        ."      MOVS     r2,#1
        0x0000023c:    07d2        ..      LSLS     r2,r2,#31
        0x0000023e:    4050        P@      EORS     r0,r0,r2
        0x00000240:    e7a6        ..      B        __aeabi_fadd ; 0x190
    .text
    __ARM_scalbnf
    scalbnf
        0x00000242:    0042        B.      LSLS     r2,r0,#1
        0x00000244:    d005        ..      BEQ      0x252 ; __ARM_scalbnf + 16
        0x00000246:    0042        B.      LSLS     r2,r0,#1
        0x00000248:    0e12        ..      LSRS     r2,r2,#24
        0x0000024a:    4252        RB      RSBS     r2,r2,#0
        0x0000024c:    428a        .B      CMP      r2,r1
        0x0000024e:    db01        ..      BLT      0x254 ; __ARM_scalbnf + 18
        0x00000250:    2000        .       MOVS     r0,#0
        0x00000252:    4770        pG      BX       lr
        0x00000254:    05c9        ..      LSLS     r1,r1,#23
        0x00000256:    1808        ..      ADDS     r0,r1,r0
        0x00000258:    4770        pG      BX       lr
    .text
    __aeabi_i2f
        0x0000025a:    17c2        ..      ASRS     r2,r0,#31
        0x0000025c:    0fc1        ..      LSRS     r1,r0,#31
        0x0000025e:    4050        P@      EORS     r0,r0,r2
        0x00000260:    b510        ..      PUSH     {r4,lr}
        0x00000262:    1840        @.      ADDS     r0,r0,r1
        0x00000264:    07ca        ..      LSLS     r2,r1,#31
        0x00000266:    2396        .#      MOVS     r3,#0x96
        0x00000268:    2100        .!      MOVS     r1,#0
        0x0000026a:    f000f866    ..f.    BL       _float_epilogue ; 0x33a
        0x0000026e:    bd10        ..      POP      {r4,pc}
    .text
    __aeabi_f2iz
        0x00000270:    0fc2        ..      LSRS     r2,r0,#31
        0x00000272:    0041        A.      LSLS     r1,r0,#1
        0x00000274:    0240        @.      LSLS     r0,r0,#9
        0x00000276:    2301        .#      MOVS     r3,#1
        0x00000278:    0a40        @.      LSRS     r0,r0,#9
        0x0000027a:    05db        ..      LSLS     r3,r3,#23
        0x0000027c:    07d2        ..      LSLS     r2,r2,#31
        0x0000027e:    0e09        ..      LSRS     r1,r1,#24
        0x00000280:    18c0        ..      ADDS     r0,r0,r3
        0x00000282:    297f        .)      CMP      r1,#0x7f
        0x00000284:    da01        ..      BGE      0x28a ; __aeabi_f2iz + 26
        0x00000286:    2000        .       MOVS     r0,#0
        0x00000288:    4770        pG      BX       lr
        0x0000028a:    2996        .)      CMP      r1,#0x96
        0x0000028c:    dc03        ..      BGT      0x296 ; __aeabi_f2iz + 38
        0x0000028e:    2396        .#      MOVS     r3,#0x96
        0x00000290:    1a59        Y.      SUBS     r1,r3,r1
        0x00000292:    40c8        .@      LSRS     r0,r0,r1
        0x00000294:    e001        ..      B        0x29a ; __aeabi_f2iz + 42
        0x00000296:    3996        .9      SUBS     r1,r1,#0x96
        0x00000298:    4088        .@      LSLS     r0,r0,r1
        0x0000029a:    2a00        .*      CMP      r2,#0
        0x0000029c:    d0f4        ..      BEQ      0x288 ; __aeabi_f2iz + 24
        0x0000029e:    4240        @B      RSBS     r0,r0,#0
        0x000002a0:    4770        pG      BX       lr
    .text
    __aeabi_f2d
        0x000002a2:    0fc2        ..      LSRS     r2,r0,#31
        0x000002a4:    07d2        ..      LSLS     r2,r2,#31
        0x000002a6:    0040        @.      LSLS     r0,r0,#1
        0x000002a8:    0840        @.      LSRS     r0,r0,#1
        0x000002aa:    d00b        ..      BEQ      0x2c4 ; __aeabi_f2d + 34
        0x000002ac:    0dc1        ..      LSRS     r1,r0,#23
        0x000002ae:    2307        .#      MOVS     r3,#7
        0x000002b0:    01db        ..      LSLS     r3,r3,#7
        0x000002b2:    18c9        ..      ADDS     r1,r1,r3
        0x000002b4:    0240        @.      LSLS     r0,r0,#9
        0x000002b6:    0509        ..      LSLS     r1,r1,#20
        0x000002b8:    0a40        @.      LSRS     r0,r0,#9
        0x000002ba:    4311        .C      ORRS     r1,r1,r2
        0x000002bc:    08c2        ..      LSRS     r2,r0,#3
        0x000002be:    0740        @.      LSLS     r0,r0,#29
        0x000002c0:    4311        .C      ORRS     r1,r1,r2
        0x000002c2:    4770        pG      BX       lr
        0x000002c4:    2000        .       MOVS     r0,#0
        0x000002c6:    4601        .F      MOV      r1,r0
        0x000002c8:    4770        pG      BX       lr
    .text
    __aeabi_uldivmod
        0x000002ca:    b5f0        ..      PUSH     {r4-r7,lr}
        0x000002cc:    b41f        ..      PUSH     {r0-r4}
        0x000002ce:    4606        .F      MOV      r6,r0
        0x000002d0:    2000        .       MOVS     r0,#0
        0x000002d2:    b082        ..      SUB      sp,sp,#8
        0x000002d4:    4605        .F      MOV      r5,r0
        0x000002d6:    2440        @$      MOVS     r4,#0x40
        0x000002d8:    9101        ..      STR      r1,[sp,#4]
        0x000002da:    9000        ..      STR      r0,[sp,#0]
        0x000002dc:    e01b        ..      B        0x316 ; __aeabi_uldivmod + 76
        0x000002de:    9901        ..      LDR      r1,[sp,#4]
        0x000002e0:    4622        "F      MOV      r2,r4
        0x000002e2:    460f        .F      MOV      r7,r1
        0x000002e4:    4630        0F      MOV      r0,r6
        0x000002e6:    f000fa49    ..I.    BL       __aeabi_llsr ; 0x77c
        0x000002ea:    9a04        ..      LDR      r2,[sp,#0x10]
        0x000002ec:    9b05        ..      LDR      r3,[sp,#0x14]
        0x000002ee:    1a80        ..      SUBS     r0,r0,r2
        0x000002f0:    4199        .A      SBCS     r1,r1,r3
        0x000002f2:    d310        ..      BCC      0x316 ; __aeabi_uldivmod + 76
        0x000002f4:    4610        .F      MOV      r0,r2
        0x000002f6:    4619        .F      MOV      r1,r3
        0x000002f8:    4622        "F      MOV      r2,r4
        0x000002fa:    f000fa2f    ../.    BL       __aeabi_llsl ; 0x75c
        0x000002fe:    1a36        6.      SUBS     r6,r6,r0
        0x00000300:    418f        .A      SBCS     r7,r7,r1
        0x00000302:    9701        ..      STR      r7,[sp,#4]
        0x00000304:    4622        "F      MOV      r2,r4
        0x00000306:    2001        .       MOVS     r0,#1
        0x00000308:    2100        .!      MOVS     r1,#0
        0x0000030a:    9f00        ..      LDR      r7,[sp,#0]
        0x0000030c:    f000fa26    ..&.    BL       __aeabi_llsl ; 0x75c
        0x00000310:    1838        8.      ADDS     r0,r7,r0
        0x00000312:    414d        MA      ADCS     r5,r5,r1
        0x00000314:    9000        ..      STR      r0,[sp,#0]
        0x00000316:    4620         F      MOV      r0,r4
        0x00000318:    1e64        d.      SUBS     r4,r4,#1
        0x0000031a:    2800        .(      CMP      r0,#0
        0x0000031c:    dcdf        ..      BGT      0x2de ; __aeabi_uldivmod + 20
        0x0000031e:    9b01        ..      LDR      r3,[sp,#4]
        0x00000320:    9800        ..      LDR      r0,[sp,#0]
        0x00000322:    4629        )F      MOV      r1,r5
        0x00000324:    4632        2F      MOV      r2,r6
        0x00000326:    b007        ..      ADD      sp,sp,#0x1c
        0x00000328:    bdf0        ..      POP      {r4-r7,pc}
    .text
    .text
    __I$use$fp
    _float_round
        0x0000032a:    2900        .)      CMP      r1,#0
        0x0000032c:    da04        ..      BGE      0x338 ; __I$use$fp + 14
        0x0000032e:    1c40        @.      ADDS     r0,r0,#1
        0x00000330:    0049        I.      LSLS     r1,r1,#1
        0x00000332:    d101        ..      BNE      0x338 ; __I$use$fp + 14
        0x00000334:    0840        @.      LSRS     r0,r0,#1
        0x00000336:    0040        @.      LSLS     r0,r0,#1
        0x00000338:    4770        pG      BX       lr
    _float_epilogue
        0x0000033a:    b470        p.      PUSH     {r4-r6}
        0x0000033c:    2400        .$      MOVS     r4,#0
        0x0000033e:    0c05        ..      LSRS     r5,r0,#16
        0x00000340:    d105        ..      BNE      0x34e ; _float_epilogue + 20
        0x00000342:    2410        .$      MOVS     r4,#0x10
        0x00000344:    0400        ..      LSLS     r0,r0,#16
        0x00000346:    d102        ..      BNE      0x34e ; _float_epilogue + 20
        0x00000348:    2900        .)      CMP      r1,#0
        0x0000034a:    d021        !.      BEQ      0x390 ; _float_epilogue + 86
        0x0000034c:    2411        .$      MOVS     r4,#0x11
        0x0000034e:    0e05        ..      LSRS     r5,r0,#24
        0x00000350:    d101        ..      BNE      0x356 ; _float_epilogue + 28
        0x00000352:    0200        ..      LSLS     r0,r0,#8
        0x00000354:    3408        .4      ADDS     r4,r4,#8
        0x00000356:    0f05        ..      LSRS     r5,r0,#28
        0x00000358:    d101        ..      BNE      0x35e ; _float_epilogue + 36
        0x0000035a:    0100        ..      LSLS     r0,r0,#4
        0x0000035c:    1d24        $.      ADDS     r4,r4,#4
        0x0000035e:    0f85        ..      LSRS     r5,r0,#30
        0x00000360:    d101        ..      BNE      0x366 ; _float_epilogue + 44
        0x00000362:    0080        ..      LSLS     r0,r0,#2
        0x00000364:    1ca4        ..      ADDS     r4,r4,#2
        0x00000366:    2800        .(      CMP      r0,#0
        0x00000368:    db01        ..      BLT      0x36e ; _float_epilogue + 52
        0x0000036a:    0040        @.      LSLS     r0,r0,#1
        0x0000036c:    1c64        d.      ADDS     r4,r4,#1
        0x0000036e:    2900        .)      CMP      r1,#0
        0x00000370:    d008        ..      BEQ      0x384 ; _float_epilogue + 74
        0x00000372:    2520         %      MOVS     r5,#0x20
        0x00000374:    1b2e        ..      SUBS     r6,r5,r4
        0x00000376:    460d        .F      MOV      r5,r1
        0x00000378:    40f5        .@      LSRS     r5,r5,r6
        0x0000037a:    40a1        .@      LSLS     r1,r1,r4
        0x0000037c:    d000        ..      BEQ      0x380 ; _float_epilogue + 70
        0x0000037e:    2101        .!      MOVS     r1,#1
        0x00000380:    4329        )C      ORRS     r1,r1,r5
        0x00000382:    4308        .C      ORRS     r0,r0,r1
        0x00000384:    0601        ..      LSLS     r1,r0,#24
        0x00000386:    1b1b        ..      SUBS     r3,r3,r4
        0x00000388:    0a00        ..      LSRS     r0,r0,#8
        0x0000038a:    1ddb        ..      ADDS     r3,r3,#7
        0x0000038c:    d502        ..      BPL      0x394 ; _float_epilogue + 90
        0x0000038e:    2000        .       MOVS     r0,#0
        0x00000390:    bc70        p.      POP      {r4-r6}
        0x00000392:    4770        pG      BX       lr
        0x00000394:    05db        ..      LSLS     r3,r3,#23
        0x00000396:    1818        ..      ADDS     r0,r3,r0
        0x00000398:    1880        ..      ADDS     r0,r0,r2
        0x0000039a:    2900        .)      CMP      r1,#0
        0x0000039c:    daf8        ..      BGE      0x390 ; _float_epilogue + 86
        0x0000039e:    1c40        @.      ADDS     r0,r0,#1
        0x000003a0:    0049        I.      LSLS     r1,r1,#1
        0x000003a2:    d1f5        ..      BNE      0x390 ; _float_epilogue + 86
        0x000003a4:    bc70        p.      POP      {r4-r6}
        0x000003a6:    0840        @.      LSRS     r0,r0,#1
        0x000003a8:    0040        @.      LSLS     r0,r0,#1
        0x000003aa:    4770        pG      BX       lr
    .text
    __aeabi_dadd
        0x000003ac:    b5f0        ..      PUSH     {r4-r7,lr}
        0x000003ae:    4607        .F      MOV      r7,r0
        0x000003b0:    4608        .F      MOV      r0,r1
        0x000003b2:    4058        X@      EORS     r0,r0,r3
        0x000003b4:    b087        ..      SUB      sp,sp,#0x1c
        0x000003b6:    0fc0        ..      LSRS     r0,r0,#31
        0x000003b8:    9004        ..      STR      r0,[sp,#0x10]
        0x000003ba:    0048        H.      LSLS     r0,r1,#1
        0x000003bc:    460e        .F      MOV      r6,r1
        0x000003be:    0059        Y.      LSLS     r1,r3,#1
        0x000003c0:    0840        @.      LSRS     r0,r0,#1
        0x000003c2:    0849        I.      LSRS     r1,r1,#1
        0x000003c4:    1abc        ..      SUBS     r4,r7,r2
        0x000003c6:    4188        .A      SBCS     r0,r0,r1
        0x000003c8:    d205        ..      BCS      0x3d6 ; __aeabi_dadd + 42
        0x000003ca:    4638        8F      MOV      r0,r7
        0x000003cc:    4631        1F      MOV      r1,r6
        0x000003ce:    461e        .F      MOV      r6,r3
        0x000003d0:    4617        .F      MOV      r7,r2
        0x000003d2:    460b        .F      MOV      r3,r1
        0x000003d4:    4602        .F      MOV      r2,r0
        0x000003d6:    0058        X.      LSLS     r0,r3,#1
        0x000003d8:    0840        @.      LSRS     r0,r0,#1
        0x000003da:    4310        .C      ORRS     r0,r0,r2
        0x000003dc:    d04c        L.      BEQ      0x478 ; __aeabi_dadd + 204
        0x000003de:    0d30        0.      LSRS     r0,r6,#20
        0x000003e0:    9003        ..      STR      r0,[sp,#0xc]
        0x000003e2:    0540        @.      LSLS     r0,r0,#21
        0x000003e4:    0059        Y.      LSLS     r1,r3,#1
        0x000003e6:    0d40        @.      LSRS     r0,r0,#21
        0x000003e8:    0d49        I.      LSRS     r1,r1,#21
        0x000003ea:    9005        ..      STR      r0,[sp,#0x14]
        0x000003ec:    1a40        @.      SUBS     r0,r0,r1
        0x000003ee:    9002        ..      STR      r0,[sp,#8]
        0x000003f0:    2840        @(      CMP      r0,#0x40
        0x000003f2:    da72        r.      BGE      0x4da ; __aeabi_dadd + 302
        0x000003f4:    0318        ..      LSLS     r0,r3,#12
        0x000003f6:    2101        .!      MOVS     r1,#1
        0x000003f8:    0b00        ..      LSRS     r0,r0,#12
        0x000003fa:    0509        ..      LSLS     r1,r1,#20
        0x000003fc:    4308        .C      ORRS     r0,r0,r1
        0x000003fe:    9001        ..      STR      r0,[sp,#4]
        0x00000400:    9804        ..      LDR      r0,[sp,#0x10]
        0x00000402:    9200        ..      STR      r2,[sp,#0]
        0x00000404:    2800        .(      CMP      r0,#0
        0x00000406:    d005        ..      BEQ      0x414 ; __aeabi_dadd + 104
        0x00000408:    9901        ..      LDR      r1,[sp,#4]
        0x0000040a:    4252        RB      RSBS     r2,r2,#0
        0x0000040c:    2000        .       MOVS     r0,#0
        0x0000040e:    4188        .A      SBCS     r0,r0,r1
        0x00000410:    9200        ..      STR      r2,[sp,#0]
        0x00000412:    9001        ..      STR      r0,[sp,#4]
        0x00000414:    9802        ..      LDR      r0,[sp,#8]
        0x00000416:    2140        @!      MOVS     r1,#0x40
        0x00000418:    1a0a        ..      SUBS     r2,r1,r0
        0x0000041a:    9901        ..      LDR      r1,[sp,#4]
        0x0000041c:    9800        ..      LDR      r0,[sp,#0]
        0x0000041e:    f000f99d    ....    BL       __aeabi_llsl ; 0x75c
        0x00000422:    4605        .F      MOV      r5,r0
        0x00000424:    460c        .F      MOV      r4,r1
        0x00000426:    466b        kF      MOV      r3,sp
        0x00000428:    cb07        ..      LDM      r3!,{r0-r2}
        0x0000042a:    f000f9b8    ....    BL       __aeabi_lasr ; 0x79e
        0x0000042e:    19c0        ..      ADDS     r0,r0,r7
        0x00000430:    4171        qA      ADCS     r1,r1,r6
        0x00000432:    9a03        ..      LDR      r2,[sp,#0xc]
        0x00000434:    0d0e        ..      LSRS     r6,r1,#20
        0x00000436:    2300        .#      MOVS     r3,#0
        0x00000438:    17d7        ..      ASRS     r7,r2,#31
        0x0000043a:    4056        V@      EORS     r6,r6,r2
        0x0000043c:    461a        .F      MOV      r2,r3
        0x0000043e:    407a        z@      EORS     r2,r2,r7
        0x00000440:    4316        .C      ORRS     r6,r6,r2
        0x00000442:    d044        D.      BEQ      0x4ce ; __aeabi_dadd + 290
        0x00000444:    9a04        ..      LDR      r2,[sp,#0x10]
        0x00000446:    2a00        .*      CMP      r2,#0
        0x00000448:    d02d        -.      BEQ      0x4a6 ; __aeabi_dadd + 250
        0x0000044a:    9a02        ..      LDR      r2,[sp,#8]
        0x0000044c:    2a01        .*      CMP      r2,#1
        0x0000044e:    9a03        ..      LDR      r2,[sp,#0xc]
        0x00000450:    dc15        ..      BGT      0x47e ; __aeabi_dadd + 210
        0x00000452:    0512        ..      LSLS     r2,r2,#20
        0x00000454:    1ac0        ..      SUBS     r0,r0,r3
        0x00000456:    4191        .A      SBCS     r1,r1,r2
        0x00000458:    2601        .&      MOVS     r6,#1
        0x0000045a:    0536        6.      LSLS     r6,r6,#20
        0x0000045c:    1c00        ..      ADDS     r0,r0,#0
        0x0000045e:    4171        qA      ADCS     r1,r1,r6
        0x00000460:    0fd2        ..      LSRS     r2,r2,#31
        0x00000462:    9e05        ..      LDR      r6,[sp,#0x14]
        0x00000464:    07d2        ..      LSLS     r2,r2,#31
        0x00000466:    9300        ..      STR      r3,[sp,#0]
        0x00000468:    9201        ..      STR      r2,[sp,#4]
        0x0000046a:    9602        ..      STR      r6,[sp,#8]
        0x0000046c:    462a        *F      MOV      r2,r5
        0x0000046e:    4623        #F      MOV      r3,r4
        0x00000470:    f000f9b5    ....    BL       _double_epilogue ; 0x7de
        0x00000474:    b007        ..      ADD      sp,sp,#0x1c
        0x00000476:    bdf0        ..      POP      {r4-r7,pc}
        0x00000478:    4638        8F      MOV      r0,r7
        0x0000047a:    4631        1F      MOV      r1,r6
        0x0000047c:    e7fa        ..      B        0x474 ; __aeabi_dadd + 200
        0x0000047e:    0516        ..      LSLS     r6,r2,#20
        0x00000480:    4a22        "J      LDR      r2,[pc,#136] ; [0x50c] = 0xffe00000
        0x00000482:    460f        .F      MOV      r7,r1
        0x00000484:    18b2        ..      ADDS     r2,r6,r2
        0x00000486:    1ac0        ..      SUBS     r0,r0,r3
        0x00000488:    41b7        .A      SBCS     r7,r7,r6
        0x0000048a:    2101        .!      MOVS     r1,#1
        0x0000048c:    0509        ..      LSLS     r1,r1,#20
        0x0000048e:    1c00        ..      ADDS     r0,r0,#0
        0x00000490:    414f        OA      ADCS     r7,r7,r1
        0x00000492:    1800        ..      ADDS     r0,r0,r0
        0x00000494:    417f        .A      ADCS     r7,r7,r7
        0x00000496:    4611        .F      MOV      r1,r2
        0x00000498:    1818        ..      ADDS     r0,r3,r0
        0x0000049a:    4179        yA      ADCS     r1,r1,r7
        0x0000049c:    0fe2        ..      LSRS     r2,r4,#31
        0x0000049e:    4310        .C      ORRS     r0,r0,r2
        0x000004a0:    196d        m.      ADDS     r5,r5,r5
        0x000004a2:    4164        dA      ADCS     r4,r4,r4
        0x000004a4:    e013        ..      B        0x4ce ; __aeabi_dadd + 290
        0x000004a6:    07e2        ..      LSLS     r2,r4,#31
        0x000004a8:    086d        m.      LSRS     r5,r5,#1
        0x000004aa:    4315        .C      ORRS     r5,r5,r2
        0x000004ac:    0864        d.      LSRS     r4,r4,#1
        0x000004ae:    07c2        ..      LSLS     r2,r0,#31
        0x000004b0:    4314        .C      ORRS     r4,r4,r2
        0x000004b2:    9a03        ..      LDR      r2,[sp,#0xc]
        0x000004b4:    2601        .&      MOVS     r6,#1
        0x000004b6:    0512        ..      LSLS     r2,r2,#20
        0x000004b8:    1ac0        ..      SUBS     r0,r0,r3
        0x000004ba:    4191        .A      SBCS     r1,r1,r2
        0x000004bc:    0536        6.      LSLS     r6,r6,#20
        0x000004be:    1c00        ..      ADDS     r0,r0,#0
        0x000004c0:    4171        qA      ADCS     r1,r1,r6
        0x000004c2:    07ce        ..      LSLS     r6,r1,#31
        0x000004c4:    0840        @.      LSRS     r0,r0,#1
        0x000004c6:    4330        0C      ORRS     r0,r0,r6
        0x000004c8:    0849        I.      LSRS     r1,r1,#1
        0x000004ca:    18c0        ..      ADDS     r0,r0,r3
        0x000004cc:    4151        QA      ADCS     r1,r1,r2
        0x000004ce:    462a        *F      MOV      r2,r5
        0x000004d0:    4623        #F      MOV      r3,r4
        0x000004d2:    f000f977    ..w.    BL       _double_round ; 0x7c4
        0x000004d6:    e7cd        ..      B        0x474 ; __aeabi_dadd + 200
        0x000004d8:    e7ff        ..      B        0x4da ; __aeabi_dadd + 302
        0x000004da:    9804        ..      LDR      r0,[sp,#0x10]
        0x000004dc:    2201        ."      MOVS     r2,#1
        0x000004de:    0040        @.      LSLS     r0,r0,#1
        0x000004e0:    17c1        ..      ASRS     r1,r0,#31
        0x000004e2:    1a12        ..      SUBS     r2,r2,r0
        0x000004e4:    2300        .#      MOVS     r3,#0
        0x000004e6:    418b        .A      SBCS     r3,r3,r1
        0x000004e8:    9804        ..      LDR      r0,[sp,#0x10]
        0x000004ea:    4631        1F      MOV      r1,r6
        0x000004ec:    17c4        ..      ASRS     r4,r0,#31
        0x000004ee:    1a38        8.      SUBS     r0,r7,r0
        0x000004f0:    41a1        .A      SBCS     r1,r1,r4
        0x000004f2:    e7ee        ..      B        0x4d2 ; __aeabi_dadd + 294
    __aeabi_dsub
        0x000004f4:    b430        0.      PUSH     {r4,r5}
        0x000004f6:    2401        .$      MOVS     r4,#1
        0x000004f8:    07e4        ..      LSLS     r4,r4,#31
        0x000004fa:    4063        c@      EORS     r3,r3,r4
        0x000004fc:    bc30        0.      POP      {r4,r5}
        0x000004fe:    e755        U.      B        __aeabi_dadd ; 0x3ac
    __aeabi_drsub
        0x00000500:    b430        0.      PUSH     {r4,r5}
        0x00000502:    2401        .$      MOVS     r4,#1
        0x00000504:    07e4        ..      LSLS     r4,r4,#31
        0x00000506:    4061        a@      EORS     r1,r1,r4
        0x00000508:    bc30        0.      POP      {r4,r5}
        0x0000050a:    e74f        O.      B        __aeabi_dadd ; 0x3ac
    $d
        0x0000050c:    ffe00000    ....    DCD    4292870144
    $t
    .text
    __aeabi_dmul
        0x00000510:    b5f0        ..      PUSH     {r4-r7,lr}
        0x00000512:    b41f        ..      PUSH     {r0-r4}
        0x00000514:    b088        ..      SUB      sp,sp,#0x20
        0x00000516:    990b        ..      LDR      r1,[sp,#0x2c]
        0x00000518:    9809        ..      LDR      r0,[sp,#0x24]
        0x0000051a:    2400        .$      MOVS     r4,#0
        0x0000051c:    4048        H@      EORS     r0,r0,r1
        0x0000051e:    9909        ..      LDR      r1,[sp,#0x24]
        0x00000520:    0fc0        ..      LSRS     r0,r0,#31
        0x00000522:    0049        I.      LSLS     r1,r1,#1
        0x00000524:    0849        I.      LSRS     r1,r1,#1
        0x00000526:    9109        ..      STR      r1,[sp,#0x24]
        0x00000528:    07c0        ..      LSLS     r0,r0,#31
        0x0000052a:    990b        ..      LDR      r1,[sp,#0x2c]
        0x0000052c:    9000        ..      STR      r0,[sp,#0]
        0x0000052e:    0049        I.      LSLS     r1,r1,#1
        0x00000530:    0849        I.      LSRS     r1,r1,#1
        0x00000532:    910b        ..      STR      r1,[sp,#0x2c]
        0x00000534:    9909        ..      LDR      r1,[sp,#0x24]
        0x00000536:    9808        ..      LDR      r0,[sp,#0x20]
        0x00000538:    46a6        .F      MOV      lr,r4
        0x0000053a:    4308        .C      ORRS     r0,r0,r1
        0x0000053c:    d01c        ..      BEQ      0x578 ; __aeabi_dmul + 104
        0x0000053e:    990b        ..      LDR      r1,[sp,#0x2c]
        0x00000540:    980a        ..      LDR      r0,[sp,#0x28]
        0x00000542:    4308        .C      ORRS     r0,r0,r1
        0x00000544:    d018        ..      BEQ      0x578 ; __aeabi_dmul + 104
        0x00000546:    9809        ..      LDR      r0,[sp,#0x24]
        0x00000548:    2401        .$      MOVS     r4,#1
        0x0000054a:    0040        @.      LSLS     r0,r0,#1
        0x0000054c:    0d42        B.      LSRS     r2,r0,#21
        0x0000054e:    0048        H.      LSLS     r0,r1,#1
        0x00000550:    0d41        A.      LSRS     r1,r0,#21
        0x00000552:    9809        ..      LDR      r0,[sp,#0x24]
        0x00000554:    0524        $.      LSLS     r4,r4,#20
        0x00000556:    0300        ..      LSLS     r0,r0,#12
        0x00000558:    0b00        ..      LSRS     r0,r0,#12
        0x0000055a:    4320         C      ORRS     r0,r0,r4
        0x0000055c:    9009        ..      STR      r0,[sp,#0x24]
        0x0000055e:    980b        ..      LDR      r0,[sp,#0x2c]
        0x00000560:    0300        ..      LSLS     r0,r0,#12
        0x00000562:    0b00        ..      LSRS     r0,r0,#12
        0x00000564:    4320         C      ORRS     r0,r0,r4
        0x00000566:    900b        ..      STR      r0,[sp,#0x2c]
        0x00000568:    1850        P.      ADDS     r0,r2,r1
        0x0000056a:    491c        .I      LDR      r1,[pc,#112] ; [0x5dc] = 0xfffffc0d
        0x0000056c:    1840        @.      ADDS     r0,r0,r1
        0x0000056e:    2200        ."      MOVS     r2,#0
        0x00000570:    9001        ..      STR      r0,[sp,#4]
        0x00000572:    4614        .F      MOV      r4,r2
        0x00000574:    4610        .F      MOV      r0,r2
        0x00000576:    e005        ..      B        0x584 ; __aeabi_dmul + 116
        0x00000578:    2000        .       MOVS     r0,#0
        0x0000057a:    4601        .F      MOV      r1,r0
        0x0000057c:    b00d        ..      ADD      sp,sp,#0x34
        0x0000057e:    bdf0        ..      POP      {r4-r7,pc}
        0x00000580:    2803        .(      CMP      r0,#3
        0x00000582:    da01        ..      BGE      0x588 ; __aeabi_dmul + 120
        0x00000584:    4603        .F      MOV      r3,r0
        0x00000586:    e000        ..      B        0x58a ; __aeabi_dmul + 122
        0x00000588:    2303        .#      MOVS     r3,#3
        0x0000058a:    469c        .F      MOV      r12,r3
        0x0000058c:    1ac1        ..      SUBS     r1,r0,r3
        0x0000058e:    ae0a        ..      ADD      r6,sp,#0x28
        0x00000590:    e00a        ..      B        0x5a8 ; __aeabi_dmul + 152
        0x00000592:    005f        _.      LSLS     r7,r3,#1
        0x00000594:    ad08        ..      ADD      r5,sp,#0x20
        0x00000596:    5bed        .[      LDRH     r5,[r5,r7]
        0x00000598:    004f        O.      LSLS     r7,r1,#1
        0x0000059a:    5bf7        .[      LDRH     r7,[r6,r7]
        0x0000059c:    437d        }C      MULS     r5,r7,r5
        0x0000059e:    2700        .'      MOVS     r7,#0
        0x000005a0:    18aa        ..      ADDS     r2,r5,r2
        0x000005a2:    417c        |A      ADCS     r4,r4,r7
        0x000005a4:    1c49        I.      ADDS     r1,r1,#1
        0x000005a6:    1e5b        [.      SUBS     r3,r3,#1
        0x000005a8:    4561        aE      CMP      r1,r12
        0x000005aa:    ddf2        ..      BLE      0x592 ; __aeabi_dmul + 130
        0x000005ac:    0041        A.      LSLS     r1,r0,#1
        0x000005ae:    ab04        ..      ADD      r3,sp,#0x10
        0x000005b0:    525a        ZR      STRH     r2,[r3,r1]
        0x000005b2:    0421        !.      LSLS     r1,r4,#16
        0x000005b4:    0c12        ..      LSRS     r2,r2,#16
        0x000005b6:    430a        .C      ORRS     r2,r2,r1
        0x000005b8:    0c24        $.      LSRS     r4,r4,#16
        0x000005ba:    1c40        @.      ADDS     r0,r0,#1
        0x000005bc:    2808        .(      CMP      r0,#8
        0x000005be:    dbdf        ..      BLT      0x580 ; __aeabi_dmul + 112
        0x000005c0:    9801        ..      LDR      r0,[sp,#4]
        0x000005c2:    9002        ..      STR      r0,[sp,#8]
        0x000005c4:    9900        ..      LDR      r1,[sp,#0]
        0x000005c6:    4670        pF      MOV      r0,lr
        0x000005c8:    9101        ..      STR      r1,[sp,#4]
        0x000005ca:    9000        ..      STR      r0,[sp,#0]
        0x000005cc:    9b05        ..      LDR      r3,[sp,#0x14]
        0x000005ce:    9a04        ..      LDR      r2,[sp,#0x10]
        0x000005d0:    9907        ..      LDR      r1,[sp,#0x1c]
        0x000005d2:    9806        ..      LDR      r0,[sp,#0x18]
        0x000005d4:    f000f903    ....    BL       _double_epilogue ; 0x7de
        0x000005d8:    e7d0        ..      B        0x57c ; __aeabi_dmul + 108
    $d
        0x000005da:    0000        ..      DCW    0
        0x000005dc:    fffffc0d    ....    DCD    4294966285
    $t
    .text
    __aeabi_ddiv
        0x000005e0:    b5f0        ..      PUSH     {r4-r7,lr}
        0x000005e2:    460c        .F      MOV      r4,r1
        0x000005e4:    405c        \@      EORS     r4,r4,r3
        0x000005e6:    b085        ..      SUB      sp,sp,#0x14
        0x000005e8:    0fe4        ..      LSRS     r4,r4,#31
        0x000005ea:    07e4        ..      LSLS     r4,r4,#31
        0x000005ec:    9403        ..      STR      r4,[sp,#0xc]
        0x000005ee:    004c        L.      LSLS     r4,r1,#1
        0x000005f0:    2600        .&      MOVS     r6,#0
        0x000005f2:    0864        d.      LSRS     r4,r4,#1
        0x000005f4:    0059        Y.      LSLS     r1,r3,#1
        0x000005f6:    4694        .F      MOV      r12,r2
        0x000005f8:    0849        I.      LSRS     r1,r1,#1
        0x000005fa:    4602        .F      MOV      r2,r0
        0x000005fc:    9602        ..      STR      r6,[sp,#8]
        0x000005fe:    4322        "C      ORRS     r2,r2,r4
        0x00000600:    d021        !.      BEQ      0x646 ; __aeabi_ddiv + 102
        0x00000602:    4662        bF      MOV      r2,r12
        0x00000604:    430a        .C      ORRS     r2,r2,r1
        0x00000606:    d01e        ..      BEQ      0x646 ; __aeabi_ddiv + 102
        0x00000608:    0062        b.      LSLS     r2,r4,#1
        0x0000060a:    0d57        W.      LSRS     r7,r2,#21
        0x0000060c:    004a        J.      LSLS     r2,r1,#1
        0x0000060e:    030e        ..      LSLS     r6,r1,#12
        0x00000610:    0323        #.      LSLS     r3,r4,#12
        0x00000612:    0d55        U.      LSRS     r5,r2,#21
        0x00000614:    2401        .$      MOVS     r4,#1
        0x00000616:    4602        .F      MOV      r2,r0
        0x00000618:    492c        ,I      LDR      r1,[pc,#176] ; [0x6cc] = 0x3fd
        0x0000061a:    0524        $.      LSLS     r4,r4,#20
        0x0000061c:    1b78        x.      SUBS     r0,r7,r5
        0x0000061e:    0b1b        ..      LSRS     r3,r3,#12
        0x00000620:    0b36        6.      LSRS     r6,r6,#12
        0x00000622:    1840        @.      ADDS     r0,r0,r1
        0x00000624:    4323        #C      ORRS     r3,r3,r4
        0x00000626:    4326        &C      ORRS     r6,r6,r4
        0x00000628:    4661        aF      MOV      r1,r12
        0x0000062a:    9000        ..      STR      r0,[sp,#0]
        0x0000062c:    461c        .F      MOV      r4,r3
        0x0000062e:    1a50        P.      SUBS     r0,r2,r1
        0x00000630:    41b4        .A      SBCS     r4,r4,r6
        0x00000632:    d303        ..      BCC      0x63c ; __aeabi_ddiv + 92
        0x00000634:    9800        ..      LDR      r0,[sp,#0]
        0x00000636:    1c40        @.      ADDS     r0,r0,#1
        0x00000638:    9000        ..      STR      r0,[sp,#0]
        0x0000063a:    e002        ..      B        0x642 ; __aeabi_ddiv + 98
        0x0000063c:    1892        ..      ADDS     r2,r2,r2
        0x0000063e:    9800        ..      LDR      r0,[sp,#0]
        0x00000640:    415b        [A      ADCS     r3,r3,r3
        0x00000642:    2800        .(      CMP      r0,#0
        0x00000644:    da03        ..      BGE      0x64e ; __aeabi_ddiv + 110
        0x00000646:    2000        .       MOVS     r0,#0
        0x00000648:    4601        .F      MOV      r1,r0
        0x0000064a:    b005        ..      ADD      sp,sp,#0x14
        0x0000064c:    bdf0        ..      POP      {r4-r7,pc}
        0x0000064e:    2000        .       MOVS     r0,#0
        0x00000650:    2101        .!      MOVS     r1,#1
        0x00000652:    0509        ..      LSLS     r1,r1,#20
        0x00000654:    4607        .F      MOV      r7,r0
        0x00000656:    4686        .F      MOV      lr,r0
        0x00000658:    e011        ..      B        0x67e ; __aeabi_ddiv + 158
        0x0000065a:    4664        dF      MOV      r4,r12
        0x0000065c:    461d        .F      MOV      r5,r3
        0x0000065e:    1b14        ..      SUBS     r4,r2,r4
        0x00000660:    41b5        .A      SBCS     r5,r5,r6
        0x00000662:    d306        ..      BCC      0x672 ; __aeabi_ddiv + 146
        0x00000664:    4665        eF      MOV      r5,r12
        0x00000666:    1b52        R.      SUBS     r2,r2,r5
        0x00000668:    41b3        .A      SBCS     r3,r3,r6
        0x0000066a:    4674        tF      MOV      r4,lr
        0x0000066c:    4307        .C      ORRS     r7,r7,r0
        0x0000066e:    430c        .C      ORRS     r4,r4,r1
        0x00000670:    46a6        .F      MOV      lr,r4
        0x00000672:    07cd        ..      LSLS     r5,r1,#31
        0x00000674:    0840        @.      LSRS     r0,r0,#1
        0x00000676:    0849        I.      LSRS     r1,r1,#1
        0x00000678:    4328        (C      ORRS     r0,r0,r5
        0x0000067a:    1892        ..      ADDS     r2,r2,r2
        0x0000067c:    415b        [A      ADCS     r3,r3,r3
        0x0000067e:    4605        .F      MOV      r5,r0
        0x00000680:    430d        .C      ORRS     r5,r5,r1
        0x00000682:    d1ea        ..      BNE      0x65a ; __aeabi_ddiv + 122
        0x00000684:    4610        .F      MOV      r0,r2
        0x00000686:    4318        .C      ORRS     r0,r0,r3
        0x00000688:    d013        ..      BEQ      0x6b2 ; __aeabi_ddiv + 210
        0x0000068a:    4660        `F      MOV      r0,r12
        0x0000068c:    4619        .F      MOV      r1,r3
        0x0000068e:    4050        P@      EORS     r0,r0,r2
        0x00000690:    4071        q@      EORS     r1,r1,r6
        0x00000692:    4308        .C      ORRS     r0,r0,r1
        0x00000694:    d006        ..      BEQ      0x6a4 ; __aeabi_ddiv + 196
        0x00000696:    4660        `F      MOV      r0,r12
        0x00000698:    1a10        ..      SUBS     r0,r2,r0
        0x0000069a:    41b3        .A      SBCS     r3,r3,r6
        0x0000069c:    d206        ..      BCS      0x6ac ; __aeabi_ddiv + 204
        0x0000069e:    2201        ."      MOVS     r2,#1
        0x000006a0:    2300        .#      MOVS     r3,#0
        0x000006a2:    e006        ..      B        0x6b2 ; __aeabi_ddiv + 210
        0x000006a4:    2200        ."      MOVS     r2,#0
        0x000006a6:    2301        .#      MOVS     r3,#1
        0x000006a8:    07db        ..      LSLS     r3,r3,#31
        0x000006aa:    e002        ..      B        0x6b2 ; __aeabi_ddiv + 210
        0x000006ac:    2201        ."      MOVS     r2,#1
        0x000006ae:    43d2        .C      MVNS     r2,r2
        0x000006b0:    1053        S.      ASRS     r3,r2,#1
        0x000006b2:    9800        ..      LDR      r0,[sp,#0]
        0x000006b4:    4674        tF      MOV      r4,lr
        0x000006b6:    0501        ..      LSLS     r1,r0,#20
        0x000006b8:    1c38        8.      ADDS     r0,r7,#0
        0x000006ba:    4161        aA      ADCS     r1,r1,r4
        0x000006bc:    9c02        ..      LDR      r4,[sp,#8]
        0x000006be:    9d03        ..      LDR      r5,[sp,#0xc]
        0x000006c0:    1900        ..      ADDS     r0,r0,r4
        0x000006c2:    4169        iA      ADCS     r1,r1,r5
        0x000006c4:    f000f87e    ..~.    BL       _double_round ; 0x7c4
        0x000006c8:    e7bf        ..      B        0x64a ; __aeabi_ddiv + 106
    $d
        0x000006ca:    0000        ..      DCW    0
        0x000006cc:    000003fd    ....    DCD    1021
    $t
    .text
    __aeabi_d2ulz
        0x000006d0:    004a        J.      LSLS     r2,r1,#1
        0x000006d2:    0309        ..      LSLS     r1,r1,#12
        0x000006d4:    2301        .#      MOVS     r3,#1
        0x000006d6:    0b09        ..      LSRS     r1,r1,#12
        0x000006d8:    051b        ..      LSLS     r3,r3,#20
        0x000006da:    4319        .C      ORRS     r1,r1,r3
        0x000006dc:    4b0a        .K      LDR      r3,[pc,#40] ; [0x708] = 0x3ff
        0x000006de:    b510        ..      PUSH     {r4,lr}
        0x000006e0:    0d52        R.      LSRS     r2,r2,#21
        0x000006e2:    429a        .B      CMP      r2,r3
        0x000006e4:    da02        ..      BGE      0x6ec ; __aeabi_d2ulz + 28
        0x000006e6:    2000        .       MOVS     r0,#0
        0x000006e8:    4601        .F      MOV      r1,r0
        0x000006ea:    bd10        ..      POP      {r4,pc}
        0x000006ec:    4b06        .K      LDR      r3,[pc,#24] ; [0x708] = 0x3ff
        0x000006ee:    3334        43      ADDS     r3,r3,#0x34
        0x000006f0:    429a        .B      CMP      r2,r3
        0x000006f2:    dc03        ..      BGT      0x6fc ; __aeabi_d2ulz + 44
        0x000006f4:    1a9a        ..      SUBS     r2,r3,r2
        0x000006f6:    f000f841    ..A.    BL       __aeabi_llsr ; 0x77c
        0x000006fa:    bd10        ..      POP      {r4,pc}
        0x000006fc:    4b03        .K      LDR      r3,[pc,#12] ; [0x70c] = 0xfffffbcd
        0x000006fe:    18d2        ..      ADDS     r2,r2,r3
        0x00000700:    f000f82c    ..,.    BL       __aeabi_llsl ; 0x75c
        0x00000704:    bd10        ..      POP      {r4,pc}
    $d
        0x00000706:    0000        ..      DCW    0
        0x00000708:    000003ff    ....    DCD    1023
        0x0000070c:    fffffbcd    ....    DCD    4294966221
    $t
    .text
    __aeabi_cdrcmple
        0x00000710:    b510        ..      PUSH     {r4,lr}
        0x00000712:    2900        .)      CMP      r1,#0
        0x00000714:    db04        ..      BLT      0x720 ; __aeabi_cdrcmple + 16
        0x00000716:    2401        .$      MOVS     r4,#1
        0x00000718:    07e4        ..      LSLS     r4,r4,#31
        0x0000071a:    4240        @B      RSBS     r0,r0,#0
        0x0000071c:    418c        .A      SBCS     r4,r4,r1
        0x0000071e:    4621        !F      MOV      r1,r4
        0x00000720:    2b00        .+      CMP      r3,#0
        0x00000722:    db04        ..      BLT      0x72e ; __aeabi_cdrcmple + 30
        0x00000724:    461c        .F      MOV      r4,r3
        0x00000726:    2301        .#      MOVS     r3,#1
        0x00000728:    07db        ..      LSLS     r3,r3,#31
        0x0000072a:    4252        RB      RSBS     r2,r2,#0
        0x0000072c:    41a3        .A      SBCS     r3,r3,r4
        0x0000072e:    4299        .B      CMP      r1,r3
        0x00000730:    d100        ..      BNE      0x734 ; __aeabi_cdrcmple + 36
        0x00000732:    4290        .B      CMP      r0,r2
        0x00000734:    bd10        ..      POP      {r4,pc}
    $d
        0x00000736:    0000        ..      DCW    0
    $t
    .text
    __scatterload
    __scatterload_rt2
        0x00000738:    4c06        .L      LDR      r4,[pc,#24] ; [0x754] = 0x1fc0
        0x0000073a:    2501        .%      MOVS     r5,#1
        0x0000073c:    4e06        .N      LDR      r6,[pc,#24] ; [0x758] = 0x1fe0
        0x0000073e:    e005        ..      B        0x74c ; __scatterload + 20
        0x00000740:    68e3        .h      LDR      r3,[r4,#0xc]
        0x00000742:    cc07        ..      LDM      r4!,{r0-r2}
        0x00000744:    432b        +C      ORRS     r3,r3,r5
        0x00000746:    3c0c        .<      SUBS     r4,r4,#0xc
        0x00000748:    4798        .G      BLX      r3
        0x0000074a:    3410        .4      ADDS     r4,r4,#0x10
        0x0000074c:    42b4        .B      CMP      r4,r6
        0x0000074e:    d3f7        ..      BCC      0x740 ; __scatterload + 8
        0x00000750:    f7fffcba    ....    BL       __main_after_scatterload ; 0xc8
    $d
        0x00000754:    00001fc0    ....    DCD    8128
        0x00000758:    00001fe0    ....    DCD    8160
    $t
    .text
    __aeabi_llsl
    _ll_shift_l
        0x0000075c:    b510        ..      PUSH     {r4,lr}
        0x0000075e:    2a20         *      CMP      r2,#0x20
        0x00000760:    db04        ..      BLT      0x76c ; __aeabi_llsl + 16
        0x00000762:    4601        .F      MOV      r1,r0
        0x00000764:    3a20         :      SUBS     r2,r2,#0x20
        0x00000766:    4091        .@      LSLS     r1,r1,r2
        0x00000768:    2000        .       MOVS     r0,#0
        0x0000076a:    bd10        ..      POP      {r4,pc}
        0x0000076c:    4091        .@      LSLS     r1,r1,r2
        0x0000076e:    2320         #      MOVS     r3,#0x20
        0x00000770:    1a9c        ..      SUBS     r4,r3,r2
        0x00000772:    4603        .F      MOV      r3,r0
        0x00000774:    40e3        .@      LSRS     r3,r3,r4
        0x00000776:    4319        .C      ORRS     r1,r1,r3
        0x00000778:    4090        .@      LSLS     r0,r0,r2
        0x0000077a:    bd10        ..      POP      {r4,pc}
    .text
    __aeabi_llsr
    _ll_ushift_r
        0x0000077c:    b510        ..      PUSH     {r4,lr}
        0x0000077e:    2a20         *      CMP      r2,#0x20
        0x00000780:    db04        ..      BLT      0x78c ; __aeabi_llsr + 16
        0x00000782:    4608        .F      MOV      r0,r1
        0x00000784:    3a20         :      SUBS     r2,r2,#0x20
        0x00000786:    40d0        .@      LSRS     r0,r0,r2
        0x00000788:    2100        .!      MOVS     r1,#0
        0x0000078a:    bd10        ..      POP      {r4,pc}
        0x0000078c:    460b        .F      MOV      r3,r1
        0x0000078e:    40d3        .@      LSRS     r3,r3,r2
        0x00000790:    40d0        .@      LSRS     r0,r0,r2
        0x00000792:    2420         $      MOVS     r4,#0x20
        0x00000794:    1aa2        ..      SUBS     r2,r4,r2
        0x00000796:    4091        .@      LSLS     r1,r1,r2
        0x00000798:    4308        .C      ORRS     r0,r0,r1
        0x0000079a:    4619        .F      MOV      r1,r3
        0x0000079c:    bd10        ..      POP      {r4,pc}
    .text
    __aeabi_lasr
    _ll_sshift_r
        0x0000079e:    b510        ..      PUSH     {r4,lr}
        0x000007a0:    2a20         *      CMP      r2,#0x20
        0x000007a2:    db06        ..      BLT      0x7b2 ; __aeabi_lasr + 20
        0x000007a4:    17cb        ..      ASRS     r3,r1,#31
        0x000007a6:    4608        .F      MOV      r0,r1
        0x000007a8:    3a20         :      SUBS     r2,r2,#0x20
        0x000007aa:    4110        .A      ASRS     r0,r0,r2
        0x000007ac:    17c1        ..      ASRS     r1,r0,#31
        0x000007ae:    430b        .C      ORRS     r3,r3,r1
        0x000007b0:    e006        ..      B        0x7c0 ; __aeabi_lasr + 34
        0x000007b2:    460b        .F      MOV      r3,r1
        0x000007b4:    4113        .A      ASRS     r3,r3,r2
        0x000007b6:    40d0        .@      LSRS     r0,r0,r2
        0x000007b8:    2420         $      MOVS     r4,#0x20
        0x000007ba:    1aa2        ..      SUBS     r2,r4,r2
        0x000007bc:    4091        .@      LSLS     r1,r1,r2
        0x000007be:    4308        .C      ORRS     r0,r0,r1
        0x000007c0:    4619        .F      MOV      r1,r3
        0x000007c2:    bd10        ..      POP      {r4,pc}
    .text
    _double_round
        0x000007c4:    b510        ..      PUSH     {r4,lr}
        0x000007c6:    2b00        .+      CMP      r3,#0
        0x000007c8:    da08        ..      BGE      0x7dc ; _double_round + 24
        0x000007ca:    2400        .$      MOVS     r4,#0
        0x000007cc:    1c40        @.      ADDS     r0,r0,#1
        0x000007ce:    4161        aA      ADCS     r1,r1,r4
        0x000007d0:    1892        ..      ADDS     r2,r2,r2
        0x000007d2:    415b        [A      ADCS     r3,r3,r3
        0x000007d4:    431a        .C      ORRS     r2,r2,r3
        0x000007d6:    d101        ..      BNE      0x7dc ; _double_round + 24
        0x000007d8:    0840        @.      LSRS     r0,r0,#1
        0x000007da:    0040        @.      LSLS     r0,r0,#1
        0x000007dc:    bd10        ..      POP      {r4,pc}
    _double_epilogue
        0x000007de:    b5f0        ..      PUSH     {r4-r7,lr}
        0x000007e0:    b41f        ..      PUSH     {r0-r4}
        0x000007e2:    b082        ..      SUB      sp,sp,#8
        0x000007e4:    4605        .F      MOV      r5,r0
        0x000007e6:    000c        ..      MOVS     r4,r1
        0x000007e8:    d003        ..      BEQ      0x7f2 ; _double_epilogue + 20
        0x000007ea:    4608        .F      MOV      r0,r1
        0x000007ec:    f000fd7e    ..~.    BL       __ARM_clz ; 0x12ec
        0x000007f0:    e002        ..      B        0x7f8 ; _double_epilogue + 26
        0x000007f2:    f000fd7b    ..{.    BL       __ARM_clz ; 0x12ec
        0x000007f6:    3020         0      ADDS     r0,r0,#0x20
        0x000007f8:    4602        .F      MOV      r2,r0
        0x000007fa:    9000        ..      STR      r0,[sp,#0]
        0x000007fc:    4621        !F      MOV      r1,r4
        0x000007fe:    4628        (F      MOV      r0,r5
        0x00000800:    f7ffffac    ....    BL       __aeabi_llsl ; 0x75c
        0x00000804:    9b04        ..      LDR      r3,[sp,#0x10]
        0x00000806:    9a05        ..      LDR      r2,[sp,#0x14]
        0x00000808:    4604        .F      MOV      r4,r0
        0x0000080a:    460f        .F      MOV      r7,r1
        0x0000080c:    4318        .C      ORRS     r0,r0,r3
        0x0000080e:    4311        .C      ORRS     r1,r1,r2
        0x00000810:    4308        .C      ORRS     r0,r0,r1
        0x00000812:    d014        ..      BEQ      0x83e ; _double_epilogue + 96
        0x00000814:    4618        .F      MOV      r0,r3
        0x00000816:    4310        .C      ORRS     r0,r0,r2
        0x00000818:    d01b        ..      BEQ      0x852 ; _double_epilogue + 116
        0x0000081a:    9800        ..      LDR      r0,[sp,#0]
        0x0000081c:    2140        @!      MOVS     r1,#0x40
        0x0000081e:    1a0a        ..      SUBS     r2,r1,r0
        0x00000820:    4618        .F      MOV      r0,r3
        0x00000822:    9905        ..      LDR      r1,[sp,#0x14]
        0x00000824:    f7ffffaa    ....    BL       __aeabi_llsr ; 0x77c
        0x00000828:    4605        .F      MOV      r5,r0
        0x0000082a:    460e        .F      MOV      r6,r1
        0x0000082c:    9a00        ..      LDR      r2,[sp,#0]
        0x0000082e:    9905        ..      LDR      r1,[sp,#0x14]
        0x00000830:    9804        ..      LDR      r0,[sp,#0x10]
        0x00000832:    f7ffff93    ....    BL       __aeabi_llsl ; 0x75c
        0x00000836:    4308        .C      ORRS     r0,r0,r1
        0x00000838:    d005        ..      BEQ      0x846 ; _double_epilogue + 104
        0x0000083a:    2001        .       MOVS     r0,#1
        0x0000083c:    e004        ..      B        0x848 ; _double_epilogue + 106
        0x0000083e:    4620         F      MOV      r0,r4
        0x00000840:    4639        9F      MOV      r1,r7
        0x00000842:    b007        ..      ADD      sp,sp,#0x1c
        0x00000844:    bdf0        ..      POP      {r4-r7,pc}
        0x00000846:    2000        .       MOVS     r0,#0
        0x00000848:    17c1        ..      ASRS     r1,r0,#31
        0x0000084a:    4305        .C      ORRS     r5,r5,r0
        0x0000084c:    430e        .C      ORRS     r6,r6,r1
        0x0000084e:    432c        ,C      ORRS     r4,r4,r5
        0x00000850:    4337        7C      ORRS     r7,r7,r6
        0x00000852:    9900        ..      LDR      r1,[sp,#0]
        0x00000854:    980e        ..      LDR      r0,[sp,#0x38]
        0x00000856:    0563        c.      LSLS     r3,r4,#21
        0x00000858:    1a40        @.      SUBS     r0,r0,r1
        0x0000085a:    0579        y.      LSLS     r1,r7,#21
        0x0000085c:    0ae4        ..      LSRS     r4,r4,#11
        0x0000085e:    2200        ."      MOVS     r2,#0
        0x00000860:    430c        .C      ORRS     r4,r4,r1
        0x00000862:    0afd        ..      LSRS     r5,r7,#11
        0x00000864:    300a        .0      ADDS     r0,r0,#0xa
        0x00000866:    d502        ..      BPL      0x86e ; _double_epilogue + 144
        0x00000868:    2000        .       MOVS     r0,#0
        0x0000086a:    4601        .F      MOV      r1,r0
        0x0000086c:    e7e9        ..      B        0x842 ; _double_epilogue + 100
        0x0000086e:    0501        ..      LSLS     r1,r0,#20
        0x00000870:    1910        ..      ADDS     r0,r2,r4
        0x00000872:    4169        iA      ADCS     r1,r1,r5
        0x00000874:    9c0c        ..      LDR      r4,[sp,#0x30]
        0x00000876:    9d0d        ..      LDR      r5,[sp,#0x34]
        0x00000878:    1900        ..      ADDS     r0,r0,r4
        0x0000087a:    4169        iA      ADCS     r1,r1,r5
        0x0000087c:    f7ffffa2    ....    BL       _double_round ; 0x7c4
        0x00000880:    e7df        ..      B        0x842 ; _double_epilogue + 100
        0x00000882:    0000        ..      MOVS     r0,r0
    i.ADXL_ReadBytes
    ADXL_ReadBytes
        0x00000884:    4a08        .J      LDR      r2,[pc,#32] ; [0x8a8] = 0x2000002c
        0x00000886:    7090        .p      STRB     r0,[r2,#2]
        0x00000888:    7151        Qq      STRB     r1,[r2,#5]
        0x0000088a:    2000        .       MOVS     r0,#0
        0x0000088c:    7010        .p      STRB     r0,[r2,#0]
        0x0000088e:    4807        .H      LDR      r0,[pc,#28] ; [0x8ac] = 0xfa9
        0x00000890:    6110        .a      STR      r0,[r2,#0x10]
        0x00000892:    4907        .I      LDR      r1,[pc,#28] ; [0x8b0] = 0x40020000
        0x00000894:    6808        .h      LDR      r0,[r1,#0]
        0x00000896:    233c        <#      MOVS     r3,#0x3c
        0x00000898:    4398        .C      BICS     r0,r0,r3
        0x0000089a:    3020         0      ADDS     r0,r0,#0x20
        0x0000089c:    6008        .`      STR      r0,[r1,#0]
        0x0000089e:    7810        .x      LDRB     r0,[r2,#0]
        0x000008a0:    2800        .(      CMP      r0,#0
        0x000008a2:    d0fc        ..      BEQ      0x89e ; ADXL_ReadBytes + 26
        0x000008a4:    78d0        .x      LDRB     r0,[r2,#3]
        0x000008a6:    4770        pG      BX       lr
    $d
        0x000008a8:    2000002c    ,..     DCD    536870956
        0x000008ac:    00000fa9    ....    DCD    4009
        0x000008b0:    40020000    ...@    DCD    1073872896
    $t
    i.ADXL_WriteBytes
    ADXL_WriteBytes
        0x000008b4:    b530        0.      PUSH     {r4,r5,lr}
        0x000008b6:    4b0e        .K      LDR      r3,[pc,#56] ; [0x8f0] = 0x2000002c
        0x000008b8:    7098        .p      STRB     r0,[r3,#2]
        0x000008ba:    705a        Zp      STRB     r2,[r3,#1]
        0x000008bc:    2000        .       MOVS     r0,#0
        0x000008be:    461c        .F      MOV      r4,r3
        0x000008c0:    340c        .4      ADDS     r4,r4,#0xc
        0x000008c2:    e003        ..      B        0x8cc ; ADXL_WriteBytes + 24
        0x000008c4:    5c0d        .\      LDRB     r5,[r1,r0]
        0x000008c6:    5425        %T      STRB     r5,[r4,r0]
        0x000008c8:    1c40        @.      ADDS     r0,r0,#1
        0x000008ca:    b2c0        ..      UXTB     r0,r0
        0x000008cc:    4290        .B      CMP      r0,r2
        0x000008ce:    d3f9        ..      BCC      0x8c4 ; ADXL_WriteBytes + 16
        0x000008d0:    2000        .       MOVS     r0,#0
        0x000008d2:    7118        .q      STRB     r0,[r3,#4]
        0x000008d4:    7018        .p      STRB     r0,[r3,#0]
        0x000008d6:    4807        .H      LDR      r0,[pc,#28] ; [0x8f4] = 0x103d
        0x000008d8:    6118        .a      STR      r0,[r3,#0x10]
        0x000008da:    4807        .H      LDR      r0,[pc,#28] ; [0x8f8] = 0x40020000
        0x000008dc:    6801        .h      LDR      r1,[r0,#0]
        0x000008de:    223c        <"      MOVS     r2,#0x3c
        0x000008e0:    4391        .C      BICS     r1,r1,r2
        0x000008e2:    3120         1      ADDS     r1,r1,#0x20
        0x000008e4:    6001        .`      STR      r1,[r0,#0]
        0x000008e6:    7818        .x      LDRB     r0,[r3,#0]
        0x000008e8:    2800        .(      CMP      r0,#0
        0x000008ea:    d0fc        ..      BEQ      0x8e6 ; ADXL_WriteBytes + 50
        0x000008ec:    bd30        0.      POP      {r4,r5,pc}
    $d
        0x000008ee:    0000        ..      DCW    0
        0x000008f0:    2000002c    ,..     DCD    536870956
        0x000008f4:    0000103d    =...    DCD    4157
        0x000008f8:    40020000    ...@    DCD    1073872896
    $t
    i.ADXL_calibrate
    ADXL_calibrate
        0x000008fc:    b5f0        ..      PUSH     {r4-r7,lr}
        0x000008fe:    2500        .%      MOVS     r5,#0
        0x00000900:    b087        ..      SUB      sp,sp,#0x1c
        0x00000902:    462e        .F      MOV      r6,r5
        0x00000904:    462c        ,F      MOV      r4,r5
        0x00000906:    9502        ..      STR      r5,[sp,#8]
        0x00000908:    2133        3!      MOVS     r1,#0x33
        0x0000090a:    2053        S       MOVS     r0,#0x53
        0x0000090c:    f7ffffba    ....    BL       ADXL_ReadBytes ; 0x884
        0x00000910:    0207        ..      LSLS     r7,r0,#8
        0x00000912:    2132        2!      MOVS     r1,#0x32
        0x00000914:    2053        S       MOVS     r0,#0x53
        0x00000916:    f7ffffb5    ....    BL       ADXL_ReadBytes ; 0x884
        0x0000091a:    4307        .C      ORRS     r7,r7,r0
        0x0000091c:    b238        8.      SXTH     r0,r7
        0x0000091e:    9001        ..      STR      r0,[sp,#4]
        0x00000920:    2135        5!      MOVS     r1,#0x35
        0x00000922:    2053        S       MOVS     r0,#0x53
        0x00000924:    f7ffffae    ....    BL       ADXL_ReadBytes ; 0x884
        0x00000928:    0207        ..      LSLS     r7,r0,#8
        0x0000092a:    2134        4!      MOVS     r1,#0x34
        0x0000092c:    2053        S       MOVS     r0,#0x53
        0x0000092e:    f7ffffa9    ....    BL       ADXL_ReadBytes ; 0x884
        0x00000932:    4307        .C      ORRS     r7,r7,r0
        0x00000934:    b238        8.      SXTH     r0,r7
        0x00000936:    9000        ..      STR      r0,[sp,#0]
        0x00000938:    2137        7!      MOVS     r1,#0x37
        0x0000093a:    2053        S       MOVS     r0,#0x53
        0x0000093c:    f7ffffa2    ....    BL       ADXL_ReadBytes ; 0x884
        0x00000940:    0207        ..      LSLS     r7,r0,#8
        0x00000942:    2136        6!      MOVS     r1,#0x36
        0x00000944:    2053        S       MOVS     r0,#0x53
        0x00000946:    f7ffff9d    ....    BL       ADXL_ReadBytes ; 0x884
        0x0000094a:    4307        .C      ORRS     r7,r7,r0
        0x0000094c:    b23f        ?.      SXTH     r7,r7
        0x0000094e:    463b        ;F      MOV      r3,r7
        0x00000950:    a039        9.      ADR      r0,{pc}+0xe8 ; 0xa38
        0x00000952:    9a00        ..      LDR      r2,[sp,#0]
        0x00000954:    9901        ..      LDR      r1,[sp,#4]
        0x00000956:    f000fcb9    ....    BL       __0printf ; 0x12cc
        0x0000095a:    9801        ..      LDR      r0,[sp,#4]
        0x0000095c:    1828        (.      ADDS     r0,r5,r0
        0x0000095e:    b205        ..      SXTH     r5,r0
        0x00000960:    9800        ..      LDR      r0,[sp,#0]
        0x00000962:    1830        0.      ADDS     r0,r6,r0
        0x00000964:    b206        ..      SXTH     r6,r0
        0x00000966:    9802        ..      LDR      r0,[sp,#8]
        0x00000968:    19c0        ..      ADDS     r0,r0,r7
        0x0000096a:    b200        ..      SXTH     r0,r0
        0x0000096c:    9002        ..      STR      r0,[sp,#8]
        0x0000096e:    4838        8H      LDR      r0,[pc,#224] ; [0xa50] = 0x2710
        0x00000970:    f000fa8c    ....    BL       CLK_SysTickDelay ; 0xe8c
        0x00000974:    1c64        d.      ADDS     r4,r4,#1
        0x00000976:    b2e4        ..      UXTB     r4,r4
        0x00000978:    2c0a        .,      CMP      r4,#0xa
        0x0000097a:    d3c5        ..      BCC      0x908 ; ADXL_calibrate + 12
        0x0000097c:    210a        .!      MOVS     r1,#0xa
        0x0000097e:    4628        (F      MOV      r0,r5
        0x00000980:    f7fffbf2    ....    BL       __aeabi_idiv ; 0x168
        0x00000984:    b205        ..      SXTH     r5,r0
        0x00000986:    210a        .!      MOVS     r1,#0xa
        0x00000988:    4630        0F      MOV      r0,r6
        0x0000098a:    f7fffbed    ....    BL       __aeabi_idiv ; 0x168
        0x0000098e:    b204        ..      SXTH     r4,r0
        0x00000990:    210a        .!      MOVS     r1,#0xa
        0x00000992:    9802        ..      LDR      r0,[sp,#8]
        0x00000994:    f7fffbe8    ....    BL       __aeabi_idiv ; 0x168
        0x00000998:    b206        ..      SXTH     r6,r0
        0x0000099a:    4633        3F      MOV      r3,r6
        0x0000099c:    4622        "F      MOV      r2,r4
        0x0000099e:    4629        )F      MOV      r1,r5
        0x000009a0:    a02c        ,.      ADR      r0,{pc}+0xb4 ; 0xa54
        0x000009a2:    f000fc93    ....    BL       __0printf ; 0x12cc
        0x000009a6:    4832        2H      LDR      r0,[pc,#200] ; [0xa70] = 0x4c4b40
        0x000009a8:    f000fa70    ..p.    BL       CLK_SysTickDelay ; 0xe8c
        0x000009ac:    4628        (F      MOV      r0,r5
        0x000009ae:    f7fffc54    ..T.    BL       __aeabi_i2f ; 0x25a
        0x000009b2:    2701        .'      MOVS     r7,#1
        0x000009b4:    43ff        .C      MVNS     r7,r7
        0x000009b6:    4639        9F      MOV      r1,r7
        0x000009b8:    f7fffc43    ..C.    BL       __ARM_scalbnf ; 0x242
        0x000009bc:    f001fa68    ..h.    BL       my_round ; 0x1e90
        0x000009c0:    4240        @B      RSBS     r0,r0,#0
        0x000009c2:    b245        E.      SXTB     r5,r0
        0x000009c4:    4620         F      MOV      r0,r4
        0x000009c6:    f7fffc48    ..H.    BL       __aeabi_i2f ; 0x25a
        0x000009ca:    4639        9F      MOV      r1,r7
        0x000009cc:    f7fffc39    ..9.    BL       __ARM_scalbnf ; 0x242
        0x000009d0:    f001fa5e    ..^.    BL       my_round ; 0x1e90
        0x000009d4:    4240        @B      RSBS     r0,r0,#0
        0x000009d6:    b244        D.      SXTB     r4,r0
        0x000009d8:    1ff0        ..      SUBS     r0,r6,#7
        0x000009da:    38f9        .8      SUBS     r0,r0,#0xf9
        0x000009dc:    f7fffc3d    ..=.    BL       __aeabi_i2f ; 0x25a
        0x000009e0:    4639        9F      MOV      r1,r7
        0x000009e2:    f7fffc2e    ....    BL       __ARM_scalbnf ; 0x242
        0x000009e6:    f001fa53    ..S.    BL       my_round ; 0x1e90
        0x000009ea:    4240        @B      RSBS     r0,r0,#0
        0x000009ec:    b246        F.      SXTB     r6,r0
        0x000009ee:    201e        .       MOVS     r0,#0x1e
        0x000009f0:    4669        iF      MOV      r1,sp
        0x000009f2:    7308        .s      STRB     r0,[r1,#0xc]
        0x000009f4:    734d        Ms      STRB     r5,[r1,#0xd]
        0x000009f6:    201f        .       MOVS     r0,#0x1f
        0x000009f8:    7408        .t      STRB     r0,[r1,#0x10]
        0x000009fa:    744c        Lt      STRB     r4,[r1,#0x11]
        0x000009fc:    2020                MOVS     r0,#0x20
        0x000009fe:    7508        .u      STRB     r0,[r1,#0x14]
        0x00000a00:    754e        Nu      STRB     r6,[r1,#0x15]
        0x00000a02:    2202        ."      MOVS     r2,#2
        0x00000a04:    a903        ..      ADD      r1,sp,#0xc
        0x00000a06:    2053        S       MOVS     r0,#0x53
        0x00000a08:    f7ffff54    ..T.    BL       ADXL_WriteBytes ; 0x8b4
        0x00000a0c:    2202        ."      MOVS     r2,#2
        0x00000a0e:    a904        ..      ADD      r1,sp,#0x10
        0x00000a10:    2053        S       MOVS     r0,#0x53
        0x00000a12:    f7ffff4f    ..O.    BL       ADXL_WriteBytes ; 0x8b4
        0x00000a16:    2202        ."      MOVS     r2,#2
        0x00000a18:    a905        ..      ADD      r1,sp,#0x14
        0x00000a1a:    2053        S       MOVS     r0,#0x53
        0x00000a1c:    f7ffff4a    ..J.    BL       ADXL_WriteBytes ; 0x8b4
        0x00000a20:    4633        3F      MOV      r3,r6
        0x00000a22:    4622        "F      MOV      r2,r4
        0x00000a24:    4629        )F      MOV      r1,r5
        0x00000a26:    a013        ..      ADR      r0,{pc}+0x4e ; 0xa74
        0x00000a28:    f000fc50    ..P.    BL       __0printf ; 0x12cc
        0x00000a2c:    4810        .H      LDR      r0,[pc,#64] ; [0xa70] = 0x4c4b40
        0x00000a2e:    f000fa2d    ..-.    BL       CLK_SysTickDelay ; 0xe8c
        0x00000a32:    b007        ..      ADD      sp,sp,#0x1c
        0x00000a34:    bdf0        ..      POP      {r4-r7,pc}
    $d
        0x00000a36:    0000        ..      DCW    0
        0x00000a38:    3a5a5958    XYZ:    DCD    978999640
        0x00000a3c:    253d5820     X=%    DCD    624777248
        0x00000a40:    59202c64    d, Y    DCD    1495280740
        0x00000a44:    2c64253d    =%d,    DCD    744760637
        0x00000a48:    253d5a20     Z=%    DCD    624777760
        0x00000a4c:    000a0a64    d...    DCD    658020
        0x00000a50:    00002710    .'..    DCD    10000
        0x00000a54:    5f5a5958    XYZ_    DCD    1599756632
        0x00000a58:    3a677661    avg:    DCD    979859041
        0x00000a5c:    253d5820     X=%    DCD    624777248
        0x00000a60:    59202c64    d, Y    DCD    1495280740
        0x00000a64:    2c64253d    =%d,    DCD    744760637
        0x00000a68:    253d5a20     Z=%    DCD    624777760
        0x00000a6c:    000a0a64    d...    DCD    658020
        0x00000a70:    004c4b40    @KL.    DCD    5000000
        0x00000a74:    696c6143    Cali    DCD    1768710467
        0x00000a78:    74617262    brat    DCD    1952543330
        0x00000a7c:    206e6f69    ion     DCD    544108393
        0x00000a80:    7366666f    offs    DCD    1936090735
        0x00000a84:    20737465    ets     DCD    544437349
        0x00000a88:    74697277    writ    DCD    1953067639
        0x00000a8c:    3a6e6574    ten:    DCD    980313460
        0x00000a90:    253d5820     X=%    DCD    624777248
        0x00000a94:    59202c64    d, Y    DCD    1495280740
        0x00000a98:    2c64253d    =%d,    DCD    744760637
        0x00000a9c:    253d5a20     Z=%    DCD    624777760
        0x00000aa0:    000a0a64    d...    DCD    658020
    $t
    i.ADXL_init
    ADXL_init
        0x00000aa4:    b500        ..      PUSH     {lr}
        0x00000aa6:    2202        ."      MOVS     r2,#2
        0x00000aa8:    4908        .I      LDR      r1,[pc,#32] ; [0xacc] = 0x20000032
        0x00000aaa:    2053        S       MOVS     r0,#0x53
        0x00000aac:    f7ffff02    ....    BL       ADXL_WriteBytes ; 0x8b4
        0x00000ab0:    4906        .I      LDR      r1,[pc,#24] ; [0xacc] = 0x20000032
        0x00000ab2:    2202        ."      MOVS     r2,#2
        0x00000ab4:    1c89        ..      ADDS     r1,r1,#2
        0x00000ab6:    2053        S       MOVS     r0,#0x53
        0x00000ab8:    f7fffefc    ....    BL       ADXL_WriteBytes ; 0x8b4
        0x00000abc:    4903        .I      LDR      r1,[pc,#12] ; [0xacc] = 0x20000032
        0x00000abe:    2202        ."      MOVS     r2,#2
        0x00000ac0:    1d09        ..      ADDS     r1,r1,#4
        0x00000ac2:    2053        S       MOVS     r0,#0x53
        0x00000ac4:    f7fffef6    ....    BL       ADXL_WriteBytes ; 0x8b4
        0x00000ac8:    bd00        ..      POP      {pc}
    $d
        0x00000aca:    0000        ..      DCW    0
        0x00000acc:    20000032    2..     DCD    536870962
    $t
    i.CLK_EnableModuleClock
    CLK_EnableModuleClock
        0x00000ad0:    b51f        ..      PUSH     {r0-r4,lr}
        0x00000ad2:    4909        .I      LDR      r1,[pc,#36] ; [0xaf8] = 0x1f70
        0x00000ad4:    c91e        ..      LDM      r1,{r1-r4}
        0x00000ad6:    9403        ..      STR      r4,[sp,#0xc]
        0x00000ad8:    466c        lF      MOV      r4,sp
        0x00000ada:    c40e        ..      STM      r4!,{r1-r3}
        0x00000adc:    0f81        ..      LSRS     r1,r0,#30
        0x00000ade:    008a        ..      LSLS     r2,r1,#2
        0x00000ae0:    4669        iF      MOV      r1,sp
        0x00000ae2:    588a        .X      LDR      r2,[r1,r2]
        0x00000ae4:    4905        .I      LDR      r1,[pc,#20] ; [0xafc] = 0x50000200
        0x00000ae6:    1851        Q.      ADDS     r1,r2,r1
        0x00000ae8:    684a        Jh      LDR      r2,[r1,#4]
        0x00000aea:    06c3        ..      LSLS     r3,r0,#27
        0x00000aec:    0edb        ..      LSRS     r3,r3,#27
        0x00000aee:    2001        .       MOVS     r0,#1
        0x00000af0:    4098        .@      LSLS     r0,r0,r3
        0x00000af2:    4302        .C      ORRS     r2,r2,r0
        0x00000af4:    604a        J`      STR      r2,[r1,#4]
        0x00000af6:    bd1f        ..      POP      {r0-r4,pc}
    $d
        0x00000af8:    00001f70    p...    DCD    8048
        0x00000afc:    50000200    ...P    DCD    1342177792
    $t
    i.CLK_EnablePLL
    CLK_EnablePLL
        0x00000b00:    b5f0        ..      PUSH     {r4-r7,lr}
        0x00000b02:    0007        ..      MOVS     r7,r0
        0x00000b04:    460c        .F      MOV      r4,r1
        0x00000b06:    4856        VH      LDR      r0,[pc,#344] ; [0xc60] = 0x50000200
        0x00000b08:    b085        ..      SUB      sp,sp,#0x14
        0x00000b0a:    4954        TI      LDR      r1,[pc,#336] ; [0xc5c] = 0x10000
        0x00000b0c:    6201        .b      STR      r1,[r0,#0x20]
        0x00000b0e:    4e55        UN      LDR      r6,[pc,#340] ; [0xc64] = 0xb71b00
        0x00000b10:    6801        .h      LDR      r1,[r0,#0]
        0x00000b12:    d013        ..      BEQ      0xb3c ; CLK_EnablePLL + 60
        0x00000b14:    2204        ."      MOVS     r2,#4
        0x00000b16:    4311        .C      ORRS     r1,r1,r2
        0x00000b18:    6001        .`      STR      r1,[r0,#0]
        0x00000b1a:    2010        .       MOVS     r0,#0x10
        0x00000b1c:    f000f9c8    ....    BL       CLK_WaitClockReady ; 0xeb0
        0x00000b20:    2001        .       MOVS     r0,#1
        0x00000b22:    04c0        ..      LSLS     r0,r0,#19
        0x00000b24:    9002        ..      STR      r0,[sp,#8]
        0x00000b26:    4850        PH      LDR      r0,[pc,#320] ; [0xc68] = 0x1518000
        0x00000b28:    2504        .%      MOVS     r5,#4
        0x00000b2a:    9003        ..      STR      r0,[sp,#0xc]
        0x00000b2c:    484f        OH      LDR      r0,[pc,#316] ; [0xc6c] = 0xfa0a1eff
        0x00000b2e:    4950        PI      LDR      r1,[pc,#320] ; [0xc70] = 0x5f5e0ff
        0x00000b30:    1820         .      ADDS     r0,r4,r0
        0x00000b32:    4288        .B      CMP      r0,r1
        0x00000b34:    d80d        ..      BHI      0xb52 ; CLK_EnablePLL + 82
        0x00000b36:    2000        .       MOVS     r0,#0
        0x00000b38:    9004        ..      STR      r0,[sp,#0x10]
        0x00000b3a:    e01c        ..      B        0xb76 ; CLK_EnablePLL + 118
        0x00000b3c:    2201        ."      MOVS     r2,#1
        0x00000b3e:    4311        .C      ORRS     r1,r1,r2
        0x00000b40:    6001        .`      STR      r1,[r0,#0]
        0x00000b42:    4610        .F      MOV      r0,r2
        0x00000b44:    f000f9b4    ....    BL       CLK_WaitClockReady ; 0xeb0
        0x00000b48:    2000        .       MOVS     r0,#0
        0x00000b4a:    2502        .%      MOVS     r5,#2
        0x00000b4c:    9603        ..      STR      r6,[sp,#0xc]
        0x00000b4e:    9002        ..      STR      r0,[sp,#8]
        0x00000b50:    e7ec        ..      B        0xb2c ; CLK_EnablePLL + 44
        0x00000b52:    4848        HH      LDR      r0,[pc,#288] ; [0xc74] = 0xfd050f7f
        0x00000b54:    4948        HI      LDR      r1,[pc,#288] ; [0xc78] = 0x2faf07f
        0x00000b56:    1820         .      ADDS     r0,r4,r0
        0x00000b58:    4288        .B      CMP      r0,r1
        0x00000b5a:    d803        ..      BHI      0xb64 ; CLK_EnablePLL + 100
        0x00000b5c:    2001        .       MOVS     r0,#1
        0x00000b5e:    0064        d.      LSLS     r4,r4,#1
        0x00000b60:    9004        ..      STR      r0,[sp,#0x10]
        0x00000b62:    e008        ..      B        0xb76 ; CLK_EnablePLL + 118
        0x00000b64:    4845        EH      LDR      r0,[pc,#276] ; [0xc7c] = 0xfe8287c0
        0x00000b66:    4945        EI      LDR      r1,[pc,#276] ; [0xc7c] = 0xfe8287c0
        0x00000b68:    1820         .      ADDS     r0,r4,r0
        0x00000b6a:    4249        IB      RSBS     r1,r1,#0
        0x00000b6c:    4288        .B      CMP      r0,r1
        0x00000b6e:    d849        I.      BHI      0xc04 ; CLK_EnablePLL + 260
        0x00000b70:    2003        .       MOVS     r0,#3
        0x00000b72:    00a4        ..      LSLS     r4,r4,#2
        0x00000b74:    9004        ..      STR      r0,[sp,#0x10]
        0x00000b76:    2600        .&      MOVS     r6,#0
        0x00000b78:    43f6        .C      MVNS     r6,r6
        0x00000b7a:    2000        .       MOVS     r0,#0
        0x00000b7c:    9000        ..      STR      r0,[sp,#0]
        0x00000b7e:    9001        ..      STR      r0,[sp,#4]
        0x00000b80:    e021        !.      B        0xbc6 ; CLK_EnablePLL + 198
        0x00000b82:    4629        )F      MOV      r1,r5
        0x00000b84:    9803        ..      LDR      r0,[sp,#0xc]
        0x00000b86:    f7fffad9    ....    BL       __aeabi_uidiv ; 0x13c
        0x00000b8a:    493d        =I      LDR      r1,[pc,#244] ; [0xc80] = 0xffe795ff
        0x00000b8c:    4a3d        =J      LDR      r2,[pc,#244] ; [0xc84] = 0xcc77bf
        0x00000b8e:    1841        A.      ADDS     r1,r0,r1
        0x00000b90:    4291        .B      CMP      r1,r2
        0x00000b92:    d217        ..      BCS      0xbc4 ; CLK_EnablePLL + 196
        0x00000b94:    2202        ."      MOVS     r2,#2
        0x00000b96:    4b35        5K      LDR      r3,[pc,#212] ; [0xc6c] = 0xfa0a1eff
        0x00000b98:    4601        .F      MOV      r1,r0
        0x00000b9a:    4351        QC      MULS     r1,r2,r1
        0x00000b9c:    1c5b        [.      ADDS     r3,r3,#1
        0x00000b9e:    18cf        ..      ADDS     r7,r1,r3
        0x00000ba0:    425b        [B      RSBS     r3,r3,#0
        0x00000ba2:    429f        .B      CMP      r7,r3
        0x00000ba4:    d80a        ..      BHI      0xbbc ; CLK_EnablePLL + 188
        0x00000ba6:    42a1        .B      CMP      r1,r4
        0x00000ba8:    d901        ..      BLS      0xbae ; CLK_EnablePLL + 174
        0x00000baa:    1b0b        ..      SUBS     r3,r1,r4
        0x00000bac:    e000        ..      B        0xbb0 ; CLK_EnablePLL + 176
        0x00000bae:    1a63        c.      SUBS     r3,r4,r1
        0x00000bb0:    42b3        .B      CMP      r3,r6
        0x00000bb2:    d203        ..      BCS      0xbbc ; CLK_EnablePLL + 188
        0x00000bb4:    001e        ..      MOVS     r6,r3
        0x00000bb6:    9500        ..      STR      r5,[sp,#0]
        0x00000bb8:    9201        ..      STR      r2,[sp,#4]
        0x00000bba:    d003        ..      BEQ      0xbc4 ; CLK_EnablePLL + 196
        0x00000bbc:    4932        2I      LDR      r1,[pc,#200] ; [0xc88] = 0x201
        0x00000bbe:    1c52        R.      ADDS     r2,r2,#1
        0x00000bc0:    428a        .B      CMP      r2,r1
        0x00000bc2:    d9e8        ..      BLS      0xb96 ; CLK_EnablePLL + 150
        0x00000bc4:    1c6d        m.      ADDS     r5,r5,#1
        0x00000bc6:    2d21        !-      CMP      r5,#0x21
        0x00000bc8:    d9db        ..      BLS      0xb82 ; CLK_EnablePLL + 130
        0x00000bca:    9804        ..      LDR      r0,[sp,#0x10]
        0x00000bcc:    9902        ..      LDR      r1,[sp,#8]
        0x00000bce:    0380        ..      LSLS     r0,r0,#14
        0x00000bd0:    4308        .C      ORRS     r0,r0,r1
        0x00000bd2:    9900        ..      LDR      r1,[sp,#0]
        0x00000bd4:    2201        ."      MOVS     r2,#1
        0x00000bd6:    0249        I.      LSLS     r1,r1,#9
        0x00000bd8:    0292        ..      LSLS     r2,r2,#10
        0x00000bda:    1a89        ..      SUBS     r1,r1,r2
        0x00000bdc:    4308        .C      ORRS     r0,r0,r1
        0x00000bde:    9901        ..      LDR      r1,[sp,#4]
        0x00000be0:    1e89        ..      SUBS     r1,r1,#2
        0x00000be2:    4308        .C      ORRS     r0,r0,r1
        0x00000be4:    491e        .I      LDR      r1,[pc,#120] ; [0xc60] = 0x50000200
        0x00000be6:    6208        .b      STR      r0,[r1,#0x20]
        0x00000be8:    2004        .       MOVS     r0,#4
        0x00000bea:    f000f961    ..a.    BL       CLK_WaitClockReady ; 0xeb0
        0x00000bee:    9904        ..      LDR      r1,[sp,#0x10]
        0x00000bf0:    9800        ..      LDR      r0,[sp,#0]
        0x00000bf2:    1c49        I.      ADDS     r1,r1,#1
        0x00000bf4:    4341        AC      MULS     r1,r0,r1
        0x00000bf6:    9803        ..      LDR      r0,[sp,#0xc]
        0x00000bf8:    f7fffaa0    ....    BL       __aeabi_uidiv ; 0x13c
        0x00000bfc:    9901        ..      LDR      r1,[sp,#4]
        0x00000bfe:    4348        HC      MULS     r0,r1,r0
        0x00000c00:    b005        ..      ADD      sp,sp,#0x14
        0x00000c02:    bdf0        ..      POP      {r4-r7,pc}
        0x00000c04:    2f00        ./      CMP      r7,#0
        0x00000c06:    d00f        ..      BEQ      0xc28 ; CLK_EnablePLL + 296
        0x00000c08:    4920         I      LDR      r1,[pc,#128] ; [0xc8c] = 0xd66f
        0x00000c0a:    4815        .H      LDR      r0,[pc,#84] ; [0xc60] = 0x50000200
        0x00000c0c:    6201        .b      STR      r1,[r0,#0x20]
        0x00000c0e:    2004        .       MOVS     r0,#4
        0x00000c10:    f000f94e    ..N.    BL       CLK_WaitClockReady ; 0xeb0
        0x00000c14:    a01e        ..      ADR      r0,{pc}+0x7c ; 0xc90
        0x00000c16:    6800        .h      LDR      r0,[r0,#0]
        0x00000c18:    9000        ..      STR      r0,[sp,#0]
        0x00000c1a:    4811        .H      LDR      r0,[pc,#68] ; [0xc60] = 0x50000200
        0x00000c1c:    6a01        .j      LDR      r1,[r0,#0x20]
        0x00000c1e:    1300        ..      ASRS     r0,r0,#12
        0x00000c20:    4201        .B      TST      r1,r0
        0x00000c22:    d003        ..      BEQ      0xc2c ; CLK_EnablePLL + 300
        0x00000c24:    2000        .       MOVS     r0,#0
        0x00000c26:    e7eb        ..      B        0xc00 ; CLK_EnablePLL + 256
        0x00000c28:    491a        .I      LDR      r1,[pc,#104] ; [0xc94] = 0xc22e
        0x00000c2a:    e7ee        ..      B        0xc0a ; CLK_EnablePLL + 266
        0x00000c2c:    0308        ..      LSLS     r0,r1,#12
        0x00000c2e:    d500        ..      BPL      0xc32 ; CLK_EnablePLL + 306
        0x00000c30:    4e0d        .N      LDR      r6,[pc,#52] ; [0xc68] = 0x1518000
        0x00000c32:    0388        ..      LSLS     r0,r1,#14
        0x00000c34:    d501        ..      BPL      0xc3a ; CLK_EnablePLL + 314
        0x00000c36:    4630        0F      MOV      r0,r6
        0x00000c38:    e7e2        ..      B        0xc00 ; CLK_EnablePLL + 256
        0x00000c3a:    0408        ..      LSLS     r0,r1,#16
        0x00000c3c:    0f80        ..      LSRS     r0,r0,#30
        0x00000c3e:    466a        jF      MOV      r2,sp
        0x00000c40:    5c10        .\      LDRB     r0,[r2,r0]
        0x00000c42:    05ca        ..      LSLS     r2,r1,#23
        0x00000c44:    0489        ..      LSLS     r1,r1,#18
        0x00000c46:    0ec9        ..      LSRS     r1,r1,#27
        0x00000c48:    1c89        ..      ADDS     r1,r1,#2
        0x00000c4a:    0dd2        ..      LSRS     r2,r2,#23
        0x00000c4c:    4341        AC      MULS     r1,r0,r1
        0x00000c4e:    08b0        ..      LSRS     r0,r6,#2
        0x00000c50:    1c92        ..      ADDS     r2,r2,#2
        0x00000c52:    4350        PC      MULS     r0,r2,r0
        0x00000c54:    f7fffa72    ..r.    BL       __aeabi_uidiv ; 0x13c
        0x00000c58:    0080        ..      LSLS     r0,r0,#2
        0x00000c5a:    e7d1        ..      B        0xc00 ; CLK_EnablePLL + 256
    $d
        0x00000c5c:    00010000    ....    DCD    65536
        0x00000c60:    50000200    ...P    DCD    1342177792
        0x00000c64:    00b71b00    ....    DCD    12000000
        0x00000c68:    01518000    ..Q.    DCD    22118400
        0x00000c6c:    fa0a1eff    ....    DCD    4194967295
        0x00000c70:    05f5e0ff    ....    DCD    99999999
        0x00000c74:    fd050f7f    ....    DCD    4244967295
        0x00000c78:    02faf07f    ....    DCD    49999999
        0x00000c7c:    fe8287c0    ....    DCD    4269967296
        0x00000c80:    ffe795ff    ....    DCD    4293367295
        0x00000c84:    00cc77bf    .w..    DCD    13399999
        0x00000c88:    00000201    ....    DCD    513
        0x00000c8c:    0000d66f    o...    DCD    54895
        0x00000c90:    04020201    ....    DCD    67240449
        0x00000c94:    0000c22e    ....    DCD    49710
    $t
    i.CLK_EnableXtalRC
    CLK_EnableXtalRC
        0x00000c98:    4902        .I      LDR      r1,[pc,#8] ; [0xca4] = 0x50000200
        0x00000c9a:    680a        .h      LDR      r2,[r1,#0]
        0x00000c9c:    4302        .C      ORRS     r2,r2,r0
        0x00000c9e:    600a        .`      STR      r2,[r1,#0]
        0x00000ca0:    4770        pG      BX       lr
    $d
        0x00000ca2:    0000        ..      DCW    0
        0x00000ca4:    50000200    ...P    DCD    1342177792
    $t
    i.CLK_GetPLLClockFreq
    CLK_GetPLLClockFreq
        0x00000ca8:    b508        ..      PUSH     {r3,lr}
        0x00000caa:    a011        ..      ADR      r0,{pc}+0x46 ; 0xcf0
        0x00000cac:    6800        .h      LDR      r0,[r0,#0]
        0x00000cae:    9000        ..      STR      r0,[sp,#0]
        0x00000cb0:    4810        .H      LDR      r0,[pc,#64] ; [0xcf4] = 0x50000200
        0x00000cb2:    6a01        .j      LDR      r1,[r0,#0x20]
        0x00000cb4:    1300        ..      ASRS     r0,r0,#12
        0x00000cb6:    4201        .B      TST      r1,r0
        0x00000cb8:    d001        ..      BEQ      0xcbe ; CLK_GetPLLClockFreq + 22
        0x00000cba:    2000        .       MOVS     r0,#0
        0x00000cbc:    bd08        ..      POP      {r3,pc}
        0x00000cbe:    0308        ..      LSLS     r0,r1,#12
        0x00000cc0:    d501        ..      BPL      0xcc6 ; CLK_GetPLLClockFreq + 30
        0x00000cc2:    480d        .H      LDR      r0,[pc,#52] ; [0xcf8] = 0x1518000
        0x00000cc4:    e000        ..      B        0xcc8 ; CLK_GetPLLClockFreq + 32
        0x00000cc6:    480d        .H      LDR      r0,[pc,#52] ; [0xcfc] = 0xb71b00
        0x00000cc8:    038a        ..      LSLS     r2,r1,#14
        0x00000cca:    d4f7        ..      BMI      0xcbc ; CLK_GetPLLClockFreq + 20
        0x00000ccc:    040a        ..      LSLS     r2,r1,#16
        0x00000cce:    0f92        ..      LSRS     r2,r2,#30
        0x00000cd0:    466b        kF      MOV      r3,sp
        0x00000cd2:    5c9b        .\      LDRB     r3,[r3,r2]
        0x00000cd4:    05ca        ..      LSLS     r2,r1,#23
        0x00000cd6:    0489        ..      LSLS     r1,r1,#18
        0x00000cd8:    0dd2        ..      LSRS     r2,r2,#23
        0x00000cda:    0ec9        ..      LSRS     r1,r1,#27
        0x00000cdc:    1c89        ..      ADDS     r1,r1,#2
        0x00000cde:    0880        ..      LSRS     r0,r0,#2
        0x00000ce0:    1c92        ..      ADDS     r2,r2,#2
        0x00000ce2:    4359        YC      MULS     r1,r3,r1
        0x00000ce4:    4350        PC      MULS     r0,r2,r0
        0x00000ce6:    f7fffa29    ..).    BL       __aeabi_uidiv ; 0x13c
        0x00000cea:    0080        ..      LSLS     r0,r0,#2
        0x00000cec:    bd08        ..      POP      {r3,pc}
    $d
        0x00000cee:    0000        ..      DCW    0
        0x00000cf0:    04020201    ....    DCD    67240449
        0x00000cf4:    50000200    ...P    DCD    1342177792
        0x00000cf8:    01518000    ..Q.    DCD    22118400
        0x00000cfc:    00b71b00    ....    DCD    12000000
    $t
    i.CLK_SetCoreClock
    CLK_SetCoreClock
        0x00000d00:    b5f8        ..      PUSH     {r3-r7,lr}
        0x00000d02:    4c1b        .L      LDR      r4,[pc,#108] ; [0xd70] = 0x50000200
        0x00000d04:    68e5        .h      LDR      r5,[r4,#0xc]
        0x00000d06:    2110        .!      MOVS     r1,#0x10
        0x00000d08:    400d        .@      ANDS     r5,r5,r1
        0x00000d0a:    491a        .I      LDR      r1,[pc,#104] ; [0xd74] = 0x2faf080
        0x00000d0c:    4288        .B      CMP      r0,r1
        0x00000d0e:    d802        ..      BHI      0xd16 ; CLK_SetCoreClock + 22
        0x00000d10:    1049        I.      ASRS     r1,r1,#1
        0x00000d12:    4288        .B      CMP      r0,r1
        0x00000d14:    d200        ..      BCS      0xd18 ; CLK_SetCoreClock + 24
        0x00000d16:    4608        .F      MOV      r0,r1
        0x00000d18:    6821        !h      LDR      r1,[r4,#0]
        0x00000d1a:    2604        .&      MOVS     r6,#4
        0x00000d1c:    4331        1C      ORRS     r1,r1,r6
        0x00000d1e:    6021        !`      STR      r1,[r4,#0]
        0x00000d20:    68e1        .h      LDR      r1,[r4,#0xc]
        0x00000d22:    06c9        ..      LSLS     r1,r1,#27
        0x00000d24:    d5fc        ..      BPL      0xd20 ; CLK_SetCoreClock + 32
        0x00000d26:    6921        !i      LDR      r1,[r4,#0x10]
        0x00000d28:    2207        ."      MOVS     r2,#7
        0x00000d2a:    4311        .C      ORRS     r1,r1,r2
        0x00000d2c:    6121        !a      STR      r1,[r4,#0x10]
        0x00000d2e:    6a21        !j      LDR      r1,[r4,#0x20]
        0x00000d30:    2201        ."      MOVS     r2,#1
        0x00000d32:    0412        ..      LSLS     r2,r2,#16
        0x00000d34:    4311        .C      ORRS     r1,r1,r2
        0x00000d36:    6221        !b      STR      r1,[r4,#0x20]
        0x00000d38:    6821        !h      LDR      r1,[r4,#0]
        0x00000d3a:    07c9        ..      LSLS     r1,r1,#31
        0x00000d3c:    4601        .F      MOV      r1,r0
        0x00000d3e:    d004        ..      BEQ      0xd4a ; CLK_SetCoreClock + 74
        0x00000d40:    2000        .       MOVS     r0,#0
        0x00000d42:    f7fffedd    ....    BL       CLK_EnablePLL ; 0xb00
        0x00000d46:    4607        .F      MOV      r7,r0
        0x00000d48:    e007        ..      B        0xd5a ; CLK_SetCoreClock + 90
        0x00000d4a:    2001        .       MOVS     r0,#1
        0x00000d4c:    04c0        ..      LSLS     r0,r0,#19
        0x00000d4e:    f7fffed7    ....    BL       CLK_EnablePLL ; 0xb00
        0x00000d52:    68e5        .h      LDR      r5,[r4,#0xc]
        0x00000d54:    4607        .F      MOV      r7,r0
        0x00000d56:    2010        .       MOVS     r0,#0x10
        0x00000d58:    4005        .@      ANDS     r5,r5,r0
        0x00000d5a:    2100        .!      MOVS     r1,#0
        0x00000d5c:    2002        .       MOVS     r0,#2
        0x00000d5e:    f000f80b    ....    BL       CLK_SetHCLK ; 0xd78
        0x00000d62:    2d00        .-      CMP      r5,#0
        0x00000d64:    d102        ..      BNE      0xd6c ; CLK_SetCoreClock + 108
        0x00000d66:    6820         h      LDR      r0,[r4,#0]
        0x00000d68:    43b0        .C      BICS     r0,r0,r6
        0x00000d6a:    6020         `      STR      r0,[r4,#0]
        0x00000d6c:    4638        8F      MOV      r0,r7
        0x00000d6e:    bdf8        ..      POP      {r3-r7,pc}
    $d
        0x00000d70:    50000200    ...P    DCD    1342177792
        0x00000d74:    02faf080    ....    DCD    50000000
    $t
    i.CLK_SetHCLK
    CLK_SetHCLK
        0x00000d78:    b570        p.      PUSH     {r4-r6,lr}
        0x00000d7a:    4c10        .L      LDR      r4,[pc,#64] ; [0xdbc] = 0x50000200
        0x00000d7c:    68e5        .h      LDR      r5,[r4,#0xc]
        0x00000d7e:    2610        .&      MOVS     r6,#0x10
        0x00000d80:    6822        "h      LDR      r2,[r4,#0]
        0x00000d82:    4035        5@      ANDS     r5,r5,r6
        0x00000d84:    2304        .#      MOVS     r3,#4
        0x00000d86:    431a        .C      ORRS     r2,r2,r3
        0x00000d88:    6022        "`      STR      r2,[r4,#0]
        0x00000d8a:    68e2        .h      LDR      r2,[r4,#0xc]
        0x00000d8c:    06d2        ..      LSLS     r2,r2,#27
        0x00000d8e:    d5fc        ..      BPL      0xd8a ; CLK_SetHCLK + 18
        0x00000d90:    6922        "i      LDR      r2,[r4,#0x10]
        0x00000d92:    2307        .#      MOVS     r3,#7
        0x00000d94:    431a        .C      ORRS     r2,r2,r3
        0x00000d96:    6122        "a      STR      r2,[r4,#0x10]
        0x00000d98:    69a2        .i      LDR      r2,[r4,#0x18]
        0x00000d9a:    0912        ..      LSRS     r2,r2,#4
        0x00000d9c:    0112        ..      LSLS     r2,r2,#4
        0x00000d9e:    430a        .C      ORRS     r2,r2,r1
        0x00000da0:    61a2        .a      STR      r2,[r4,#0x18]
        0x00000da2:    6921        !i      LDR      r1,[r4,#0x10]
        0x00000da4:    4399        .C      BICS     r1,r1,r3
        0x00000da6:    4301        .C      ORRS     r1,r1,r0
        0x00000da8:    6121        !a      STR      r1,[r4,#0x10]
        0x00000daa:    f000f9f3    ....    BL       SystemCoreClockUpdate ; 0x1194
        0x00000dae:    2d00        .-      CMP      r5,#0
        0x00000db0:    d102        ..      BNE      0xdb8 ; CLK_SetHCLK + 64
        0x00000db2:    6820         h      LDR      r0,[r4,#0]
        0x00000db4:    43b0        .C      BICS     r0,r0,r6
        0x00000db6:    6020         `      STR      r0,[r4,#0]
        0x00000db8:    bd70        p.      POP      {r4-r6,pc}
    $d
        0x00000dba:    0000        ..      DCW    0
        0x00000dbc:    50000200    ...P    DCD    1342177792
    $t
    i.CLK_SetModuleClock
    CLK_SetModuleClock
        0x00000dc0:    b5f0        ..      PUSH     {r4-r7,lr}
        0x00000dc2:    4b2c        ,K      LDR      r3,[pc,#176] ; [0xe74] = 0x1f58
        0x00000dc4:    b086        ..      SUB      sp,sp,#0x18
        0x00000dc6:    461c        .F      MOV      r4,r3
        0x00000dc8:    3408        .4      ADDS     r4,r4,#8
        0x00000dca:    ccf0        ..      LDM      r4,{r4-r7}
        0x00000dcc:    9400        ..      STR      r4,[sp,#0]
        0x00000dce:    ac01        ..      ADD      r4,sp,#4
        0x00000dd0:    c4e0        ..      STM      r4!,{r5-r7}
        0x00000dd2:    cb18        ..      LDM      r3,{r3,r4}
        0x00000dd4:    9304        ..      STR      r3,[sp,#0x10]
        0x00000dd6:    0e43        C.      LSRS     r3,r0,#25
        0x00000dd8:    9405        ..      STR      r4,[sp,#0x14]
        0x00000dda:    075b        [.      LSLS     r3,r3,#29
        0x00000ddc:    d034        4.      BEQ      0xe48 ; CLK_SetModuleClock + 136
        0x00000dde:    0083        ..      LSLS     r3,r0,#2
        0x00000de0:    0f9b        ..      LSRS     r3,r3,#30
        0x00000de2:    009b        ..      LSLS     r3,r3,#2
        0x00000de4:    466c        lF      MOV      r4,sp
        0x00000de6:    58e3        .X      LDR      r3,[r4,r3]
        0x00000de8:    4c23        #L      LDR      r4,[pc,#140] ; [0xe78] = 0x50000210
        0x00000dea:    191b        ..      ADDS     r3,r3,r4
        0x00000dec:    0104        ..      LSLS     r4,r0,#4
        0x00000dee:    0f65        e.      LSRS     r5,r4,#29
        0x00000df0:    01c4        ..      LSLS     r4,r0,#7
        0x00000df2:    0ee4        ..      LSRS     r4,r4,#27
        0x00000df4:    40a5        .@      LSLS     r5,r5,r4
        0x00000df6:    681c        .h      LDR      r4,[r3,#0]
        0x00000df8:    43ac        .C      BICS     r4,r4,r5
        0x00000dfa:    430c        .C      ORRS     r4,r4,r1
        0x00000dfc:    601c        .`      STR      r4,[r3,#0]
        0x00000dfe:    4b1e        .K      LDR      r3,[pc,#120] ; [0xe78] = 0x50000210
        0x00000e00:    4c1e        .L      LDR      r4,[pc,#120] ; [0xe7c] = 0x57c00014
        0x00000e02:    3b10        .;      SUBS     r3,r3,#0x10
        0x00000e04:    42a0        .B      CMP      r0,r4
        0x00000e06:    d107        ..      BNE      0xe18 ; CLK_SetModuleClock + 88
        0x00000e08:    69dd        .i      LDR      r5,[r3,#0x1c]
        0x00000e0a:    24ff        .$      MOVS     r4,#0xff
        0x00000e0c:    3401        .4      ADDS     r4,#1
        0x00000e0e:    43a5        .C      BICS     r5,r5,r4
        0x00000e10:    4021        !@      ANDS     r1,r1,r4
        0x00000e12:    430d        .C      ORRS     r5,r5,r1
        0x00000e14:    61dd        .a      STR      r5,[r3,#0x1c]
        0x00000e16:    e017        ..      B        0xe48 ; CLK_SetModuleClock + 136
        0x00000e18:    4c19        .L      LDR      r4,[pc,#100] ; [0xe80] = 0x57e00015
        0x00000e1a:    42a0        .B      CMP      r0,r4
        0x00000e1c:    d103        ..      BNE      0xe26 ; CLK_SetModuleClock + 102
        0x00000e1e:    69dc        .i      LDR      r4,[r3,#0x1c]
        0x00000e20:    2501        .%      MOVS     r5,#1
        0x00000e22:    026d        m.      LSLS     r5,r5,#9
        0x00000e24:    e00c        ..      B        0xe40 ; CLK_SetModuleClock + 128
        0x00000e26:    4c17        .L      LDR      r4,[pc,#92] ; [0xe84] = 0x66400016
        0x00000e28:    42a0        .B      CMP      r0,r4
        0x00000e2a:    d103        ..      BNE      0xe34 ; CLK_SetModuleClock + 116
        0x00000e2c:    69dc        .i      LDR      r4,[r3,#0x1c]
        0x00000e2e:    2501        .%      MOVS     r5,#1
        0x00000e30:    02ad        ..      LSLS     r5,r5,#10
        0x00000e32:    e005        ..      B        0xe40 ; CLK_SetModuleClock + 128
        0x00000e34:    4c14        .L      LDR      r4,[pc,#80] ; [0xe88] = 0x66600017
        0x00000e36:    42a0        .B      CMP      r0,r4
        0x00000e38:    d106        ..      BNE      0xe48 ; CLK_SetModuleClock + 136
        0x00000e3a:    69dc        .i      LDR      r4,[r3,#0x1c]
        0x00000e3c:    2501        .%      MOVS     r5,#1
        0x00000e3e:    02ed        ..      LSLS     r5,r5,#11
        0x00000e40:    43ac        .C      BICS     r4,r4,r5
        0x00000e42:    4029        )@      ANDS     r1,r1,r5
        0x00000e44:    430c        .C      ORRS     r4,r4,r1
        0x00000e46:    61dc        .a      STR      r4,[r3,#0x1c]
        0x00000e48:    0a83        ..      LSRS     r3,r0,#10
        0x00000e4a:    0619        ..      LSLS     r1,r3,#24
        0x00000e4c:    0e09        ..      LSRS     r1,r1,#24
        0x00000e4e:    d00f        ..      BEQ      0xe70 ; CLK_SetModuleClock + 176
        0x00000e50:    0301        ..      LSLS     r1,r0,#12
        0x00000e52:    0f89        ..      LSRS     r1,r1,#30
        0x00000e54:    0089        ..      LSLS     r1,r1,#2
        0x00000e56:    ac04        ..      ADD      r4,sp,#0x10
        0x00000e58:    5861        aX      LDR      r1,[r4,r1]
        0x00000e5a:    4c07        .L      LDR      r4,[pc,#28] ; [0xe78] = 0x50000210
        0x00000e5c:    0580        ..      LSLS     r0,r0,#22
        0x00000e5e:    3408        .4      ADDS     r4,r4,#8
        0x00000e60:    1909        ..      ADDS     r1,r1,r4
        0x00000e62:    b2db        ..      UXTB     r3,r3
        0x00000e64:    0ec0        ..      LSRS     r0,r0,#27
        0x00000e66:    4083        .@      LSLS     r3,r3,r0
        0x00000e68:    6808        .h      LDR      r0,[r1,#0]
        0x00000e6a:    4398        .C      BICS     r0,r0,r3
        0x00000e6c:    4310        .C      ORRS     r0,r0,r2
        0x00000e6e:    6008        .`      STR      r0,[r1,#0]
        0x00000e70:    b006        ..      ADD      sp,sp,#0x18
        0x00000e72:    bdf0        ..      POP      {r4-r7,pc}
    $d
        0x00000e74:    00001f58    X...    DCD    8024
        0x00000e78:    50000210    ...P    DCD    1342177808
        0x00000e7c:    57c00014    ...W    DCD    1472200724
        0x00000e80:    57e00015    ...W    DCD    1474297877
        0x00000e84:    66400016    ..@f    DCD    1715470358
        0x00000e88:    66600017    ..`f    DCD    1717567511
    $t
    i.CLK_SysTickDelay
    CLK_SysTickDelay
        0x00000e8c:    4906        .I      LDR      r1,[pc,#24] ; [0xea8] = 0x20000004
        0x00000e8e:    6809        .h      LDR      r1,[r1,#0]
        0x00000e90:    4348        HC      MULS     r0,r1,r0
        0x00000e92:    4906        .I      LDR      r1,[pc,#24] ; [0xeac] = 0xe000e000
        0x00000e94:    6148        Ha      STR      r0,[r1,#0x14]
        0x00000e96:    2200        ."      MOVS     r2,#0
        0x00000e98:    618a        .a      STR      r2,[r1,#0x18]
        0x00000e9a:    2005        .       MOVS     r0,#5
        0x00000e9c:    6108        .a      STR      r0,[r1,#0x10]
        0x00000e9e:    6908        .i      LDR      r0,[r1,#0x10]
        0x00000ea0:    03c0        ..      LSLS     r0,r0,#15
        0x00000ea2:    d5fc        ..      BPL      0xe9e ; CLK_SysTickDelay + 18
        0x00000ea4:    610a        .a      STR      r2,[r1,#0x10]
        0x00000ea6:    4770        pG      BX       lr
    $d
        0x00000ea8:    20000004    ...     DCD    536870916
        0x00000eac:    e000e000    ....    DCD    3758153728
    $t
    i.CLK_WaitClockReady
    CLK_WaitClockReady
        0x00000eb0:    b510        ..      PUSH     {r4,lr}
        0x00000eb2:    4604        .F      MOV      r4,r0
        0x00000eb4:    4907        .I      LDR      r1,[pc,#28] ; [0xed4] = 0x124f80
        0x00000eb6:    4b08        .K      LDR      r3,[pc,#32] ; [0xed8] = 0x50000200
        0x00000eb8:    e005        ..      B        0xec6 ; CLK_WaitClockReady + 22
        0x00000eba:    460a        .F      MOV      r2,r1
        0x00000ebc:    1e49        I.      SUBS     r1,r1,#1
        0x00000ebe:    2a00        .*      CMP      r2,#0
        0x00000ec0:    dc01        ..      BGT      0xec6 ; CLK_WaitClockReady + 22
        0x00000ec2:    2000        .       MOVS     r0,#0
        0x00000ec4:    bd10        ..      POP      {r4,pc}
        0x00000ec6:    68da        .h      LDR      r2,[r3,#0xc]
        0x00000ec8:    4620         F      MOV      r0,r4
        0x00000eca:    4390        .C      BICS     r0,r0,r2
        0x00000ecc:    d1f5        ..      BNE      0xeba ; CLK_WaitClockReady + 10
        0x00000ece:    2001        .       MOVS     r0,#1
        0x00000ed0:    bd10        ..      POP      {r4,pc}
    $d
        0x00000ed2:    0000        ..      DCW    0
        0x00000ed4:    00124f80    .O..    DCD    1200000
        0x00000ed8:    50000200    ...P    DCD    1342177792
    $t
    i.Hard_Fault_Handler
    Hard_Fault_Handler
    __tagsym$$used
        0x00000edc:    4604        .F      MOV      r4,r0
        0x00000ede:    a003        ..      ADR      r0,{pc}+0xe ; 0xeec
        0x00000ee0:    f000f9f4    ....    BL       __0printf ; 0x12cc
        0x00000ee4:    4620         F      MOV      r0,r4
        0x00000ee6:    f000ffe3    ....    BL       stackDump ; 0x1eb0
        0x00000eea:    e7fe        ..      B        0xeea ; Hard_Fault_Handler + 14
    $d
        0x00000eec:    48206e49    In H    DCD    1210084937
        0x00000ef0:    20647261    ard     DCD    543453793
        0x00000ef4:    6c756146    Faul    DCD    1819631942
        0x00000ef8:    61482074    t Ha    DCD    1632116852
        0x00000efc:    656c646e    ndle    DCD    1701602414
        0x00000f00:    00000a72    r...    DCD    2674
    $t
    i.I2C0_IRQHandler
    I2C0_IRQHandler
        0x00000f04:    b510        ..      PUSH     {r4,lr}
        0x00000f06:    4908        .I      LDR      r1,[pc,#32] ; [0xf28] = 0x40020000
        0x00000f08:    68c8        .h      LDR      r0,[r1,#0xc]
        0x00000f0a:    694a        Ji      LDR      r2,[r1,#0x14]
        0x00000f0c:    43d2        .C      MVNS     r2,r2
        0x00000f0e:    07d2        ..      LSLS     r2,r2,#31
        0x00000f10:    d006        ..      BEQ      0xf20 ; I2C0_IRQHandler + 28
        0x00000f12:    4906        .I      LDR      r1,[pc,#24] ; [0xf2c] = 0x2000002c
        0x00000f14:    690a        .i      LDR      r2,[r1,#0x10]
        0x00000f16:    2a00        .*      CMP      r2,#0
        0x00000f18:    d001        ..      BEQ      0xf1e ; I2C0_IRQHandler + 26
        0x00000f1a:    6909        .i      LDR      r1,[r1,#0x10]
        0x00000f1c:    4788        .G      BLX      r1
        0x00000f1e:    bd10        ..      POP      {r4,pc}
        0x00000f20:    4608        .F      MOV      r0,r1
        0x00000f22:    f000f82b    ..+.    BL       I2C_ClearTimeoutFlag ; 0xf7c
        0x00000f26:    bd10        ..      POP      {r4,pc}
    $d
        0x00000f28:    40020000    ...@    DCD    1073872896
        0x00000f2c:    2000002c    ,..     DCD    536870956
    $t
    i.I2C0_Init
    I2C0_Init
        0x00000f30:    b510        ..      PUSH     {r4,lr}
        0x00000f32:    4c0b        .L      LDR      r4,[pc,#44] ; [0xf60] = 0x40020000
        0x00000f34:    4909        .I      LDR      r1,[pc,#36] ; [0xf5c] = 0x186a0
        0x00000f36:    4620         F      MOV      r0,r4
        0x00000f38:    f000f8c4    ....    BL       I2C_Open ; 0x10c4
        0x00000f3c:    4620         F      MOV      r0,r4
        0x00000f3e:    f000f827    ..'.    BL       I2C_GetBusClockFreq ; 0xf90
        0x00000f42:    4601        .F      MOV      r1,r0
        0x00000f44:    a007        ..      ADR      r0,{pc}+0x20 ; 0xf64
        0x00000f46:    f000f9c1    ....    BL       __0printf ; 0x12cc
        0x00000f4a:    4620         F      MOV      r0,r4
        0x00000f4c:    f000f81b    ....    BL       I2C_EnableInt ; 0xf86
        0x00000f50:    2001        .       MOVS     r0,#1
        0x00000f52:    4909        .I      LDR      r1,[pc,#36] ; [0xf78] = 0xe000e100
        0x00000f54:    0480        ..      LSLS     r0,r0,#18
        0x00000f56:    6008        .`      STR      r0,[r1,#0]
        0x00000f58:    bd10        ..      POP      {r4,pc}
    $d
        0x00000f5a:    0000        ..      DCW    0
        0x00000f5c:    000186a0    ....    DCD    100000
        0x00000f60:    40020000    ...@    DCD    1073872896
        0x00000f64:    20433249    I2C     DCD    541274697
        0x00000f68:    636f6c63    cloc    DCD    1668246627
        0x00000f6c:    6425206b    k %d    DCD    1680154731
        0x00000f70:    0a7a4820     Hz.    DCD    175786016
        0x00000f74:    00000000    ....    DCD    0
        0x00000f78:    e000e100    ....    DCD    3758153984
    $t
    i.I2C_ClearTimeoutFlag
    I2C_ClearTimeoutFlag
        0x00000f7c:    6941        Ai      LDR      r1,[r0,#0x14]
        0x00000f7e:    2201        ."      MOVS     r2,#1
        0x00000f80:    4311        .C      ORRS     r1,r1,r2
        0x00000f82:    6141        Aa      STR      r1,[r0,#0x14]
        0x00000f84:    4770        pG      BX       lr
    i.I2C_EnableInt
    I2C_EnableInt
        0x00000f86:    6801        .h      LDR      r1,[r0,#0]
        0x00000f88:    2280        ."      MOVS     r2,#0x80
        0x00000f8a:    4311        .C      ORRS     r1,r1,r2
        0x00000f8c:    6001        .`      STR      r1,[r0,#0]
        0x00000f8e:    4770        pG      BX       lr
    i.I2C_GetBusClockFreq
    I2C_GetBusClockFreq
        0x00000f90:    b510        ..      PUSH     {r4,lr}
        0x00000f92:    6900        .i      LDR      r0,[r0,#0x10]
        0x00000f94:    0081        ..      LSLS     r1,r0,#2
        0x00000f96:    4803        .H      LDR      r0,[pc,#12] ; [0xfa4] = 0x20000000
        0x00000f98:    1d09        ..      ADDS     r1,r1,#4
        0x00000f9a:    6800        .h      LDR      r0,[r0,#0]
        0x00000f9c:    f7fff8ce    ....    BL       __aeabi_uidiv ; 0x13c
        0x00000fa0:    bd10        ..      POP      {r4,pc}
    $d
        0x00000fa2:    0000        ..      DCW    0
        0x00000fa4:    20000000    ...     DCD    536870912
    $t
    i.I2C_MasterRx
    I2C_MasterRx
        0x00000fa8:    b510        ..      PUSH     {r4,lr}
        0x00000faa:    4b1a        .K      LDR      r3,[pc,#104] ; [0x1014] = 0x2000002c
        0x00000fac:    491a        .I      LDR      r1,[pc,#104] ; [0x1018] = 0x40020000
        0x00000fae:    223c        <"      MOVS     r2,#0x3c
        0x00000fb0:    2808        .(      CMP      r0,#8
        0x00000fb2:    d010        ..      BEQ      0xfd6 ; I2C_MasterRx + 46
        0x00000fb4:    2818        .(      CMP      r0,#0x18
        0x00000fb6:    d011        ..      BEQ      0xfdc ; I2C_MasterRx + 52
        0x00000fb8:    2820         (      CMP      r0,#0x20
        0x00000fba:    d016        ..      BEQ      0xfea ; I2C_MasterRx + 66
        0x00000fbc:    2828        ((      CMP      r0,#0x28
        0x00000fbe:    d018        ..      BEQ      0xff2 ; I2C_MasterRx + 74
        0x00000fc0:    2810        .(      CMP      r0,#0x10
        0x00000fc2:    d01a        ..      BEQ      0xffa ; I2C_MasterRx + 82
        0x00000fc4:    2840        @(      CMP      r0,#0x40
        0x00000fc6:    d00b        ..      BEQ      0xfe0 ; I2C_MasterRx + 56
        0x00000fc8:    2858        X(      CMP      r0,#0x58
        0x00000fca:    d01a        ..      BEQ      0x1002 ; I2C_MasterRx + 90
        0x00000fcc:    4601        .F      MOV      r1,r0
        0x00000fce:    a013        ..      ADR      r0,{pc}+0x4e ; 0x101c
        0x00000fd0:    f000f97c    ..|.    BL       __0printf ; 0x12cc
        0x00000fd4:    bd10        ..      POP      {r4,pc}
        0x00000fd6:    7898        .x      LDRB     r0,[r3,#2]
        0x00000fd8:    0040        @.      LSLS     r0,r0,#1
        0x00000fda:    e000        ..      B        0xfde ; I2C_MasterRx + 54
        0x00000fdc:    7958        Xy      LDRB     r0,[r3,#5]
        0x00000fde:    6088        .`      STR      r0,[r1,#8]
        0x00000fe0:    6808        .h      LDR      r0,[r1,#0]
        0x00000fe2:    4390        .C      BICS     r0,r0,r2
        0x00000fe4:    3008        .0      ADDS     r0,r0,#8
        0x00000fe6:    6008        .`      STR      r0,[r1,#0]
        0x00000fe8:    bd10        ..      POP      {r4,pc}
        0x00000fea:    6808        .h      LDR      r0,[r1,#0]
        0x00000fec:    4390        .C      BICS     r0,r0,r2
        0x00000fee:    3038        80      ADDS     r0,r0,#0x38
        0x00000ff0:    e7f9        ..      B        0xfe6 ; I2C_MasterRx + 62
        0x00000ff2:    6808        .h      LDR      r0,[r1,#0]
        0x00000ff4:    4390        .C      BICS     r0,r0,r2
        0x00000ff6:    3028        (0      ADDS     r0,r0,#0x28
        0x00000ff8:    e7f5        ..      B        0xfe6 ; I2C_MasterRx + 62
        0x00000ffa:    7898        .x      LDRB     r0,[r3,#2]
        0x00000ffc:    0040        @.      LSLS     r0,r0,#1
        0x00000ffe:    1c40        @.      ADDS     r0,r0,#1
        0x00001000:    e7ed        ..      B        0xfde ; I2C_MasterRx + 54
        0x00001002:    6888        .h      LDR      r0,[r1,#8]
        0x00001004:    70d8        .p      STRB     r0,[r3,#3]
        0x00001006:    6808        .h      LDR      r0,[r1,#0]
        0x00001008:    4390        .C      BICS     r0,r0,r2
        0x0000100a:    3018        .0      ADDS     r0,r0,#0x18
        0x0000100c:    6008        .`      STR      r0,[r1,#0]
        0x0000100e:    2001        .       MOVS     r0,#1
        0x00001010:    7018        .p      STRB     r0,[r3,#0]
        0x00001012:    bd10        ..      POP      {r4,pc}
    $d
        0x00001014:    2000002c    ,..     DCD    536870956
        0x00001018:    40020000    ...@    DCD    1073872896
        0x0000101c:    74617453    Stat    DCD    1952543827
        0x00001020:    30207375    us 0    DCD    807433077
        0x00001024:    20782578    x%x     DCD    544744824
        0x00001028:    4e207369    is N    DCD    1310749545
        0x0000102c:    7020544f    OT p    DCD    1881166927
        0x00001030:    65636f72    roce    DCD    1701015410
        0x00001034:    64657373    ssed    DCD    1684370291
        0x00001038:    0000000a    ....    DCD    10
    $t
    i.I2C_MasterTx
    I2C_MasterTx
        0x0000103c:    b570        p.      PUSH     {r4-r6,lr}
        0x0000103e:    4917        .I      LDR      r1,[pc,#92] ; [0x109c] = 0x40020000
        0x00001040:    223c        <"      MOVS     r2,#0x3c
        0x00001042:    4b17        .K      LDR      r3,[pc,#92] ; [0x10a0] = 0x2000002c
        0x00001044:    2808        .(      CMP      r0,#8
        0x00001046:    d00c        ..      BEQ      0x1062 ; I2C_MasterTx + 38
        0x00001048:    461c        .F      MOV      r4,r3
        0x0000104a:    340c        .4      ADDS     r4,r4,#0xc
        0x0000104c:    2818        .(      CMP      r0,#0x18
        0x0000104e:    d018        ..      BEQ      0x1082 ; I2C_MasterTx + 70
        0x00001050:    2820         (      CMP      r0,#0x20
        0x00001052:    d00e        ..      BEQ      0x1072 ; I2C_MasterTx + 54
        0x00001054:    2828        ((      CMP      r0,#0x28
        0x00001056:    d010        ..      BEQ      0x107a ; I2C_MasterTx + 62
        0x00001058:    4601        .F      MOV      r1,r0
        0x0000105a:    a012        ..      ADR      r0,{pc}+0x4a ; 0x10a4
        0x0000105c:    f000f936    ..6.    BL       __0printf ; 0x12cc
        0x00001060:    bd70        p.      POP      {r4-r6,pc}
        0x00001062:    7898        .x      LDRB     r0,[r3,#2]
        0x00001064:    0040        @.      LSLS     r0,r0,#1
        0x00001066:    6088        .`      STR      r0,[r1,#8]
        0x00001068:    6808        .h      LDR      r0,[r1,#0]
        0x0000106a:    4390        .C      BICS     r0,r0,r2
        0x0000106c:    3008        .0      ADDS     r0,r0,#8
        0x0000106e:    6008        .`      STR      r0,[r1,#0]
        0x00001070:    bd70        p.      POP      {r4-r6,pc}
        0x00001072:    6808        .h      LDR      r0,[r1,#0]
        0x00001074:    4390        .C      BICS     r0,r0,r2
        0x00001076:    3038        80      ADDS     r0,r0,#0x38
        0x00001078:    e7f9        ..      B        0x106e ; I2C_MasterTx + 50
        0x0000107a:    7918        .y      LDRB     r0,[r3,#4]
        0x0000107c:    785d        ]x      LDRB     r5,[r3,#1]
        0x0000107e:    42a8        .B      CMP      r0,r5
        0x00001080:    d005        ..      BEQ      0x108e ; I2C_MasterTx + 82
        0x00001082:    7918        .y      LDRB     r0,[r3,#4]
        0x00001084:    1824        $.      ADDS     r4,r4,r0
        0x00001086:    1c40        @.      ADDS     r0,r0,#1
        0x00001088:    7118        .q      STRB     r0,[r3,#4]
        0x0000108a:    7820         x      LDRB     r0,[r4,#0]
        0x0000108c:    e7eb        ..      B        0x1066 ; I2C_MasterTx + 42
        0x0000108e:    6808        .h      LDR      r0,[r1,#0]
        0x00001090:    4390        .C      BICS     r0,r0,r2
        0x00001092:    3018        .0      ADDS     r0,r0,#0x18
        0x00001094:    6008        .`      STR      r0,[r1,#0]
        0x00001096:    2001        .       MOVS     r0,#1
        0x00001098:    7018        .p      STRB     r0,[r3,#0]
        0x0000109a:    bd70        p.      POP      {r4-r6,pc}
    $d
        0x0000109c:    40020000    ...@    DCD    1073872896
        0x000010a0:    2000002c    ,..     DCD    536870956
        0x000010a4:    74617453    Stat    DCD    1952543827
        0x000010a8:    30207375    us 0    DCD    807433077
        0x000010ac:    20782578    x%x     DCD    544744824
        0x000010b0:    4e207369    is N    DCD    1310749545
        0x000010b4:    7020544f    OT p    DCD    1881166927
        0x000010b8:    65636f72    roce    DCD    1701015410
        0x000010bc:    64657373    ssed    DCD    1684370291
        0x000010c0:    0000000a    ....    DCD    10
    $t
    i.I2C_Open
    I2C_Open
        0x000010c4:    b570        p.      PUSH     {r4-r6,lr}
        0x000010c6:    4d0c        .M      LDR      r5,[pc,#48] ; [0x10f8] = 0x20000000
        0x000010c8:    4604        .F      MOV      r4,r0
        0x000010ca:    6828        (h      LDR      r0,[r5,#0]
        0x000010cc:    220a        ."      MOVS     r2,#0xa
        0x000010ce:    0089        ..      LSLS     r1,r1,#2
        0x000010d0:    4350        PC      MULS     r0,r2,r0
        0x000010d2:    f7fff833    ..3.    BL       __aeabi_uidiv ; 0x13c
        0x000010d6:    210a        .!      MOVS     r1,#0xa
        0x000010d8:    1d40        @.      ADDS     r0,r0,#5
        0x000010da:    f7fff82f    ../.    BL       __aeabi_uidiv ; 0x13c
        0x000010de:    1e40        @.      SUBS     r0,r0,#1
        0x000010e0:    6120         a      STR      r0,[r4,#0x10]
        0x000010e2:    6821        !h      LDR      r1,[r4,#0]
        0x000010e4:    2240        @"      MOVS     r2,#0x40
        0x000010e6:    4311        .C      ORRS     r1,r1,r2
        0x000010e8:    6021        !`      STR      r1,[r4,#0]
        0x000010ea:    0081        ..      LSLS     r1,r0,#2
        0x000010ec:    1d09        ..      ADDS     r1,r1,#4
        0x000010ee:    6828        (h      LDR      r0,[r5,#0]
        0x000010f0:    f7fff824    ..$.    BL       __aeabi_uidiv ; 0x13c
        0x000010f4:    bd70        p.      POP      {r4-r6,pc}
    $d
        0x000010f6:    0000        ..      DCW    0
        0x000010f8:    20000000    ...     DCD    536870912
    $t
    i.SYS_Init
    SYS_Init
        0x000010fc:    b510        ..      PUSH     {r4,lr}
        0x000010fe:    2004        .       MOVS     r0,#4
        0x00001100:    f7fffdca    ....    BL       CLK_EnableXtalRC ; 0xc98
        0x00001104:    2010        .       MOVS     r0,#0x10
        0x00001106:    f7fffed3    ....    BL       CLK_WaitClockReady ; 0xeb0
        0x0000110a:    2100        .!      MOVS     r1,#0
        0x0000110c:    2007        .       MOVS     r0,#7
        0x0000110e:    f7fffe33    ..3.    BL       CLK_SetHCLK ; 0xd78
        0x00001112:    2001        .       MOVS     r0,#1
        0x00001114:    f7fffdc0    ....    BL       CLK_EnableXtalRC ; 0xc98
        0x00001118:    2001        .       MOVS     r0,#1
        0x0000111a:    f7fffec9    ....    BL       CLK_WaitClockReady ; 0xeb0
        0x0000111e:    480b        .H      LDR      r0,[pc,#44] ; [0x114c] = 0x2faf080
        0x00001120:    f7fffdee    ....    BL       CLK_SetCoreClock ; 0xd00
        0x00001124:    4c0a        .L      LDR      r4,[pc,#40] ; [0x1150] = 0x57803d10
        0x00001126:    4620         F      MOV      r0,r4
        0x00001128:    f7fffcd2    ....    BL       CLK_EnableModuleClock ; 0xad0
        0x0000112c:    4809        .H      LDR      r0,[pc,#36] ; [0x1154] = 0x40000008
        0x0000112e:    f7fffccf    ....    BL       CLK_EnableModuleClock ; 0xad0
        0x00001132:    2200        ."      MOVS     r2,#0
        0x00001134:    4611        .F      MOV      r1,r2
        0x00001136:    4620         F      MOV      r0,r4
        0x00001138:    f7fffe42    ..B.    BL       CLK_SetModuleClock ; 0xdc0
        0x0000113c:    2103        .!      MOVS     r1,#3
        0x0000113e:    2005        .       MOVS     r0,#5
        0x00001140:    0700        ..      LSLS     r0,r0,#28
        0x00001142:    6341        Ac      STR      r1,[r0,#0x34]
        0x00001144:    0209        ..      LSLS     r1,r1,#8
        0x00001146:    6301        .c      STR      r1,[r0,#0x30]
        0x00001148:    bd10        ..      POP      {r4,pc}
    $d
        0x0000114a:    0000        ..      DCW    0
        0x0000114c:    02faf080    ....    DCD    50000000
        0x00001150:    57803d10    .=.W    DCD    1468022032
        0x00001154:    40000008    ...@    DCD    1073741832
    $t
    i.SYS_ResetModule
    SYS_ResetModule
        0x00001158:    2105        .!      MOVS     r1,#5
        0x0000115a:    0e02        ..      LSRS     r2,r0,#24
        0x0000115c:    0709        ..      LSLS     r1,r1,#28
        0x0000115e:    1851        Q.      ADDS     r1,r2,r1
        0x00001160:    688b        .h      LDR      r3,[r1,#8]
        0x00001162:    2201        ."      MOVS     r2,#1
        0x00001164:    4082        .@      LSLS     r2,r2,r0
        0x00001166:    4313        .C      ORRS     r3,r3,r2
        0x00001168:    608b        .`      STR      r3,[r1,#8]
        0x0000116a:    6888        .h      LDR      r0,[r1,#8]
        0x0000116c:    4390        .C      BICS     r0,r0,r2
        0x0000116e:    6088        .`      STR      r0,[r1,#8]
        0x00001170:    4770        pG      BX       lr
        0x00001172:    0000        ..      MOVS     r0,r0
    i.SendChar_ToUART
    SendChar_ToUART
        0x00001174:    4906        .I      LDR      r1,[pc,#24] ; [0x1190] = 0x40050000
        0x00001176:    698a        .i      LDR      r2,[r1,#0x18]
        0x00001178:    0212        ..      LSLS     r2,r2,#8
        0x0000117a:    d4fc        ..      BMI      0x1176 ; SendChar_ToUART + 2
        0x0000117c:    6008        .`      STR      r0,[r1,#0]
        0x0000117e:    280a        .(      CMP      r0,#0xa
        0x00001180:    d104        ..      BNE      0x118c ; SendChar_ToUART + 24
        0x00001182:    6988        .i      LDR      r0,[r1,#0x18]
        0x00001184:    0200        ..      LSLS     r0,r0,#8
        0x00001186:    d4fc        ..      BMI      0x1182 ; SendChar_ToUART + 14
        0x00001188:    200d        .       MOVS     r0,#0xd
        0x0000118a:    6008        .`      STR      r0,[r1,#0]
        0x0000118c:    4770        pG      BX       lr
    $d
        0x0000118e:    0000        ..      DCW    0
        0x00001190:    40050000    ...@    DCD    1074069504
    $t
    i.SystemCoreClockUpdate
    SystemCoreClockUpdate
        0x00001194:    b538        8.      PUSH     {r3-r5,lr}
        0x00001196:    a01d        ..      ADR      r0,{pc}+0x76 ; 0x120c
        0x00001198:    6800        .h      LDR      r0,[r0,#0]
        0x0000119a:    4c1d        .L      LDR      r4,[pc,#116] ; [0x1210] = 0x50000200
        0x0000119c:    9000        ..      STR      r0,[sp,#0]
        0x0000119e:    6a21        !j      LDR      r1,[r4,#0x20]
        0x000011a0:    1320         .      ASRS     r0,r4,#12
        0x000011a2:    4201        .B      TST      r1,r0
        0x000011a4:    d001        ..      BEQ      0x11aa ; SystemCoreClockUpdate + 22
        0x000011a6:    2000        .       MOVS     r0,#0
        0x000011a8:    e016        ..      B        0x11d8 ; SystemCoreClockUpdate + 68
        0x000011aa:    0308        ..      LSLS     r0,r1,#12
        0x000011ac:    d501        ..      BPL      0x11b2 ; SystemCoreClockUpdate + 30
        0x000011ae:    4819        .H      LDR      r0,[pc,#100] ; [0x1214] = 0x1518000
        0x000011b0:    e000        ..      B        0x11b4 ; SystemCoreClockUpdate + 32
        0x000011b2:    4819        .H      LDR      r0,[pc,#100] ; [0x1218] = 0xb71b00
        0x000011b4:    038a        ..      LSLS     r2,r1,#14
        0x000011b6:    d40f        ..      BMI      0x11d8 ; SystemCoreClockUpdate + 68
        0x000011b8:    040a        ..      LSLS     r2,r1,#16
        0x000011ba:    0f92        ..      LSRS     r2,r2,#30
        0x000011bc:    466b        kF      MOV      r3,sp
        0x000011be:    5c9b        .\      LDRB     r3,[r3,r2]
        0x000011c0:    05ca        ..      LSLS     r2,r1,#23
        0x000011c2:    0489        ..      LSLS     r1,r1,#18
        0x000011c4:    0dd2        ..      LSRS     r2,r2,#23
        0x000011c6:    0ec9        ..      LSRS     r1,r1,#27
        0x000011c8:    1c89        ..      ADDS     r1,r1,#2
        0x000011ca:    0880        ..      LSRS     r0,r0,#2
        0x000011cc:    1c92        ..      ADDS     r2,r2,#2
        0x000011ce:    4359        YC      MULS     r1,r3,r1
        0x000011d0:    4350        PC      MULS     r0,r2,r0
        0x000011d2:    f7feffb3    ....    BL       __aeabi_uidiv ; 0x13c
        0x000011d6:    0080        ..      LSLS     r0,r0,#2
        0x000011d8:    4d10        .M      LDR      r5,[pc,#64] ; [0x121c] = 0x20000000
        0x000011da:    60a8        .`      STR      r0,[r5,#8]
        0x000011dc:    6921        !i      LDR      r1,[r4,#0x10]
        0x000011de:    0749        I.      LSLS     r1,r1,#29
        0x000011e0:    0f49        I.      LSRS     r1,r1,#29
        0x000011e2:    2902        .)      CMP      r1,#2
        0x000011e4:    d003        ..      BEQ      0x11ee ; SystemCoreClockUpdate + 90
        0x000011e6:    0088        ..      LSLS     r0,r1,#2
        0x000011e8:    4629        )F      MOV      r1,r5
        0x000011ea:    310c        .1      ADDS     r1,r1,#0xc
        0x000011ec:    5808        .X      LDR      r0,[r1,r0]
        0x000011ee:    69a1        .i      LDR      r1,[r4,#0x18]
        0x000011f0:    0709        ..      LSLS     r1,r1,#28
        0x000011f2:    0f09        ..      LSRS     r1,r1,#28
        0x000011f4:    1c49        I.      ADDS     r1,r1,#1
        0x000011f6:    f7feffa1    ....    BL       __aeabi_uidiv ; 0x13c
        0x000011fa:    4909        .I      LDR      r1,[pc,#36] ; [0x1220] = 0xf4240
        0x000011fc:    6028        (`      STR      r0,[r5,#0]
        0x000011fe:    104a        J.      ASRS     r2,r1,#1
        0x00001200:    1880        ..      ADDS     r0,r0,r2
        0x00001202:    f7feff9b    ....    BL       __aeabi_uidiv ; 0x13c
        0x00001206:    6068        h`      STR      r0,[r5,#4]
        0x00001208:    bd38        8.      POP      {r3-r5,pc}
    $d
        0x0000120a:    0000        ..      DCW    0
        0x0000120c:    04020201    ....    DCD    67240449
        0x00001210:    50000200    ...P    DCD    1342177792
        0x00001214:    01518000    ..Q.    DCD    22118400
        0x00001218:    00b71b00    ....    DCD    12000000
        0x0000121c:    20000000    ...     DCD    536870912
        0x00001220:    000f4240    @B..    DCD    1000000
    $t
    i.SystemInit
    SystemInit
        0x00001224:    4770        pG      BX       lr
        0x00001226:    0000        ..      MOVS     r0,r0
    i.UART0_Init
    UART0_Init
        0x00001228:    b510        ..      PUSH     {r4,lr}
        0x0000122a:    4804        .H      LDR      r0,[pc,#16] ; [0x123c] = 0x4000010
        0x0000122c:    f7ffff94    ....    BL       SYS_ResetModule ; 0x1158
        0x00001230:    21e1        .!      MOVS     r1,#0xe1
        0x00001232:    0249        I.      LSLS     r1,r1,#9
        0x00001234:    4802        .H      LDR      r0,[pc,#8] ; [0x1240] = 0x40050000
        0x00001236:    f000f805    ....    BL       UART_Open ; 0x1244
        0x0000123a:    bd10        ..      POP      {r4,pc}
    $d
        0x0000123c:    04000010    ....    DCD    67108880
        0x00001240:    40050000    ...@    DCD    1074069504
    $t
    i.UART_Open
    UART_Open
        0x00001244:    b5f0        ..      PUSH     {r4-r7,lr}
        0x00001246:    4604        .F      MOV      r4,r0
        0x00001248:    481c        .H      LDR      r0,[pc,#112] ; [0x12bc] = 0x1f90
        0x0000124a:    460d        .F      MOV      r5,r1
        0x0000124c:    c80f        ..      LDM      r0,{r0-r3}
        0x0000124e:    b085        ..      SUB      sp,sp,#0x14
        0x00001250:    466e        nF      MOV      r6,sp
        0x00001252:    c60f        ..      STM      r6!,{r0-r3}
        0x00001254:    481a        .H      LDR      r0,[pc,#104] ; [0x12c0] = 0x50000200
        0x00001256:    6941        Ai      LDR      r1,[r0,#0x14]
        0x00001258:    6980        .i      LDR      r0,[r0,#0x18]
        0x0000125a:    018a        ..      LSLS     r2,r1,#6
        0x0000125c:    2103        .!      MOVS     r1,#3
        0x0000125e:    0f96        ..      LSRS     r6,r2,#30
        0x00001260:    0500        ..      LSLS     r0,r0,#20
        0x00001262:    0f07        ..      LSRS     r7,r0,#28
        0x00001264:    2000        .       MOVS     r0,#0
        0x00001266:    6320         c      STR      r0,[r4,#0x30]
        0x00001268:    60e1        .`      STR      r1,[r4,#0xc]
        0x0000126a:    68a0        .h      LDR      r0,[r4,#8]
        0x0000126c:    4915        .I      LDR      r1,[pc,#84] ; [0x12c4] = 0xfff0ff0f
        0x0000126e:    4008        .@      ANDS     r0,r0,r1
        0x00001270:    60a0        .`      STR      r0,[r4,#8]
        0x00001272:    2e01        ..      CMP      r6,#1
        0x00001274:    d102        ..      BNE      0x127c ; UART_Open + 56
        0x00001276:    f7fffd17    ....    BL       CLK_GetPLLClockFreq ; 0xca8
        0x0000127a:    9001        ..      STR      r0,[sp,#4]
        0x0000127c:    2d00        .-      CMP      r5,#0
        0x0000127e:    d01b        ..      BEQ      0x12b8 ; UART_Open + 116
        0x00001280:    00b1        ..      LSLS     r1,r6,#2
        0x00001282:    4668        hF      MOV      r0,sp
        0x00001284:    5840        @X      LDR      r0,[r0,r1]
        0x00001286:    1c79        y.      ADDS     r1,r7,#1
        0x00001288:    f7feff58    ..X.    BL       __aeabi_uidiv ; 0x13c
        0x0000128c:    4606        .F      MOV      r6,r0
        0x0000128e:    0869        i.      LSRS     r1,r5,#1
        0x00001290:    1840        @.      ADDS     r0,r0,r1
        0x00001292:    4629        )F      MOV      r1,r5
        0x00001294:    f7feff52    ..R.    BL       __aeabi_uidiv ; 0x13c
        0x00001298:    490b        .I      LDR      r1,[pc,#44] ; [0x12c8] = 0xffff
        0x0000129a:    1e80        ..      SUBS     r0,r0,#2
        0x0000129c:    4288        .B      CMP      r0,r1
        0x0000129e:    d907        ..      BLS      0x12b0 ; UART_Open + 108
        0x000012a0:    00e9        ..      LSLS     r1,r5,#3
        0x000012a2:    1870        p.      ADDS     r0,r6,r1
        0x000012a4:    4629        )F      MOV      r1,r5
        0x000012a6:    f7feff49    ..I.    BL       __aeabi_uidiv ; 0x13c
        0x000012aa:    0900        ..      LSRS     r0,r0,#4
        0x000012ac:    1e80        ..      SUBS     r0,r0,#2
        0x000012ae:    e002        ..      B        0x12b6 ; UART_Open + 114
        0x000012b0:    2103        .!      MOVS     r1,#3
        0x000012b2:    0709        ..      LSLS     r1,r1,#28
        0x000012b4:    4308        .C      ORRS     r0,r0,r1
        0x000012b6:    6260        `b      STR      r0,[r4,#0x24]
        0x000012b8:    b005        ..      ADD      sp,sp,#0x14
        0x000012ba:    bdf0        ..      POP      {r4-r7,pc}
    $d
        0x000012bc:    00001f90    ....    DCD    8080
        0x000012c0:    50000200    ...P    DCD    1342177792
        0x000012c4:    fff0ff0f    ....    DCD    4293984015
        0x000012c8:    0000ffff    ....    DCD    65535
    $t
    i.__0printf
    __0printf
    __1printf
    __2printf
    __c89printf
    printf
        0x000012cc:    b40f        ..      PUSH     {r0-r3}
        0x000012ce:    b510        ..      PUSH     {r4,lr}
        0x000012d0:    a903        ..      ADD      r1,sp,#0xc
        0x000012d2:    4b04        .K      LDR      r3,[pc,#16] ; [0x12e4] = 0x1be5
        0x000012d4:    4a04        .J      LDR      r2,[pc,#16] ; [0x12e8] = 0x20000040
        0x000012d6:    9802        ..      LDR      r0,[sp,#8]
        0x000012d8:    f000f8e8    ....    BL       _printf_core ; 0x14ac
        0x000012dc:    bc10        ..      POP      {r4}
        0x000012de:    bc08        ..      POP      {r3}
        0x000012e0:    b004        ..      ADD      sp,sp,#0x10
        0x000012e2:    4718        .G      BX       r3
    $d
        0x000012e4:    00001be5    ....    DCD    7141
        0x000012e8:    20000040    @..     DCD    536870976
    $t
    i.__ARM_clz
    __ARM_clz
        0x000012ec:    2120         !      MOVS     r1,#0x20
        0x000012ee:    0c02        ..      LSRS     r2,r0,#16
        0x000012f0:    d001        ..      BEQ      0x12f6 ; __ARM_clz + 10
        0x000012f2:    2110        .!      MOVS     r1,#0x10
        0x000012f4:    4610        .F      MOV      r0,r2
        0x000012f6:    0a02        ..      LSRS     r2,r0,#8
        0x000012f8:    d001        ..      BEQ      0x12fe ; __ARM_clz + 18
        0x000012fa:    4610        .F      MOV      r0,r2
        0x000012fc:    3908        .9      SUBS     r1,r1,#8
        0x000012fe:    0902        ..      LSRS     r2,r0,#4
        0x00001300:    d001        ..      BEQ      0x1306 ; __ARM_clz + 26
        0x00001302:    4610        .F      MOV      r0,r2
        0x00001304:    1f09        ..      SUBS     r1,r1,#4
        0x00001306:    0882        ..      LSRS     r2,r0,#2
        0x00001308:    d001        ..      BEQ      0x130e ; __ARM_clz + 34
        0x0000130a:    4610        .F      MOV      r0,r2
        0x0000130c:    1e89        ..      SUBS     r1,r1,#2
        0x0000130e:    0842        B.      LSRS     r2,r0,#1
        0x00001310:    d001        ..      BEQ      0x1316 ; __ARM_clz + 42
        0x00001312:    1e88        ..      SUBS     r0,r1,#2
        0x00001314:    4770        pG      BX       lr
        0x00001316:    1a08        ..      SUBS     r0,r1,r0
        0x00001318:    4770        pG      BX       lr
    i.__scatterload_copy
    __scatterload_copy
        0x0000131a:    e002        ..      B        0x1322 ; __scatterload_copy + 8
        0x0000131c:    c808        ..      LDM      r0!,{r3}
        0x0000131e:    1f12        ..      SUBS     r2,r2,#4
        0x00001320:    c108        ..      STM      r1!,{r3}
        0x00001322:    2a00        .*      CMP      r2,#0
        0x00001324:    d1fa        ..      BNE      0x131c ; __scatterload_copy + 2
        0x00001326:    4770        pG      BX       lr
    i.__scatterload_null
    __scatterload_null
        0x00001328:    4770        pG      BX       lr
    i.__scatterload_zeroinit
    __scatterload_zeroinit
        0x0000132a:    2000        .       MOVS     r0,#0
        0x0000132c:    e001        ..      B        0x1332 ; __scatterload_zeroinit + 8
        0x0000132e:    c101        ..      STM      r1!,{r0}
        0x00001330:    1f12        ..      SUBS     r2,r2,#4
        0x00001332:    2a00        .*      CMP      r2,#0
        0x00001334:    d1fb        ..      BNE      0x132e ; __scatterload_zeroinit + 4
        0x00001336:    4770        pG      BX       lr
    i._fp_digits
    _fp_digits
        0x00001338:    b5f0        ..      PUSH     {r4-r7,lr}
        0x0000133a:    b41f        ..      PUSH     {r0-r4}
        0x0000133c:    b086        ..      SUB      sp,sp,#0x18
        0x0000133e:    9809        ..      LDR      r0,[sp,#0x24]
        0x00001340:    9a08        ..      LDR      r2,[sp,#0x20]
        0x00001342:    0d03        ..      LSRS     r3,r0,#20
        0x00001344:    2100        .!      MOVS     r1,#0
        0x00001346:    4302        .C      ORRS     r2,r2,r0
        0x00001348:    d014        ..      BEQ      0x1374 ; _fp_digits + 60
        0x0000134a:    4851        QH      LDR      r0,[pc,#324] ; [0x1490] = 0xfffffc01
        0x0000134c:    4a51        QJ      LDR      r2,[pc,#324] ; [0x1494] = 0x4d10
        0x0000134e:    1818        ..      ADDS     r0,r3,r0
        0x00001350:    4350        PC      MULS     r0,r2,r0
        0x00001352:    1405        ..      ASRS     r5,r0,#16
        0x00001354:    9811        ..      LDR      r0,[sp,#0x44]
        0x00001356:    2801        .(      CMP      r0,#1
        0x00001358:    9810        ..      LDR      r0,[sp,#0x40]
        0x0000135a:    d01a        ..      BEQ      0x1392 ; _fp_digits + 90
        0x0000135c:    1a28        (.      SUBS     r0,r5,r0
        0x0000135e:    1c40        @.      ADDS     r0,r0,#1
        0x00001360:    2600        .&      MOVS     r6,#0
        0x00001362:    4f4d        MO      LDR      r7,[pc,#308] ; [0x1498] = 0x40140000
        0x00001364:    494d        MI      LDR      r1,[pc,#308] ; [0x149c] = 0x3ff00000
        0x00001366:    9600        ..      STR      r6,[sp,#0]
        0x00001368:    9101        ..      STR      r1,[sp,#4]
        0x0000136a:    9004        ..      STR      r0,[sp,#0x10]
        0x0000136c:    2800        .(      CMP      r0,#0
        0x0000136e:    da12        ..      BGE      0x1396 ; _fp_digits + 94
        0x00001370:    4244        DB      RSBS     r4,r0,#0
        0x00001372:    e011        ..      B        0x1398 ; _fp_digits + 96
        0x00001374:    9811        ..      LDR      r0,[sp,#0x44]
        0x00001376:    2401        .$      MOVS     r4,#1
        0x00001378:    a349        I.      ADR      r3,{pc}+0x128 ; 0x14a0
        0x0000137a:    2801        .(      CMP      r0,#1
        0x0000137c:    d101        ..      BNE      0x1382 ; _fp_digits + 74
        0x0000137e:    9810        ..      LDR      r0,[sp,#0x40]
        0x00001380:    43c1        .C      MVNS     r1,r0
        0x00001382:    9806        ..      LDR      r0,[sp,#0x18]
        0x00001384:    9a11        ..      LDR      r2,[sp,#0x44]
        0x00001386:    6084        .`      STR      r4,[r0,#8]
        0x00001388:    6003        .`      STR      r3,[r0,#0]
        0x0000138a:    60c2        .`      STR      r2,[r0,#0xc]
        0x0000138c:    6041        A`      STR      r1,[r0,#4]
        0x0000138e:    b00b        ..      ADD      sp,sp,#0x2c
        0x00001390:    bdf0        ..      POP      {r4-r7,pc}
        0x00001392:    4240        @B      RSBS     r0,r0,#0
        0x00001394:    e7e4        ..      B        0x1360 ; _fp_digits + 40
        0x00001396:    4604        .F      MOV      r4,r0
        0x00001398:    0521        !.      LSLS     r1,r4,#20
        0x0000139a:    2000        .       MOVS     r0,#0
        0x0000139c:    4a3f        ?J      LDR      r2,[pc,#252] ; [0x149c] = 0x3ff00000
        0x0000139e:    1c00        ..      ADDS     r0,r0,#0
        0x000013a0:    4151        QA      ADCS     r1,r1,r2
        0x000013a2:    9103        ..      STR      r1,[sp,#0xc]
        0x000013a4:    9002        ..      STR      r0,[sp,#8]
        0x000013a6:    e012        ..      B        0x13ce ; _fp_digits + 150
        0x000013a8:    07e0        ..      LSLS     r0,r4,#31
        0x000013aa:    d007        ..      BEQ      0x13bc ; _fp_digits + 132
        0x000013ac:    4632        2F      MOV      r2,r6
        0x000013ae:    463b        ;F      MOV      r3,r7
        0x000013b0:    9901        ..      LDR      r1,[sp,#4]
        0x000013b2:    9800        ..      LDR      r0,[sp,#0]
        0x000013b4:    f7fff8ac    ....    BL       __aeabi_dmul ; 0x510
        0x000013b8:    9101        ..      STR      r1,[sp,#4]
        0x000013ba:    9000        ..      STR      r0,[sp,#0]
        0x000013bc:    4632        2F      MOV      r2,r6
        0x000013be:    463b        ;F      MOV      r3,r7
        0x000013c0:    4610        .F      MOV      r0,r2
        0x000013c2:    4619        .F      MOV      r1,r3
        0x000013c4:    f7fff8a4    ....    BL       __aeabi_dmul ; 0x510
        0x000013c8:    4606        .F      MOV      r6,r0
        0x000013ca:    460f        .F      MOV      r7,r1
        0x000013cc:    1064        d.      ASRS     r4,r4,#1
        0x000013ce:    2c00        .,      CMP      r4,#0
        0x000013d0:    d1ea        ..      BNE      0x13a8 ; _fp_digits + 112
        0x000013d2:    9804        ..      LDR      r0,[sp,#0x10]
        0x000013d4:    9b03        ..      LDR      r3,[sp,#0xc]
        0x000013d6:    2800        .(      CMP      r0,#0
        0x000013d8:    9a02        ..      LDR      r2,[sp,#8]
        0x000013da:    9909        ..      LDR      r1,[sp,#0x24]
        0x000013dc:    9808        ..      LDR      r0,[sp,#0x20]
        0x000013de:    da06        ..      BGE      0x13ee ; _fp_digits + 182
        0x000013e0:    f7fff896    ....    BL       __aeabi_dmul ; 0x510
        0x000013e4:    9b01        ..      LDR      r3,[sp,#4]
        0x000013e6:    9a00        ..      LDR      r2,[sp,#0]
        0x000013e8:    f7fff892    ....    BL       __aeabi_dmul ; 0x510
        0x000013ec:    e005        ..      B        0x13fa ; _fp_digits + 194
        0x000013ee:    f7fff8f7    ....    BL       __aeabi_ddiv ; 0x5e0
        0x000013f2:    9b01        ..      LDR      r3,[sp,#4]
        0x000013f4:    9a00        ..      LDR      r2,[sp,#0]
        0x000013f6:    f7fff8f3    ....    BL       __aeabi_ddiv ; 0x5e0
        0x000013fa:    4604        .F      MOV      r4,r0
        0x000013fc:    460e        .F      MOV      r6,r1
        0x000013fe:    2200        ."      MOVS     r2,#0
        0x00001400:    4b28        (K      LDR      r3,[pc,#160] ; [0x14a4] = 0x43f00000
        0x00001402:    f7fff985    ....    BL       __aeabi_cdrcmple ; 0x710
        0x00001406:    d803        ..      BHI      0x1410 ; _fp_digits + 216
        0x00001408:    2000        .       MOVS     r0,#0
        0x0000140a:    43c0        .C      MVNS     r0,r0
        0x0000140c:    4601        .F      MOV      r1,r0
        0x0000140e:    e007        ..      B        0x1420 ; _fp_digits + 232
        0x00001410:    2200        ."      MOVS     r2,#0
        0x00001412:    4b25        %K      LDR      r3,[pc,#148] ; [0x14a8] = 0x3fe00000
        0x00001414:    4620         F      MOV      r0,r4
        0x00001416:    4631        1F      MOV      r1,r6
        0x00001418:    f7feffc8    ....    BL       __aeabi_dadd ; 0x3ac
        0x0000141c:    f7fff958    ..X.    BL       __aeabi_d2ulz ; 0x6d0
        0x00001420:    2410        .$      MOVS     r4,#0x10
        0x00001422:    e009        ..      B        0x1438 ; _fp_digits + 256
        0x00001424:    2c00        .,      CMP      r4,#0
        0x00001426:    db0a        ..      BLT      0x143e ; _fp_digits + 262
        0x00001428:    220a        ."      MOVS     r2,#0xa
        0x0000142a:    2300        .#      MOVS     r3,#0
        0x0000142c:    f7feff4d    ..M.    BL       __aeabi_uldivmod ; 0x2ca
        0x00001430:    9b07        ..      LDR      r3,[sp,#0x1c]
        0x00001432:    3230        02      ADDS     r2,r2,#0x30
        0x00001434:    551a        .U      STRB     r2,[r3,r4]
        0x00001436:    1e64        d.      SUBS     r4,r4,#1
        0x00001438:    4602        .F      MOV      r2,r0
        0x0000143a:    430a        .C      ORRS     r2,r2,r1
        0x0000143c:    d1f2        ..      BNE      0x1424 ; _fp_digits + 236
        0x0000143e:    2211        ."      MOVS     r2,#0x11
        0x00001440:    1c64        d.      ADDS     r4,r4,#1
        0x00001442:    9b07        ..      LDR      r3,[sp,#0x1c]
        0x00001444:    1b12        ..      SUBS     r2,r2,r4
        0x00001446:    191c        ..      ADDS     r4,r3,r4
        0x00001448:    9b11        ..      LDR      r3,[sp,#0x44]
        0x0000144a:    2b01        .+      CMP      r3,#1
        0x0000144c:    d003        ..      BEQ      0x1456 ; _fp_digits + 286
        0x0000144e:    2301        .#      MOVS     r3,#1
        0x00001450:    4308        .C      ORRS     r0,r0,r1
        0x00001452:    d10e        ..      BNE      0x1472 ; _fp_digits + 314
        0x00001454:    e00a        ..      B        0x146c ; _fp_digits + 308
        0x00001456:    4308        .C      ORRS     r0,r0,r1
        0x00001458:    d004        ..      BEQ      0x1464 ; _fp_digits + 300
        0x0000145a:    2011        .       MOVS     r0,#0x11
        0x0000145c:    9010        ..      STR      r0,[sp,#0x40]
        0x0000145e:    2000        .       MOVS     r0,#0
        0x00001460:    9011        ..      STR      r0,[sp,#0x44]
        0x00001462:    e777        w.      B        0x1354 ; _fp_digits + 28
        0x00001464:    9810        ..      LDR      r0,[sp,#0x40]
        0x00001466:    1a15        ..      SUBS     r5,r2,r0
        0x00001468:    1e6d        m.      SUBS     r5,r5,#1
        0x0000146a:    e00b        ..      B        0x1484 ; _fp_digits + 332
        0x0000146c:    9810        ..      LDR      r0,[sp,#0x40]
        0x0000146e:    4282        .B      CMP      r2,r0
        0x00001470:    dd02        ..      BLE      0x1478 ; _fp_digits + 320
        0x00001472:    2300        .#      MOVS     r3,#0
        0x00001474:    1c6d        m.      ADDS     r5,r5,#1
        0x00001476:    e003        ..      B        0x1480 ; _fp_digits + 328
        0x00001478:    4282        .B      CMP      r2,r0
        0x0000147a:    da01        ..      BGE      0x1480 ; _fp_digits + 328
        0x0000147c:    2300        .#      MOVS     r3,#0
        0x0000147e:    1e6d        m.      SUBS     r5,r5,#1
        0x00001480:    2b00        .+      CMP      r3,#0
        0x00001482:    d0ee        ..      BEQ      0x1462 ; _fp_digits + 298
        0x00001484:    9806        ..      LDR      r0,[sp,#0x18]
        0x00001486:    9911        ..      LDR      r1,[sp,#0x44]
        0x00001488:    6082        .`      STR      r2,[r0,#8]
        0x0000148a:    60c1        .`      STR      r1,[r0,#0xc]
        0x0000148c:    c030        0.      STM      r0!,{r4,r5}
        0x0000148e:    e77e        ~.      B        0x138e ; _fp_digits + 86
    $d
        0x00001490:    fffffc01    ....    DCD    4294966273
        0x00001494:    00004d10    .M..    DCD    19728
        0x00001498:    40140000    ...@    DCD    1075052544
        0x0000149c:    3ff00000    ...?    DCD    1072693248
        0x000014a0:    00000030    0...    DCD    48
        0x000014a4:    43f00000    ...C    DCD    1139802112
        0x000014a8:    3fe00000    ...?    DCD    1071644672
    $t
    i._printf_core
    _printf_core
        0x000014ac:    b5ff        ..      PUSH     {r0-r7,lr}
        0x000014ae:    b097        ..      SUB      sp,sp,#0x5c
        0x000014b0:    4606        .F      MOV      r6,r0
        0x000014b2:    2500        .%      MOVS     r5,#0
        0x000014b4:    e218        ..      B        0x18e8 ; _printf_core + 1084
        0x000014b6:    2825        %(      CMP      r0,#0x25
        0x000014b8:    d177        w.      BNE      0x15aa ; _printf_core + 254
        0x000014ba:    2400        .$      MOVS     r4,#0
        0x000014bc:    4627        'F      MOV      r7,r4
        0x000014be:    49fd        .I      LDR      r1,[pc,#1012] ; [0x18b4] = 0x12809
        0x000014c0:    9404        ..      STR      r4,[sp,#0x10]
        0x000014c2:    e000        ..      B        0x14c6 ; _printf_core + 26
        0x000014c4:    4304        .C      ORRS     r4,r4,r0
        0x000014c6:    1c76        v.      ADDS     r6,r6,#1
        0x000014c8:    7832        2x      LDRB     r2,[r6,#0]
        0x000014ca:    2001        .       MOVS     r0,#1
        0x000014cc:    3a20         :      SUBS     r2,r2,#0x20
        0x000014ce:    4090        .@      LSLS     r0,r0,r2
        0x000014d0:    4208        .B      TST      r0,r1
        0x000014d2:    d1f7        ..      BNE      0x14c4 ; _printf_core + 24
        0x000014d4:    7830        0x      LDRB     r0,[r6,#0]
        0x000014d6:    282a        *(      CMP      r0,#0x2a
        0x000014d8:    d00e        ..      BEQ      0x14f8 ; _printf_core + 76
        0x000014da:    2202        ."      MOVS     r2,#2
        0x000014dc:    7830        0x      LDRB     r0,[r6,#0]
        0x000014de:    4601        .F      MOV      r1,r0
        0x000014e0:    3930        09      SUBS     r1,r1,#0x30
        0x000014e2:    2909        .)      CMP      r1,#9
        0x000014e4:    d816        ..      BHI      0x1514 ; _printf_core + 104
        0x000014e6:    9904        ..      LDR      r1,[sp,#0x10]
        0x000014e8:    230a        .#      MOVS     r3,#0xa
        0x000014ea:    4359        YC      MULS     r1,r3,r1
        0x000014ec:    3930        09      SUBS     r1,r1,#0x30
        0x000014ee:    1840        @.      ADDS     r0,r0,r1
        0x000014f0:    4314        .C      ORRS     r4,r4,r2
        0x000014f2:    1c76        v.      ADDS     r6,r6,#1
        0x000014f4:    9004        ..      STR      r0,[sp,#0x10]
        0x000014f6:    e7f1        ..      B        0x14dc ; _printf_core + 48
        0x000014f8:    9818        ..      LDR      r0,[sp,#0x60]
        0x000014fa:    c802        ..      LDM      r0!,{r1}
        0x000014fc:    9104        ..      STR      r1,[sp,#0x10]
        0x000014fe:    9018        ..      STR      r0,[sp,#0x60]
        0x00001500:    2900        .)      CMP      r1,#0
        0x00001502:    da04        ..      BGE      0x150e ; _printf_core + 98
        0x00001504:    2001        .       MOVS     r0,#1
        0x00001506:    0340        @.      LSLS     r0,r0,#13
        0x00001508:    4304        .C      ORRS     r4,r4,r0
        0x0000150a:    4248        HB      RSBS     r0,r1,#0
        0x0000150c:    9004        ..      STR      r0,[sp,#0x10]
        0x0000150e:    2002        .       MOVS     r0,#2
        0x00001510:    4304        .C      ORRS     r4,r4,r0
        0x00001512:    1c76        v.      ADDS     r6,r6,#1
        0x00001514:    7830        0x      LDRB     r0,[r6,#0]
        0x00001516:    282e        .(      CMP      r0,#0x2e
        0x00001518:    d114        ..      BNE      0x1544 ; _printf_core + 152
        0x0000151a:    2004        .       MOVS     r0,#4
        0x0000151c:    4304        .C      ORRS     r4,r4,r0
        0x0000151e:    7870        px      LDRB     r0,[r6,#1]
        0x00001520:    1c76        v.      ADDS     r6,r6,#1
        0x00001522:    282a        *(      CMP      r0,#0x2a
        0x00001524:    d109        ..      BNE      0x153a ; _printf_core + 142
        0x00001526:    9818        ..      LDR      r0,[sp,#0x60]
        0x00001528:    1c76        v.      ADDS     r6,r6,#1
        0x0000152a:    c880        ..      LDM      r0!,{r7}
        0x0000152c:    9018        ..      STR      r0,[sp,#0x60]
        0x0000152e:    e009        ..      B        0x1544 ; _printf_core + 152
        0x00001530:    210a        .!      MOVS     r1,#0xa
        0x00001532:    434f        OC      MULS     r7,r1,r7
        0x00001534:    3f30        0?      SUBS     r7,r7,#0x30
        0x00001536:    19c7        ..      ADDS     r7,r0,r7
        0x00001538:    1c76        v.      ADDS     r6,r6,#1
        0x0000153a:    7830        0x      LDRB     r0,[r6,#0]
        0x0000153c:    4601        .F      MOV      r1,r0
        0x0000153e:    3930        09      SUBS     r1,r1,#0x30
        0x00001540:    2909        .)      CMP      r1,#9
        0x00001542:    d9f5        ..      BLS      0x1530 ; _printf_core + 132
        0x00001544:    7830        0x      LDRB     r0,[r6,#0]
        0x00001546:    286c        l(      CMP      r0,#0x6c
        0x00001548:    d010        ..      BEQ      0x156c ; _printf_core + 192
        0x0000154a:    dc06        ..      BGT      0x155a ; _printf_core + 174
        0x0000154c:    284c        L(      CMP      r0,#0x4c
        0x0000154e:    d01a        ..      BEQ      0x1586 ; _printf_core + 218
        0x00001550:    2868        h(      CMP      r0,#0x68
        0x00001552:    d00e        ..      BEQ      0x1572 ; _printf_core + 198
        0x00001554:    286a        j(      CMP      r0,#0x6a
        0x00001556:    d117        ..      BNE      0x1588 ; _printf_core + 220
        0x00001558:    e004        ..      B        0x1564 ; _printf_core + 184
        0x0000155a:    2874        t(      CMP      r0,#0x74
        0x0000155c:    d013        ..      BEQ      0x1586 ; _printf_core + 218
        0x0000155e:    287a        z(      CMP      r0,#0x7a
        0x00001560:    d112        ..      BNE      0x1588 ; _printf_core + 220
        0x00001562:    e010        ..      B        0x1586 ; _printf_core + 218
        0x00001564:    2001        .       MOVS     r0,#1
        0x00001566:    0540        @.      LSLS     r0,r0,#21
        0x00001568:    4304        .C      ORRS     r4,r4,r0
        0x0000156a:    e00c        ..      B        0x1586 ; _printf_core + 218
        0x0000156c:    2101        .!      MOVS     r1,#1
        0x0000156e:    0509        ..      LSLS     r1,r1,#20
        0x00001570:    e001        ..      B        0x1576 ; _printf_core + 202
        0x00001572:    2103        .!      MOVS     r1,#3
        0x00001574:    0509        ..      LSLS     r1,r1,#20
        0x00001576:    430c        .C      ORRS     r4,r4,r1
        0x00001578:    7871        qx      LDRB     r1,[r6,#1]
        0x0000157a:    4281        .B      CMP      r1,r0
        0x0000157c:    d103        ..      BNE      0x1586 ; _printf_core + 218
        0x0000157e:    2001        .       MOVS     r0,#1
        0x00001580:    0500        ..      LSLS     r0,r0,#20
        0x00001582:    1824        $.      ADDS     r4,r4,r0
        0x00001584:    1c76        v.      ADDS     r6,r6,#1
        0x00001586:    1c76        v.      ADDS     r6,r6,#1
        0x00001588:    7830        0x      LDRB     r0,[r6,#0]
        0x0000158a:    9011        ..      STR      r0,[sp,#0x44]
        0x0000158c:    2866        f(      CMP      r0,#0x66
        0x0000158e:    d00b        ..      BEQ      0x15a8 ; _printf_core + 252
        0x00001590:    dc13        ..      BGT      0x15ba ; _printf_core + 270
        0x00001592:    2858        X(      CMP      r0,#0x58
        0x00001594:    d07d        }.      BEQ      0x1692 ; _printf_core + 486
        0x00001596:    dc09        ..      BGT      0x15ac ; _printf_core + 256
        0x00001598:    2800        .(      CMP      r0,#0
        0x0000159a:    d07b        {.      BEQ      0x1694 ; _printf_core + 488
        0x0000159c:    2845        E(      CMP      r0,#0x45
        0x0000159e:    d0f6        ..      BEQ      0x158e ; _printf_core + 226
        0x000015a0:    2846        F(      CMP      r0,#0x46
        0x000015a2:    d0f4        ..      BEQ      0x158e ; _printf_core + 226
        0x000015a4:    2847        G(      CMP      r0,#0x47
        0x000015a6:    d11a        ..      BNE      0x15de ; _printf_core + 306
        0x000015a8:    e1a5        ..      B        0x18f6 ; _printf_core + 1098
        0x000015aa:    e018        ..      B        0x15de ; _printf_core + 306
        0x000015ac:    2863        c(      CMP      r0,#0x63
        0x000015ae:    d035        5.      BEQ      0x161c ; _printf_core + 368
        0x000015b0:    2864        d(      CMP      r0,#0x64
        0x000015b2:    d070        p.      BEQ      0x1696 ; _printf_core + 490
        0x000015b4:    2865        e(      CMP      r0,#0x65
        0x000015b6:    d112        ..      BNE      0x15de ; _printf_core + 306
        0x000015b8:    e19d        ..      B        0x18f6 ; _printf_core + 1098
        0x000015ba:    2870        p(      CMP      r0,#0x70
        0x000015bc:    d06c        l.      BEQ      0x1698 ; _printf_core + 492
        0x000015be:    dc08        ..      BGT      0x15d2 ; _printf_core + 294
        0x000015c0:    2867        g(      CMP      r0,#0x67
        0x000015c2:    d0f1        ..      BEQ      0x15a8 ; _printf_core + 252
        0x000015c4:    2869        i(      CMP      r0,#0x69
        0x000015c6:    d07b        {.      BEQ      0x16c0 ; _printf_core + 532
        0x000015c8:    286e        n(      CMP      r0,#0x6e
        0x000015ca:    d00d        ..      BEQ      0x15e8 ; _printf_core + 316
        0x000015cc:    286f        o(      CMP      r0,#0x6f
        0x000015ce:    d106        ..      BNE      0x15de ; _printf_core + 306
        0x000015d0:    e0ba        ..      B        0x1748 ; _printf_core + 668
        0x000015d2:    2873        s(      CMP      r0,#0x73
        0x000015d4:    d02e        ..      BEQ      0x1634 ; _printf_core + 392
        0x000015d6:    2875        u(      CMP      r0,#0x75
        0x000015d8:    d071        q.      BEQ      0x16be ; _printf_core + 530
        0x000015da:    2878        x(      CMP      r0,#0x78
        0x000015dc:    d059        Y.      BEQ      0x1692 ; _printf_core + 486
        0x000015de:    9a1a        ..      LDR      r2,[sp,#0x68]
        0x000015e0:    9919        ..      LDR      r1,[sp,#0x64]
        0x000015e2:    4790        .G      BLX      r2
        0x000015e4:    1c6d        m.      ADDS     r5,r5,#1
        0x000015e6:    e17e        ~.      B        0x18e6 ; _printf_core + 1082
        0x000015e8:    0260        `.      LSLS     r0,r4,#9
        0x000015ea:    0f40        @.      LSRS     r0,r0,#29
        0x000015ec:    2802        .(      CMP      r0,#2
        0x000015ee:    d009        ..      BEQ      0x1604 ; _printf_core + 344
        0x000015f0:    2803        .(      CMP      r0,#3
        0x000015f2:    d00d        ..      BEQ      0x1610 ; _printf_core + 356
        0x000015f4:    2804        .(      CMP      r0,#4
        0x000015f6:    9818        ..      LDR      r0,[sp,#0x60]
        0x000015f8:    6801        .h      LDR      r1,[r0,#0]
        0x000015fa:    d00d        ..      BEQ      0x1618 ; _printf_core + 364
        0x000015fc:    600d        .`      STR      r5,[r1,#0]
        0x000015fe:    1d00        ..      ADDS     r0,r0,#4
        0x00001600:    9018        ..      STR      r0,[sp,#0x60]
        0x00001602:    e170        p.      B        0x18e6 ; _printf_core + 1082
        0x00001604:    9818        ..      LDR      r0,[sp,#0x60]
        0x00001606:    17ea        ..      ASRS     r2,r5,#31
        0x00001608:    6801        .h      LDR      r1,[r0,#0]
        0x0000160a:    600d        .`      STR      r5,[r1,#0]
        0x0000160c:    604a        J`      STR      r2,[r1,#4]
        0x0000160e:    e7f6        ..      B        0x15fe ; _printf_core + 338
        0x00001610:    9818        ..      LDR      r0,[sp,#0x60]
        0x00001612:    6801        .h      LDR      r1,[r0,#0]
        0x00001614:    800d        ..      STRH     r5,[r1,#0]
        0x00001616:    e7f2        ..      B        0x15fe ; _printf_core + 338
        0x00001618:    700d        .p      STRB     r5,[r1,#0]
        0x0000161a:    e7f0        ..      B        0x15fe ; _printf_core + 338
        0x0000161c:    9818        ..      LDR      r0,[sp,#0x60]
        0x0000161e:    466a        jF      MOV      r2,sp
        0x00001620:    7801        .x      LDRB     r1,[r0,#0]
        0x00001622:    7211        .r      STRB     r1,[r2,#8]
        0x00001624:    1d00        ..      ADDS     r0,r0,#4
        0x00001626:    9018        ..      STR      r0,[sp,#0x60]
        0x00001628:    2000        .       MOVS     r0,#0
        0x0000162a:    7250        Pr      STRB     r0,[r2,#9]
        0x0000162c:    a802        ..      ADD      r0,sp,#8
        0x0000162e:    9000        ..      STR      r0,[sp,#0]
        0x00001630:    2001        .       MOVS     r0,#1
        0x00001632:    e005        ..      B        0x1640 ; _printf_core + 404
        0x00001634:    9818        ..      LDR      r0,[sp,#0x60]
        0x00001636:    c802        ..      LDM      r0!,{r1}
        0x00001638:    9018        ..      STR      r0,[sp,#0x60]
        0x0000163a:    2000        .       MOVS     r0,#0
        0x0000163c:    9100        ..      STR      r1,[sp,#0]
        0x0000163e:    43c0        .C      MVNS     r0,r0
        0x00001640:    0761        a.      LSLS     r1,r4,#29
        0x00001642:    d50d        ..      BPL      0x1660 ; _printf_core + 436
        0x00001644:    2100        .!      MOVS     r1,#0
        0x00001646:    e001        ..      B        0x164c ; _printf_core + 416
        0x00001648:    9901        ..      LDR      r1,[sp,#4]
        0x0000164a:    1c49        I.      ADDS     r1,r1,#1
        0x0000164c:    9101        ..      STR      r1,[sp,#4]
        0x0000164e:    42b9        .B      CMP      r1,r7
        0x00001650:    da12        ..      BGE      0x1678 ; _printf_core + 460
        0x00001652:    4281        .B      CMP      r1,r0
        0x00001654:    dbf8        ..      BLT      0x1648 ; _printf_core + 412
        0x00001656:    9a00        ..      LDR      r2,[sp,#0]
        0x00001658:    5c51        Q\      LDRB     r1,[r2,r1]
        0x0000165a:    2900        .)      CMP      r1,#0
        0x0000165c:    d1f4        ..      BNE      0x1648 ; _printf_core + 412
        0x0000165e:    e00b        ..      B        0x1678 ; _printf_core + 460
        0x00001660:    2100        .!      MOVS     r1,#0
        0x00001662:    e001        ..      B        0x1668 ; _printf_core + 444
        0x00001664:    9901        ..      LDR      r1,[sp,#4]
        0x00001666:    1c49        I.      ADDS     r1,r1,#1
        0x00001668:    9101        ..      STR      r1,[sp,#4]
        0x0000166a:    4281        .B      CMP      r1,r0
        0x0000166c:    dbfa        ..      BLT      0x1664 ; _printf_core + 440
        0x0000166e:    9a01        ..      LDR      r2,[sp,#4]
        0x00001670:    9900        ..      LDR      r1,[sp,#0]
        0x00001672:    5c89        .\      LDRB     r1,[r1,r2]
        0x00001674:    2900        .)      CMP      r1,#0
        0x00001676:    d1f5        ..      BNE      0x1664 ; _printf_core + 440
        0x00001678:    9901        ..      LDR      r1,[sp,#4]
        0x0000167a:    9804        ..      LDR      r0,[sp,#0x10]
        0x0000167c:    9b1a        ..      LDR      r3,[sp,#0x68]
        0x0000167e:    1a47        G.      SUBS     r7,r0,r1
        0x00001680:    4621        !F      MOV      r1,r4
        0x00001682:    4638        8F      MOV      r0,r7
        0x00001684:    9a19        ..      LDR      r2,[sp,#0x64]
        0x00001686:    f000fa97    ....    BL       _printf_pre_padding ; 0x1bb8
        0x0000168a:    9901        ..      LDR      r1,[sp,#4]
        0x0000168c:    1940        @.      ADDS     r0,r0,r5
        0x0000168e:    1845        E.      ADDS     r5,r0,r1
        0x00001690:    e00b        ..      B        0x16aa ; _printf_core + 510
        0x00001692:    e04f        O.      B        0x1734 ; _printf_core + 648
        0x00001694:    e12c        ,.      B        0x18f0 ; _printf_core + 1092
        0x00001696:    e013        ..      B        0x16c0 ; _printf_core + 532
        0x00001698:    e04e        N.      B        0x1738 ; _printf_core + 652
        0x0000169a:    9800        ..      LDR      r0,[sp,#0]
        0x0000169c:    9900        ..      LDR      r1,[sp,#0]
        0x0000169e:    7800        .x      LDRB     r0,[r0,#0]
        0x000016a0:    1c49        I.      ADDS     r1,r1,#1
        0x000016a2:    9100        ..      STR      r1,[sp,#0]
        0x000016a4:    9a1a        ..      LDR      r2,[sp,#0x68]
        0x000016a6:    9919        ..      LDR      r1,[sp,#0x64]
        0x000016a8:    4790        .G      BLX      r2
        0x000016aa:    9801        ..      LDR      r0,[sp,#4]
        0x000016ac:    1e40        @.      SUBS     r0,r0,#1
        0x000016ae:    9001        ..      STR      r0,[sp,#4]
        0x000016b0:    1c40        @.      ADDS     r0,r0,#1
        0x000016b2:    d1f2        ..      BNE      0x169a ; _printf_core + 494
        0x000016b4:    4621        !F      MOV      r1,r4
        0x000016b6:    4638        8F      MOV      r0,r7
        0x000016b8:    9b1a        ..      LDR      r3,[sp,#0x68]
        0x000016ba:    9a19        ..      LDR      r2,[sp,#0x64]
        0x000016bc:    e110        ..      B        0x18e0 ; _printf_core + 1076
        0x000016be:    e037        7.      B        0x1730 ; _printf_core + 644
        0x000016c0:    200a        .       MOVS     r0,#0xa
        0x000016c2:    2100        .!      MOVS     r1,#0
        0x000016c4:    9000        ..      STR      r0,[sp,#0]
        0x000016c6:    9101        ..      STR      r1,[sp,#4]
        0x000016c8:    0260        `.      LSLS     r0,r4,#9
        0x000016ca:    0f41        A.      LSRS     r1,r0,#29
        0x000016cc:    2902        .)      CMP      r1,#2
        0x000016ce:    d007        ..      BEQ      0x16e0 ; _printf_core + 564
        0x000016d0:    9a18        ..      LDR      r2,[sp,#0x60]
        0x000016d2:    ca01        ..      LDM      r2!,{r0}
        0x000016d4:    9218        ..      STR      r2,[sp,#0x60]
        0x000016d6:    17c2        ..      ASRS     r2,r0,#31
        0x000016d8:    4694        .F      MOV      r12,r2
        0x000016da:    2903        .)      CMP      r1,#3
        0x000016dc:    d008        ..      BEQ      0x16f0 ; _printf_core + 580
        0x000016de:    e00a        ..      B        0x16f6 ; _printf_core + 586
        0x000016e0:    9818        ..      LDR      r0,[sp,#0x60]
        0x000016e2:    1dc0        ..      ADDS     r0,r0,#7
        0x000016e4:    08c1        ..      LSRS     r1,r0,#3
        0x000016e6:    00c9        ..      LSLS     r1,r1,#3
        0x000016e8:    c905        ..      LDM      r1!,{r0,r2}
        0x000016ea:    9118        ..      STR      r1,[sp,#0x60]
        0x000016ec:    4694        .F      MOV      r12,r2
        0x000016ee:    e007        ..      B        0x1700 ; _printf_core + 596
        0x000016f0:    b200        ..      SXTH     r0,r0
        0x000016f2:    17c2        ..      ASRS     r2,r0,#31
        0x000016f4:    4694        .F      MOV      r12,r2
        0x000016f6:    2904        .)      CMP      r1,#4
        0x000016f8:    d102        ..      BNE      0x1700 ; _printf_core + 596
        0x000016fa:    b240        @.      SXTB     r0,r0
        0x000016fc:    17c1        ..      ASRS     r1,r0,#31
        0x000016fe:    468c        .F      MOV      r12,r1
        0x00001700:    2200        ."      MOVS     r2,#0
        0x00001702:    4661        aF      MOV      r1,r12
        0x00001704:    4594        .E      CMP      r12,r2
        0x00001706:    da06        ..      BGE      0x1716 ; _printf_core + 618
        0x00001708:    460a        .F      MOV      r2,r1
        0x0000170a:    2100        .!      MOVS     r1,#0
        0x0000170c:    4240        @B      RSBS     r0,r0,#0
        0x0000170e:    4191        .A      SBCS     r1,r1,r2
        0x00001710:    468c        .F      MOV      r12,r1
        0x00001712:    212d        -!      MOVS     r1,#0x2d
        0x00001714:    e002        ..      B        0x171c ; _printf_core + 624
        0x00001716:    0521        !.      LSLS     r1,r4,#20
        0x00001718:    d504        ..      BPL      0x1724 ; _printf_core + 632
        0x0000171a:    212b        +!      MOVS     r1,#0x2b
        0x0000171c:    466a        jF      MOV      r2,sp
        0x0000171e:    7311        .s      STRB     r1,[r2,#0xc]
        0x00001720:    2101        .!      MOVS     r1,#1
        0x00001722:    e003        ..      B        0x172c ; _printf_core + 640
        0x00001724:    07e1        ..      LSLS     r1,r4,#31
        0x00001726:    d001        ..      BEQ      0x172c ; _printf_core + 640
        0x00001728:    2120         !      MOVS     r1,#0x20
        0x0000172a:    e7f7        ..      B        0x171c ; _printf_core + 624
        0x0000172c:    9102        ..      STR      r1,[sp,#8]
        0x0000172e:    e055        U.      B        0x17dc ; _printf_core + 816
        0x00001730:    200a        .       MOVS     r0,#0xa
        0x00001732:    e00a        ..      B        0x174a ; _printf_core + 670
        0x00001734:    2010        .       MOVS     r0,#0x10
        0x00001736:    e008        ..      B        0x174a ; _printf_core + 670
        0x00001738:    2010        .       MOVS     r0,#0x10
        0x0000173a:    9000        ..      STR      r0,[sp,#0]
        0x0000173c:    2100        .!      MOVS     r1,#0
        0x0000173e:    2004        .       MOVS     r0,#4
        0x00001740:    4304        .C      ORRS     r4,r4,r0
        0x00001742:    9101        ..      STR      r1,[sp,#4]
        0x00001744:    2708        .'      MOVS     r7,#8
        0x00001746:    e003        ..      B        0x1750 ; _printf_core + 676
        0x00001748:    2008        .       MOVS     r0,#8
        0x0000174a:    2100        .!      MOVS     r1,#0
        0x0000174c:    9101        ..      STR      r1,[sp,#4]
        0x0000174e:    9000        ..      STR      r0,[sp,#0]
        0x00001750:    0260        `.      LSLS     r0,r4,#9
        0x00001752:    0f41        A.      LSRS     r1,r0,#29
        0x00001754:    2902        .)      CMP      r1,#2
        0x00001756:    d007        ..      BEQ      0x1768 ; _printf_core + 700
        0x00001758:    9a18        ..      LDR      r2,[sp,#0x60]
        0x0000175a:    ca01        ..      LDM      r2!,{r0}
        0x0000175c:    9218        ..      STR      r2,[sp,#0x60]
        0x0000175e:    2200        ."      MOVS     r2,#0
        0x00001760:    4694        .F      MOV      r12,r2
        0x00001762:    2903        .)      CMP      r1,#3
        0x00001764:    d008        ..      BEQ      0x1778 ; _printf_core + 716
        0x00001766:    e008        ..      B        0x177a ; _printf_core + 718
        0x00001768:    9818        ..      LDR      r0,[sp,#0x60]
        0x0000176a:    1dc0        ..      ADDS     r0,r0,#7
        0x0000176c:    08c1        ..      LSRS     r1,r0,#3
        0x0000176e:    00c9        ..      LSLS     r1,r1,#3
        0x00001770:    c905        ..      LDM      r1!,{r0,r2}
        0x00001772:    9118        ..      STR      r1,[sp,#0x60]
        0x00001774:    4694        .F      MOV      r12,r2
        0x00001776:    e003        ..      B        0x1780 ; _printf_core + 724
        0x00001778:    b280        ..      UXTH     r0,r0
        0x0000177a:    2904        .)      CMP      r1,#4
        0x0000177c:    d100        ..      BNE      0x1780 ; _printf_core + 724
        0x0000177e:    b2c0        ..      UXTB     r0,r0
        0x00001780:    2100        .!      MOVS     r1,#0
        0x00001782:    9102        ..      STR      r1,[sp,#8]
        0x00001784:    0721        !.      LSLS     r1,r4,#28
        0x00001786:    d529        ).      BPL      0x17dc ; _printf_core + 816
        0x00001788:    9911        ..      LDR      r1,[sp,#0x44]
        0x0000178a:    2970        p)      CMP      r1,#0x70
        0x0000178c:    d006        ..      BEQ      0x179c ; _printf_core + 752
        0x0000178e:    9a00        ..      LDR      r2,[sp,#0]
        0x00001790:    2110        .!      MOVS     r1,#0x10
        0x00001792:    9b01        ..      LDR      r3,[sp,#4]
        0x00001794:    404a        J@      EORS     r2,r2,r1
        0x00001796:    431a        .C      ORRS     r2,r2,r3
        0x00001798:    d005        ..      BEQ      0x17a6 ; _printf_core + 762
        0x0000179a:    e00e        ..      B        0x17ba ; _printf_core + 782
        0x0000179c:    2140        @!      MOVS     r1,#0x40
        0x0000179e:    466a        jF      MOV      r2,sp
        0x000017a0:    7311        .s      STRB     r1,[r2,#0xc]
        0x000017a2:    2101        .!      MOVS     r1,#1
        0x000017a4:    e008        ..      B        0x17b8 ; _printf_core + 780
        0x000017a6:    4661        aF      MOV      r1,r12
        0x000017a8:    4301        .C      ORRS     r1,r1,r0
        0x000017aa:    d006        ..      BEQ      0x17ba ; _printf_core + 782
        0x000017ac:    2130        0!      MOVS     r1,#0x30
        0x000017ae:    466a        jF      MOV      r2,sp
        0x000017b0:    7311        .s      STRB     r1,[r2,#0xc]
        0x000017b2:    9911        ..      LDR      r1,[sp,#0x44]
        0x000017b4:    7351        Qs      STRB     r1,[r2,#0xd]
        0x000017b6:    2102        .!      MOVS     r1,#2
        0x000017b8:    9102        ..      STR      r1,[sp,#8]
        0x000017ba:    9a00        ..      LDR      r2,[sp,#0]
        0x000017bc:    2108        .!      MOVS     r1,#8
        0x000017be:    9b01        ..      LDR      r3,[sp,#4]
        0x000017c0:    404a        J@      EORS     r2,r2,r1
        0x000017c2:    431a        .C      ORRS     r2,r2,r3
        0x000017c4:    d10a        ..      BNE      0x17dc ; _printf_core + 816
        0x000017c6:    4661        aF      MOV      r1,r12
        0x000017c8:    4301        .C      ORRS     r1,r1,r0
        0x000017ca:    d101        ..      BNE      0x17d0 ; _printf_core + 804
        0x000017cc:    0761        a.      LSLS     r1,r4,#29
        0x000017ce:    d505        ..      BPL      0x17dc ; _printf_core + 816
        0x000017d0:    2130        0!      MOVS     r1,#0x30
        0x000017d2:    466a        jF      MOV      r2,sp
        0x000017d4:    7311        .s      STRB     r1,[r2,#0xc]
        0x000017d6:    2101        .!      MOVS     r1,#1
        0x000017d8:    1e7f        ..      SUBS     r7,r7,#1
        0x000017da:    9102        ..      STR      r1,[sp,#8]
        0x000017dc:    9911        ..      LDR      r1,[sp,#0x44]
        0x000017de:    2958        X)      CMP      r1,#0x58
        0x000017e0:    d004        ..      BEQ      0x17ec ; _printf_core + 832
        0x000017e2:    a135        5.      ADR      r1,{pc}+0xd6 ; 0x18b8
        0x000017e4:    910e        ..      STR      r1,[sp,#0x38]
        0x000017e6:    a90d        ..      ADD      r1,sp,#0x34
        0x000017e8:    910d        ..      STR      r1,[sp,#0x34]
        0x000017ea:    e00d        ..      B        0x1808 ; _printf_core + 860
        0x000017ec:    a137        7.      ADR      r1,{pc}+0xe0 ; 0x18cc
        0x000017ee:    e7f9        ..      B        0x17e4 ; _printf_core + 824
        0x000017f0:    4661        aF      MOV      r1,r12
        0x000017f2:    9b01        ..      LDR      r3,[sp,#4]
        0x000017f4:    9a00        ..      LDR      r2,[sp,#0]
        0x000017f6:    f7fefd68    ..h.    BL       __aeabi_uldivmod ; 0x2ca
        0x000017fa:    9b0e        ..      LDR      r3,[sp,#0x38]
        0x000017fc:    468c        .F      MOV      r12,r1
        0x000017fe:    5c9b        .\      LDRB     r3,[r3,r2]
        0x00001800:    9a0d        ..      LDR      r2,[sp,#0x34]
        0x00001802:    1e52        R.      SUBS     r2,r2,#1
        0x00001804:    920d        ..      STR      r2,[sp,#0x34]
        0x00001806:    7013        .p      STRB     r3,[r2,#0]
        0x00001808:    4661        aF      MOV      r1,r12
        0x0000180a:    4301        .C      ORRS     r1,r1,r0
        0x0000180c:    d1f0        ..      BNE      0x17f0 ; _printf_core + 836
        0x0000180e:    980d        ..      LDR      r0,[sp,#0x34]
        0x00001810:    a905        ..      ADD      r1,sp,#0x14
        0x00001812:    1a08        ..      SUBS     r0,r1,r0
        0x00001814:    3020         0      ADDS     r0,r0,#0x20
        0x00001816:    9001        ..      STR      r0,[sp,#4]
        0x00001818:    0760        `.      LSLS     r0,r4,#29
        0x0000181a:    d503        ..      BPL      0x1824 ; _printf_core + 888
        0x0000181c:    2001        .       MOVS     r0,#1
        0x0000181e:    0400        ..      LSLS     r0,r0,#16
        0x00001820:    4384        .C      BICS     r4,r4,r0
        0x00001822:    e000        ..      B        0x1826 ; _printf_core + 890
        0x00001824:    2701        .'      MOVS     r7,#1
        0x00001826:    9801        ..      LDR      r0,[sp,#4]
        0x00001828:    4287        .B      CMP      r7,r0
        0x0000182a:    dd01        ..      BLE      0x1830 ; _printf_core + 900
        0x0000182c:    1a38        8.      SUBS     r0,r7,r0
        0x0000182e:    e000        ..      B        0x1832 ; _printf_core + 902
        0x00001830:    2000        .       MOVS     r0,#0
        0x00001832:    9901        ..      LDR      r1,[sp,#4]
        0x00001834:    9000        ..      STR      r0,[sp,#0]
        0x00001836:    1841        A.      ADDS     r1,r0,r1
        0x00001838:    9802        ..      LDR      r0,[sp,#8]
        0x0000183a:    1809        ..      ADDS     r1,r1,r0
        0x0000183c:    9804        ..      LDR      r0,[sp,#0x10]
        0x0000183e:    1a40        @.      SUBS     r0,r0,r1
        0x00001840:    9004        ..      STR      r0,[sp,#0x10]
        0x00001842:    03e0        ..      LSLS     r0,r4,#15
        0x00001844:    d406        ..      BMI      0x1854 ; _printf_core + 936
        0x00001846:    4621        !F      MOV      r1,r4
        0x00001848:    9b1a        ..      LDR      r3,[sp,#0x68]
        0x0000184a:    9a19        ..      LDR      r2,[sp,#0x64]
        0x0000184c:    9804        ..      LDR      r0,[sp,#0x10]
        0x0000184e:    f000f9b3    ....    BL       _printf_pre_padding ; 0x1bb8
        0x00001852:    1945        E.      ADDS     r5,r0,r5
        0x00001854:    2700        .'      MOVS     r7,#0
        0x00001856:    e006        ..      B        0x1866 ; _printf_core + 954
        0x00001858:    a803        ..      ADD      r0,sp,#0xc
        0x0000185a:    9a1a        ..      LDR      r2,[sp,#0x68]
        0x0000185c:    5dc0        .]      LDRB     r0,[r0,r7]
        0x0000185e:    9919        ..      LDR      r1,[sp,#0x64]
        0x00001860:    4790        .G      BLX      r2
        0x00001862:    1c6d        m.      ADDS     r5,r5,#1
        0x00001864:    1c7f        ..      ADDS     r7,r7,#1
        0x00001866:    9802        ..      LDR      r0,[sp,#8]
        0x00001868:    4287        .B      CMP      r7,r0
        0x0000186a:    dbf5        ..      BLT      0x1858 ; _printf_core + 940
        0x0000186c:    03e0        ..      LSLS     r0,r4,#15
        0x0000186e:    d50c        ..      BPL      0x188a ; _printf_core + 990
        0x00001870:    4621        !F      MOV      r1,r4
        0x00001872:    9b1a        ..      LDR      r3,[sp,#0x68]
        0x00001874:    9a19        ..      LDR      r2,[sp,#0x64]
        0x00001876:    9804        ..      LDR      r0,[sp,#0x10]
        0x00001878:    f000f99e    ....    BL       _printf_pre_padding ; 0x1bb8
        0x0000187c:    1945        E.      ADDS     r5,r0,r5
        0x0000187e:    e004        ..      B        0x188a ; _printf_core + 990
        0x00001880:    9a1a        ..      LDR      r2,[sp,#0x68]
        0x00001882:    2030        0       MOVS     r0,#0x30
        0x00001884:    9919        ..      LDR      r1,[sp,#0x64]
        0x00001886:    4790        .G      BLX      r2
        0x00001888:    1c6d        m.      ADDS     r5,r5,#1
        0x0000188a:    9900        ..      LDR      r1,[sp,#0]
        0x0000188c:    1e48        H.      SUBS     r0,r1,#1
        0x0000188e:    9000        ..      STR      r0,[sp,#0]
        0x00001890:    2900        .)      CMP      r1,#0
        0x00001892:    dcf5        ..      BGT      0x1880 ; _printf_core + 980
        0x00001894:    e008        ..      B        0x18a8 ; _printf_core + 1020
        0x00001896:    980d        ..      LDR      r0,[sp,#0x34]
        0x00001898:    990d        ..      LDR      r1,[sp,#0x34]
        0x0000189a:    7800        .x      LDRB     r0,[r0,#0]
        0x0000189c:    1c49        I.      ADDS     r1,r1,#1
        0x0000189e:    910d        ..      STR      r1,[sp,#0x34]
        0x000018a0:    9a1a        ..      LDR      r2,[sp,#0x68]
        0x000018a2:    9919        ..      LDR      r1,[sp,#0x64]
        0x000018a4:    4790        .G      BLX      r2
        0x000018a6:    1c6d        m.      ADDS     r5,r5,#1
        0x000018a8:    9901        ..      LDR      r1,[sp,#4]
        0x000018aa:    1e48        H.      SUBS     r0,r1,#1
        0x000018ac:    9001        ..      STR      r0,[sp,#4]
        0x000018ae:    2900        .)      CMP      r1,#0
        0x000018b0:    dcf1        ..      BGT      0x1896 ; _printf_core + 1002
        0x000018b2:    e163        c.      B        0x1b7c ; _printf_core + 1744
    $d
        0x000018b4:    00012809    .(..    DCD    75785
        0x000018b8:    33323130    0123    DCD    858927408
        0x000018bc:    37363534    4567    DCD    926299444
        0x000018c0:    62613938    89ab    DCD    1650538808
        0x000018c4:    66656463    cdef    DCD    1717920867
        0x000018c8:    00000000    ....    DCD    0
        0x000018cc:    33323130    0123    DCD    858927408
        0x000018d0:    37363534    4567    DCD    926299444
        0x000018d4:    42413938    89AB    DCD    1111570744
        0x000018d8:    46454443    CDEF    DCD    1178944579
        0x000018dc:    00000000    ....    DCD    0
    $t
        0x000018e0:    f000f95a    ..Z.    BL       _printf_post_padding ; 0x1b98
        0x000018e4:    1945        E.      ADDS     r5,r0,r5
        0x000018e6:    1c76        v.      ADDS     r6,r6,#1
        0x000018e8:    7830        0x      LDRB     r0,[r6,#0]
        0x000018ea:    2800        .(      CMP      r0,#0
        0x000018ec:    d000        ..      BEQ      0x18f0 ; _printf_core + 1092
        0x000018ee:    e5e2        ..      B        0x14b6 ; _printf_core + 10
        0x000018f0:    4628        (F      MOV      r0,r5
        0x000018f2:    b01b        ..      ADD      sp,sp,#0x6c
        0x000018f4:    bdf0        ..      POP      {r4-r7,pc}
        0x000018f6:    0760        `.      LSLS     r0,r4,#29
        0x000018f8:    d400        ..      BMI      0x18fc ; _printf_core + 1104
        0x000018fa:    2706        .'      MOVS     r7,#6
        0x000018fc:    9818        ..      LDR      r0,[sp,#0x60]
        0x000018fe:    1dc0        ..      ADDS     r0,r0,#7
        0x00001900:    08c1        ..      LSRS     r1,r0,#3
        0x00001902:    00c9        ..      LSLS     r1,r1,#3
        0x00001904:    6848        Hh      LDR      r0,[r1,#4]
        0x00001906:    680a        .h      LDR      r2,[r1,#0]
        0x00001908:    3108        .1      ADDS     r1,r1,#8
        0x0000190a:    0fc3        ..      LSRS     r3,r0,#31
        0x0000190c:    07db        ..      LSLS     r3,r3,#31
        0x0000190e:    9118        ..      STR      r1,[sp,#0x60]
        0x00001910:    0019        ..      MOVS     r1,r3
        0x00001912:    d001        ..      BEQ      0x1918 ; _printf_core + 1132
        0x00001914:    a19c        ..      ADR      r1,{pc}+0x274 ; 0x1b88
        0x00001916:    e008        ..      B        0x192a ; _printf_core + 1150
        0x00001918:    0521        !.      LSLS     r1,r4,#20
        0x0000191a:    d501        ..      BPL      0x1920 ; _printf_core + 1140
        0x0000191c:    a19b        ..      ADR      r1,{pc}+0x270 ; 0x1b8c
        0x0000191e:    e004        ..      B        0x192a ; _printf_core + 1150
        0x00001920:    07e1        ..      LSLS     r1,r4,#31
        0x00001922:    d001        ..      BEQ      0x1928 ; _printf_core + 1148
        0x00001924:    a19a        ..      ADR      r1,{pc}+0x26c ; 0x1b90
        0x00001926:    e000        ..      B        0x192a ; _printf_core + 1150
        0x00001928:    a19a        ..      ADR      r1,{pc}+0x26c ; 0x1b94
        0x0000192a:    0043        C.      LSLS     r3,r0,#1
        0x0000192c:    9811        ..      LDR      r0,[sp,#0x44]
        0x0000192e:    085b        [.      LSRS     r3,r3,#1
        0x00001930:    9110        ..      STR      r1,[sp,#0x40]
        0x00001932:    2865        e(      CMP      r0,#0x65
        0x00001934:    d00c        ..      BEQ      0x1950 ; _printf_core + 1188
        0x00001936:    dc06        ..      BGT      0x1946 ; _printf_core + 1178
        0x00001938:    2845        E(      CMP      r0,#0x45
        0x0000193a:    d009        ..      BEQ      0x1950 ; _printf_core + 1188
        0x0000193c:    2846        F(      CMP      r0,#0x46
        0x0000193e:    d01d        ..      BEQ      0x197c ; _printf_core + 1232
        0x00001940:    2847        G(      CMP      r0,#0x47
        0x00001942:    d141        A.      BNE      0x19c8 ; _printf_core + 1308
        0x00001944:    e041        A.      B        0x19ca ; _printf_core + 1310
        0x00001946:    2866        f(      CMP      r0,#0x66
        0x00001948:    d018        ..      BEQ      0x197c ; _printf_core + 1232
        0x0000194a:    2867        g(      CMP      r0,#0x67
        0x0000194c:    d13c        <.      BNE      0x19c8 ; _printf_core + 1308
        0x0000194e:    e03c        <.      B        0x19ca ; _printf_core + 1310
        0x00001950:    2100        .!      MOVS     r1,#0
        0x00001952:    2f11        ./      CMP      r7,#0x11
        0x00001954:    db01        ..      BLT      0x195a ; _printf_core + 1198
        0x00001956:    2011        .       MOVS     r0,#0x11
        0x00001958:    e000        ..      B        0x195c ; _printf_core + 1200
        0x0000195a:    1c78        x.      ADDS     r0,r7,#1
        0x0000195c:    9101        ..      STR      r1,[sp,#4]
        0x0000195e:    9000        ..      STR      r0,[sp,#0]
        0x00001960:    a908        ..      ADD      r1,sp,#0x20
        0x00001962:    a811        ..      ADD      r0,sp,#0x44
        0x00001964:    f7fffce8    ....    BL       _fp_digits ; 0x1338
        0x00001968:    9913        ..      LDR      r1,[sp,#0x4c]
        0x0000196a:    9105        ..      STR      r1,[sp,#0x14]
        0x0000196c:    2100        .!      MOVS     r1,#0
        0x0000196e:    9a11        ..      LDR      r2,[sp,#0x44]
        0x00001970:    9215        ..      STR      r2,[sp,#0x54]
        0x00001972:    1c7f        ..      ADDS     r7,r7,#1
        0x00001974:    9812        ..      LDR      r0,[sp,#0x48]
        0x00001976:    9701        ..      STR      r7,[sp,#4]
        0x00001978:    9100        ..      STR      r1,[sp,#0]
        0x0000197a:    e050        P.      B        0x1a1e ; _printf_core + 1394
        0x0000197c:    2001        .       MOVS     r0,#1
        0x0000197e:    07c0        ..      LSLS     r0,r0,#31
        0x00001980:    9003        ..      STR      r0,[sp,#0xc]
        0x00001982:    2001        .       MOVS     r0,#1
        0x00001984:    9001        ..      STR      r0,[sp,#4]
        0x00001986:    a908        ..      ADD      r1,sp,#0x20
        0x00001988:    9700        ..      STR      r7,[sp,#0]
        0x0000198a:    a811        ..      ADD      r0,sp,#0x44
        0x0000198c:    f7fffcd4    ....    BL       _fp_digits ; 0x1338
        0x00001990:    9a13        ..      LDR      r2,[sp,#0x4c]
        0x00001992:    9914        ..      LDR      r1,[sp,#0x50]
        0x00001994:    9205        ..      STR      r2,[sp,#0x14]
        0x00001996:    2200        ."      MOVS     r2,#0
        0x00001998:    9b11        ..      LDR      r3,[sp,#0x44]
        0x0000199a:    9200        ..      STR      r2,[sp,#0]
        0x0000199c:    9812        ..      LDR      r0,[sp,#0x48]
        0x0000199e:    9315        ..      STR      r3,[sp,#0x54]
        0x000019a0:    9a05        ..      LDR      r2,[sp,#0x14]
        0x000019a2:    9201        ..      STR      r2,[sp,#4]
        0x000019a4:    2900        .)      CMP      r1,#0
        0x000019a6:    d001        ..      BEQ      0x19ac ; _printf_core + 1280
        0x000019a8:    4610        .F      MOV      r0,r2
        0x000019aa:    e002        ..      B        0x19b2 ; _printf_core + 1286
        0x000019ac:    1c79        y.      ADDS     r1,r7,#1
        0x000019ae:    1840        @.      ADDS     r0,r0,r1
        0x000019b0:    9001        ..      STR      r0,[sp,#4]
        0x000019b2:    1a38        8.      SUBS     r0,r7,r0
        0x000019b4:    d501        ..      BPL      0x19ba ; _printf_core + 1294
        0x000019b6:    9801        ..      LDR      r0,[sp,#4]
        0x000019b8:    e004        ..      B        0x19c4 ; _printf_core + 1304
        0x000019ba:    4240        @B      RSBS     r0,r0,#0
        0x000019bc:    1e40        @.      SUBS     r0,r0,#1
        0x000019be:    9000        ..      STR      r0,[sp,#0]
        0x000019c0:    1c78        x.      ADDS     r0,r7,#1
        0x000019c2:    9001        ..      STR      r0,[sp,#4]
        0x000019c4:    1bc0        ..      SUBS     r0,r0,r7
        0x000019c6:    9002        ..      STR      r0,[sp,#8]
        0x000019c8:    e043        C.      B        0x1a52 ; _printf_core + 1446
        0x000019ca:    2f01        ./      CMP      r7,#1
        0x000019cc:    da00        ..      BGE      0x19d0 ; _printf_core + 1316
        0x000019ce:    2701        .'      MOVS     r7,#1
        0x000019d0:    2100        .!      MOVS     r1,#0
        0x000019d2:    2f11        ./      CMP      r7,#0x11
        0x000019d4:    dd01        ..      BLE      0x19da ; _printf_core + 1326
        0x000019d6:    2011        .       MOVS     r0,#0x11
        0x000019d8:    e000        ..      B        0x19dc ; _printf_core + 1328
        0x000019da:    4638        8F      MOV      r0,r7
        0x000019dc:    9101        ..      STR      r1,[sp,#4]
        0x000019de:    9000        ..      STR      r0,[sp,#0]
        0x000019e0:    a908        ..      ADD      r1,sp,#0x20
        0x000019e2:    a811        ..      ADD      r0,sp,#0x44
        0x000019e4:    f7fffca8    ....    BL       _fp_digits ; 0x1338
        0x000019e8:    9913        ..      LDR      r1,[sp,#0x4c]
        0x000019ea:    9105        ..      STR      r1,[sp,#0x14]
        0x000019ec:    9a11        ..      LDR      r2,[sp,#0x44]
        0x000019ee:    2100        .!      MOVS     r1,#0
        0x000019f0:    9812        ..      LDR      r0,[sp,#0x48]
        0x000019f2:    9215        ..      STR      r2,[sp,#0x54]
        0x000019f4:    9100        ..      STR      r1,[sp,#0]
        0x000019f6:    9701        ..      STR      r7,[sp,#4]
        0x000019f8:    0721        !.      LSLS     r1,r4,#28
        0x000019fa:    d40c        ..      BMI      0x1a16 ; _printf_core + 1386
        0x000019fc:    9905        ..      LDR      r1,[sp,#0x14]
        0x000019fe:    42b9        .B      CMP      r1,r7
        0x00001a00:    db01        ..      BLT      0x1a06 ; _printf_core + 1370
        0x00001a02:    9901        ..      LDR      r1,[sp,#4]
        0x00001a04:    e000        ..      B        0x1a08 ; _printf_core + 1372
        0x00001a06:    9101        ..      STR      r1,[sp,#4]
        0x00001a08:    2901        .)      CMP      r1,#1
        0x00001a0a:    dd04        ..      BLE      0x1a16 ; _printf_core + 1386
        0x00001a0c:    9a15        ..      LDR      r2,[sp,#0x54]
        0x00001a0e:    1e49        I.      SUBS     r1,r1,#1
        0x00001a10:    5c51        Q\      LDRB     r1,[r2,r1]
        0x00001a12:    2930        0)      CMP      r1,#0x30
        0x00001a14:    d006        ..      BEQ      0x1a24 ; _printf_core + 1400
        0x00001a16:    42b8        .B      CMP      r0,r7
        0x00001a18:    da01        ..      BGE      0x1a1e ; _printf_core + 1394
        0x00001a1a:    1d01        ..      ADDS     r1,r0,#4
        0x00001a1c:    da05        ..      BGE      0x1a2a ; _printf_core + 1406
        0x00001a1e:    2101        .!      MOVS     r1,#1
        0x00001a20:    9102        ..      STR      r1,[sp,#8]
        0x00001a22:    e015        ..      B        0x1a50 ; _printf_core + 1444
        0x00001a24:    9901        ..      LDR      r1,[sp,#4]
        0x00001a26:    1e49        I.      SUBS     r1,r1,#1
        0x00001a28:    e7ed        ..      B        0x1a06 ; _printf_core + 1370
        0x00001a2a:    2800        .(      CMP      r0,#0
        0x00001a2c:    dc05        ..      BGT      0x1a3a ; _printf_core + 1422
        0x00001a2e:    9900        ..      LDR      r1,[sp,#0]
        0x00001a30:    1841        A.      ADDS     r1,r0,r1
        0x00001a32:    9100        ..      STR      r1,[sp,#0]
        0x00001a34:    9901        ..      LDR      r1,[sp,#4]
        0x00001a36:    1a09        ..      SUBS     r1,r1,r0
        0x00001a38:    e003        ..      B        0x1a42 ; _printf_core + 1430
        0x00001a3a:    9a01        ..      LDR      r2,[sp,#4]
        0x00001a3c:    1c41        A.      ADDS     r1,r0,#1
        0x00001a3e:    4291        .B      CMP      r1,r2
        0x00001a40:    dd00        ..      BLE      0x1a44 ; _printf_core + 1432
        0x00001a42:    9101        ..      STR      r1,[sp,#4]
        0x00001a44:    9900        ..      LDR      r1,[sp,#0]
        0x00001a46:    1a40        @.      SUBS     r0,r0,r1
        0x00001a48:    1c40        @.      ADDS     r0,r0,#1
        0x00001a4a:    9002        ..      STR      r0,[sp,#8]
        0x00001a4c:    2001        .       MOVS     r0,#1
        0x00001a4e:    07c0        ..      LSLS     r0,r0,#31
        0x00001a50:    9003        ..      STR      r0,[sp,#0xc]
        0x00001a52:    0720         .      LSLS     r0,r4,#28
        0x00001a54:    d406        ..      BMI      0x1a64 ; _printf_core + 1464
        0x00001a56:    9902        ..      LDR      r1,[sp,#8]
        0x00001a58:    9801        ..      LDR      r0,[sp,#4]
        0x00001a5a:    4281        .B      CMP      r1,r0
        0x00001a5c:    db02        ..      BLT      0x1a64 ; _printf_core + 1464
        0x00001a5e:    2000        .       MOVS     r0,#0
        0x00001a60:    43c0        .C      MVNS     r0,r0
        0x00001a62:    9002        ..      STR      r0,[sp,#8]
        0x00001a64:    2000        .       MOVS     r0,#0
        0x00001a66:    4669        iF      MOV      r1,sp
        0x00001a68:    77c8        .w      STRB     r0,[r1,#0x1f]
        0x00001a6a:    af07        ..      ADD      r7,sp,#0x1c
        0x00001a6c:    2101        .!      MOVS     r1,#1
        0x00001a6e:    9803        ..      LDR      r0,[sp,#0xc]
        0x00001a70:    3703        .7      ADDS     r7,#3
        0x00001a72:    07c9        ..      LSLS     r1,r1,#31
        0x00001a74:    4288        .B      CMP      r0,r1
        0x00001a76:    d024        $.      BEQ      0x1ac2 ; _printf_core + 1558
        0x00001a78:    2002        .       MOVS     r0,#2
        0x00001a7a:    9011        ..      STR      r0,[sp,#0x44]
        0x00001a7c:    202b        +       MOVS     r0,#0x2b
        0x00001a7e:    9012        ..      STR      r0,[sp,#0x48]
        0x00001a80:    9803        ..      LDR      r0,[sp,#0xc]
        0x00001a82:    2800        .(      CMP      r0,#0
        0x00001a84:    da0c        ..      BGE      0x1aa0 ; _printf_core + 1524
        0x00001a86:    4240        @B      RSBS     r0,r0,#0
        0x00001a88:    9003        ..      STR      r0,[sp,#0xc]
        0x00001a8a:    202d        -       MOVS     r0,#0x2d
        0x00001a8c:    9012        ..      STR      r0,[sp,#0x48]
        0x00001a8e:    e007        ..      B        0x1aa0 ; _printf_core + 1524
        0x00001a90:    210a        .!      MOVS     r1,#0xa
        0x00001a92:    9803        ..      LDR      r0,[sp,#0xc]
        0x00001a94:    f7fefb52    ..R.    BL       __aeabi_uidiv ; 0x13c
        0x00001a98:    3130        01      ADDS     r1,r1,#0x30
        0x00001a9a:    1e7f        ..      SUBS     r7,r7,#1
        0x00001a9c:    9003        ..      STR      r0,[sp,#0xc]
        0x00001a9e:    7039        9p      STRB     r1,[r7,#0]
        0x00001aa0:    9911        ..      LDR      r1,[sp,#0x44]
        0x00001aa2:    1e48        H.      SUBS     r0,r1,#1
        0x00001aa4:    9011        ..      STR      r0,[sp,#0x44]
        0x00001aa6:    2900        .)      CMP      r1,#0
        0x00001aa8:    dcf2        ..      BGT      0x1a90 ; _printf_core + 1508
        0x00001aaa:    9803        ..      LDR      r0,[sp,#0xc]
        0x00001aac:    2800        .(      CMP      r0,#0
        0x00001aae:    d1ef        ..      BNE      0x1a90 ; _printf_core + 1508
        0x00001ab0:    1e79        y.      SUBS     r1,r7,#1
        0x00001ab2:    9812        ..      LDR      r0,[sp,#0x48]
        0x00001ab4:    7008        .p      STRB     r0,[r1,#0]
        0x00001ab6:    7830        0x      LDRB     r0,[r6,#0]
        0x00001ab8:    2120         !      MOVS     r1,#0x20
        0x00001aba:    4008        .@      ANDS     r0,r0,r1
        0x00001abc:    3045        E0      ADDS     r0,r0,#0x45
        0x00001abe:    1ebf        ..      SUBS     r7,r7,#2
        0x00001ac0:    7038        8p      STRB     r0,[r7,#0]
        0x00001ac2:    a806        ..      ADD      r0,sp,#0x18
        0x00001ac4:    1bc0        ..      SUBS     r0,r0,r7
        0x00001ac6:    1dc0        ..      ADDS     r0,r0,#7
        0x00001ac8:    9003        ..      STR      r0,[sp,#0xc]
        0x00001aca:    9810        ..      LDR      r0,[sp,#0x40]
        0x00001acc:    7800        .x      LDRB     r0,[r0,#0]
        0x00001ace:    2800        .(      CMP      r0,#0
        0x00001ad0:    d000        ..      BEQ      0x1ad4 ; _printf_core + 1576
        0x00001ad2:    2001        .       MOVS     r0,#1
        0x00001ad4:    9901        ..      LDR      r1,[sp,#4]
        0x00001ad6:    1841        A.      ADDS     r1,r0,r1
        0x00001ad8:    9802        ..      LDR      r0,[sp,#8]
        0x00001ada:    17c0        ..      ASRS     r0,r0,#31
        0x00001adc:    1809        ..      ADDS     r1,r1,r0
        0x00001ade:    9803        ..      LDR      r0,[sp,#0xc]
        0x00001ae0:    1809        ..      ADDS     r1,r1,r0
        0x00001ae2:    9804        ..      LDR      r0,[sp,#0x10]
        0x00001ae4:    1a40        @.      SUBS     r0,r0,r1
        0x00001ae6:    1e40        @.      SUBS     r0,r0,#1
        0x00001ae8:    9004        ..      STR      r0,[sp,#0x10]
        0x00001aea:    03e0        ..      LSLS     r0,r4,#15
        0x00001aec:    d406        ..      BMI      0x1afc ; _printf_core + 1616
        0x00001aee:    4621        !F      MOV      r1,r4
        0x00001af0:    9b1a        ..      LDR      r3,[sp,#0x68]
        0x00001af2:    9a19        ..      LDR      r2,[sp,#0x64]
        0x00001af4:    9804        ..      LDR      r0,[sp,#0x10]
        0x00001af6:    f000f85f    .._.    BL       _printf_pre_padding ; 0x1bb8
        0x00001afa:    1945        E.      ADDS     r5,r0,r5
        0x00001afc:    9810        ..      LDR      r0,[sp,#0x40]
        0x00001afe:    7800        .x      LDRB     r0,[r0,#0]
        0x00001b00:    2800        .(      CMP      r0,#0
        0x00001b02:    d003        ..      BEQ      0x1b0c ; _printf_core + 1632
        0x00001b04:    9a1a        ..      LDR      r2,[sp,#0x68]
        0x00001b06:    9919        ..      LDR      r1,[sp,#0x64]
        0x00001b08:    4790        .G      BLX      r2
        0x00001b0a:    1c6d        m.      ADDS     r5,r5,#1
        0x00001b0c:    03e0        ..      LSLS     r0,r4,#15
        0x00001b0e:    d524        $.      BPL      0x1b5a ; _printf_core + 1710
        0x00001b10:    4621        !F      MOV      r1,r4
        0x00001b12:    9b1a        ..      LDR      r3,[sp,#0x68]
        0x00001b14:    9a19        ..      LDR      r2,[sp,#0x64]
        0x00001b16:    9804        ..      LDR      r0,[sp,#0x10]
        0x00001b18:    f000f84e    ..N.    BL       _printf_pre_padding ; 0x1bb8
        0x00001b1c:    1945        E.      ADDS     r5,r0,r5
        0x00001b1e:    e01c        ..      B        0x1b5a ; _printf_core + 1710
        0x00001b20:    9800        ..      LDR      r0,[sp,#0]
        0x00001b22:    2800        .(      CMP      r0,#0
        0x00001b24:    db07        ..      BLT      0x1b36 ; _printf_core + 1674
        0x00001b26:    9900        ..      LDR      r1,[sp,#0]
        0x00001b28:    9805        ..      LDR      r0,[sp,#0x14]
        0x00001b2a:    4288        .B      CMP      r0,r1
        0x00001b2c:    dd03        ..      BLE      0x1b36 ; _printf_core + 1674
        0x00001b2e:    9815        ..      LDR      r0,[sp,#0x54]
        0x00001b30:    5c40        @\      LDRB     r0,[r0,r1]
        0x00001b32:    9919        ..      LDR      r1,[sp,#0x64]
        0x00001b34:    e001        ..      B        0x1b3a ; _printf_core + 1678
        0x00001b36:    9919        ..      LDR      r1,[sp,#0x64]
        0x00001b38:    2030        0       MOVS     r0,#0x30
        0x00001b3a:    9a1a        ..      LDR      r2,[sp,#0x68]
        0x00001b3c:    4790        .G      BLX      r2
        0x00001b3e:    9800        ..      LDR      r0,[sp,#0]
        0x00001b40:    1c6d        m.      ADDS     r5,r5,#1
        0x00001b42:    1c40        @.      ADDS     r0,r0,#1
        0x00001b44:    9000        ..      STR      r0,[sp,#0]
        0x00001b46:    9802        ..      LDR      r0,[sp,#8]
        0x00001b48:    1e40        @.      SUBS     r0,r0,#1
        0x00001b4a:    9002        ..      STR      r0,[sp,#8]
        0x00001b4c:    2800        .(      CMP      r0,#0
        0x00001b4e:    d104        ..      BNE      0x1b5a ; _printf_core + 1710
        0x00001b50:    9a1a        ..      LDR      r2,[sp,#0x68]
        0x00001b52:    202e        .       MOVS     r0,#0x2e
        0x00001b54:    9919        ..      LDR      r1,[sp,#0x64]
        0x00001b56:    4790        .G      BLX      r2
        0x00001b58:    1c6d        m.      ADDS     r5,r5,#1
        0x00001b5a:    9901        ..      LDR      r1,[sp,#4]
        0x00001b5c:    1e48        H.      SUBS     r0,r1,#1
        0x00001b5e:    9001        ..      STR      r0,[sp,#4]
        0x00001b60:    2900        .)      CMP      r1,#0
        0x00001b62:    dcdd        ..      BGT      0x1b20 ; _printf_core + 1652
        0x00001b64:    e005        ..      B        0x1b72 ; _printf_core + 1734
        0x00001b66:    7838        8x      LDRB     r0,[r7,#0]
        0x00001b68:    9a1a        ..      LDR      r2,[sp,#0x68]
        0x00001b6a:    1c7f        ..      ADDS     r7,r7,#1
        0x00001b6c:    9919        ..      LDR      r1,[sp,#0x64]
        0x00001b6e:    4790        .G      BLX      r2
        0x00001b70:    1c6d        m.      ADDS     r5,r5,#1
        0x00001b72:    9903        ..      LDR      r1,[sp,#0xc]
        0x00001b74:    1e48        H.      SUBS     r0,r1,#1
        0x00001b76:    9003        ..      STR      r0,[sp,#0xc]
        0x00001b78:    2900        .)      CMP      r1,#0
        0x00001b7a:    dcf4        ..      BGT      0x1b66 ; _printf_core + 1722
        0x00001b7c:    4621        !F      MOV      r1,r4
        0x00001b7e:    9b1a        ..      LDR      r3,[sp,#0x68]
        0x00001b80:    9a19        ..      LDR      r2,[sp,#0x64]
        0x00001b82:    9804        ..      LDR      r0,[sp,#0x10]
        0x00001b84:    e6ac        ..      B        0x18e0 ; _printf_core + 1076
    $d
        0x00001b86:    0000        ..      DCW    0
        0x00001b88:    0000002d    -...    DCD    45
        0x00001b8c:    0000002b    +...    DCD    43
        0x00001b90:    00000020     ...    DCD    32
        0x00001b94:    00000000    ....    DCD    0
    $t
    i._printf_post_padding
    _printf_post_padding
        0x00001b98:    b5f8        ..      PUSH     {r3-r7,lr}
        0x00001b9a:    4604        .F      MOV      r4,r0
        0x00001b9c:    2500        .%      MOVS     r5,#0
        0x00001b9e:    461e        .F      MOV      r6,r3
        0x00001ba0:    4617        .F      MOV      r7,r2
        0x00001ba2:    0488        ..      LSLS     r0,r1,#18
        0x00001ba4:    d404        ..      BMI      0x1bb0 ; _printf_post_padding + 24
        0x00001ba6:    e005        ..      B        0x1bb4 ; _printf_post_padding + 28
        0x00001ba8:    4639        9F      MOV      r1,r7
        0x00001baa:    2020                MOVS     r0,#0x20
        0x00001bac:    47b0        .G      BLX      r6
        0x00001bae:    1c6d        m.      ADDS     r5,r5,#1
        0x00001bb0:    1e64        d.      SUBS     r4,r4,#1
        0x00001bb2:    d5f9        ..      BPL      0x1ba8 ; _printf_post_padding + 16
        0x00001bb4:    4628        (F      MOV      r0,r5
        0x00001bb6:    bdf8        ..      POP      {r3-r7,pc}
    i._printf_pre_padding
    _printf_pre_padding
        0x00001bb8:    b5ff        ..      PUSH     {r0-r7,lr}
        0x00001bba:    4604        .F      MOV      r4,r0
        0x00001bbc:    2500        .%      MOVS     r5,#0
        0x00001bbe:    b081        ..      SUB      sp,sp,#4
        0x00001bc0:    461e        .F      MOV      r6,r3
        0x00001bc2:    03c8        ..      LSLS     r0,r1,#15
        0x00001bc4:    d501        ..      BPL      0x1bca ; _printf_pre_padding + 18
        0x00001bc6:    2730        0'      MOVS     r7,#0x30
        0x00001bc8:    e000        ..      B        0x1bcc ; _printf_pre_padding + 20
        0x00001bca:    2720         '      MOVS     r7,#0x20
        0x00001bcc:    0488        ..      LSLS     r0,r1,#18
        0x00001bce:    d504        ..      BPL      0x1bda ; _printf_pre_padding + 34
        0x00001bd0:    e005        ..      B        0x1bde ; _printf_pre_padding + 38
        0x00001bd2:    4638        8F      MOV      r0,r7
        0x00001bd4:    9903        ..      LDR      r1,[sp,#0xc]
        0x00001bd6:    47b0        .G      BLX      r6
        0x00001bd8:    1c6d        m.      ADDS     r5,r5,#1
        0x00001bda:    1e64        d.      SUBS     r4,r4,#1
        0x00001bdc:    d5f9        ..      BPL      0x1bd2 ; _printf_pre_padding + 26
        0x00001bde:    4628        (F      MOV      r0,r5
        0x00001be0:    b005        ..      ADD      sp,sp,#0x14
        0x00001be2:    bdf0        ..      POP      {r4-r7,pc}
    i.fputc
    fputc
        0x00001be4:    b500        ..      PUSH     {lr}
        0x00001be6:    4603        .F      MOV      r3,r0
        0x00001be8:    f7fffac4    ....    BL       SendChar_ToUART ; 0x1174
        0x00001bec:    4618        .F      MOV      r0,r3
        0x00001bee:    bd00        ..      POP      {pc}
    i.main
    main
        0x00001bf0:    b51f        ..      PUSH     {r0-r4,lr}
        0x00001bf2:    2059        Y       MOVS     r0,#0x59
        0x00001bf4:    2216        ."      MOVS     r2,#0x16
        0x00001bf6:    4c43        CL      LDR      r4,[pc,#268] ; [0x1d04] = 0x50000100
        0x00001bf8:    2188        .!      MOVS     r1,#0x88
        0x00001bfa:    e002        ..      B        0x1c02 ; main + 18
        0x00001bfc:    6020         `      STR      r0,[r4,#0]
        0x00001bfe:    6022        "`      STR      r2,[r4,#0]
        0x00001c00:    6021        !`      STR      r1,[r4,#0]
        0x00001c02:    6823        #h      LDR      r3,[r4,#0]
        0x00001c04:    2b01        .+      CMP      r3,#1
        0x00001c06:    d1f9        ..      BNE      0x1bfc ; main + 12
        0x00001c08:    f7fffa78    ..x.    BL       SYS_Init ; 0x10fc
        0x00001c0c:    f7fffb0c    ....    BL       UART0_Init ; 0x1228
        0x00001c10:    2000        .       MOVS     r0,#0
        0x00001c12:    6020         `      STR      r0,[r4,#0]
        0x00001c14:    a03c        <.      ADR      r0,{pc}+0xf4 ; 0x1d08
        0x00001c16:    f7fffb59    ..Y.    BL       __0printf ; 0x12cc
        0x00001c1a:    a03c        <.      ADR      r0,{pc}+0xf2 ; 0x1d0c
        0x00001c1c:    f7fffb56    ..V.    BL       __0printf ; 0x12cc
        0x00001c20:    a049        I.      ADR      r0,{pc}+0x128 ; 0x1d48
        0x00001c22:    f7fffb53    ..S.    BL       __0printf ; 0x12cc
        0x00001c26:    a057        W.      ADR      r0,{pc}+0x15e ; 0x1d84
        0x00001c28:    f7fffb50    ..P.    BL       __0printf ; 0x12cc
        0x00001c2c:    a064        d.      ADR      r0,{pc}+0x194 ; 0x1dc0
        0x00001c2e:    f7fffb4d    ..M.    BL       __0printf ; 0x12cc
        0x00001c32:    a036        6.      ADR      r0,{pc}+0xda ; 0x1d0c
        0x00001c34:    f7fffb4a    ..J.    BL       __0printf ; 0x12cc
        0x00001c38:    a070        p.      ADR      r0,{pc}+0x1c4 ; 0x1dfc
        0x00001c3a:    f7fffb47    ..G.    BL       __0printf ; 0x12cc
        0x00001c3e:    a077        w.      ADR      r0,{pc}+0x1de ; 0x1e1c
        0x00001c40:    f7fffb44    ..D.    BL       __0printf ; 0x12cc
        0x00001c44:    a07d        }.      ADR      r0,{pc}+0x1f8 ; 0x1e3c
        0x00001c46:    f7fffb41    ..A.    BL       __0printf ; 0x12cc
        0x00001c4a:    f7fff971    ..q.    BL       I2C0_Init ; 0xf30
        0x00001c4e:    f7feff29    ..).    BL       ADXL_init ; 0xaa4
        0x00001c52:    2100        .!      MOVS     r1,#0
        0x00001c54:    2053        S       MOVS     r0,#0x53
        0x00001c56:    f7fefe15    ....    BL       ADXL_ReadBytes ; 0x884
        0x00001c5a:    4601        .F      MOV      r1,r0
        0x00001c5c:    a07f        ..      ADR      r0,{pc}+0x200 ; 0x1e5c
        0x00001c5e:    f7fffb35    ..5.    BL       __0printf ; 0x12cc
        0x00001c62:    f7fefe4b    ..K.    BL       ADXL_calibrate ; 0x8fc
        0x00001c66:    2133        3!      MOVS     r1,#0x33
        0x00001c68:    2053        S       MOVS     r0,#0x53
        0x00001c6a:    f7fefe0b    ....    BL       ADXL_ReadBytes ; 0x884
        0x00001c6e:    0204        ..      LSLS     r4,r0,#8
        0x00001c70:    2132        2!      MOVS     r1,#0x32
        0x00001c72:    2053        S       MOVS     r0,#0x53
        0x00001c74:    f7fefe06    ....    BL       ADXL_ReadBytes ; 0x884
        0x00001c78:    4304        .C      ORRS     r4,r4,r0
        0x00001c7a:    b226        &.      SXTH     r6,r4
        0x00001c7c:    2135        5!      MOVS     r1,#0x35
        0x00001c7e:    2053        S       MOVS     r0,#0x53
        0x00001c80:    f7fefe00    ....    BL       ADXL_ReadBytes ; 0x884
        0x00001c84:    0204        ..      LSLS     r4,r0,#8
        0x00001c86:    2134        4!      MOVS     r1,#0x34
        0x00001c88:    2053        S       MOVS     r0,#0x53
        0x00001c8a:    f7fefdfb    ....    BL       ADXL_ReadBytes ; 0x884
        0x00001c8e:    4304        .C      ORRS     r4,r4,r0
        0x00001c90:    b224        $.      SXTH     r4,r4
        0x00001c92:    2137        7!      MOVS     r1,#0x37
        0x00001c94:    2053        S       MOVS     r0,#0x53
        0x00001c96:    f7fefdf5    ....    BL       ADXL_ReadBytes ; 0x884
        0x00001c9a:    0205        ..      LSLS     r5,r0,#8
        0x00001c9c:    2136        6!      MOVS     r1,#0x36
        0x00001c9e:    2053        S       MOVS     r0,#0x53
        0x00001ca0:    f7fefdf0    ....    BL       ADXL_ReadBytes ; 0x884
        0x00001ca4:    4305        .C      ORRS     r5,r5,r0
        0x00001ca6:    b22d        -.      SXTH     r5,r5
        0x00001ca8:    4630        0F      MOV      r0,r6
        0x00001caa:    f7fefad6    ....    BL       __aeabi_i2f ; 0x25a
        0x00001cae:    2607        .&      MOVS     r6,#7
        0x00001cb0:    43f6        .C      MVNS     r6,r6
        0x00001cb2:    4631        1F      MOV      r1,r6
        0x00001cb4:    f7fefac5    ....    BL       __ARM_scalbnf ; 0x242
        0x00001cb8:    9000        ..      STR      r0,[sp,#0]
        0x00001cba:    4620         F      MOV      r0,r4
        0x00001cbc:    f7fefacd    ....    BL       __aeabi_i2f ; 0x25a
        0x00001cc0:    4631        1F      MOV      r1,r6
        0x00001cc2:    f7fefabe    ....    BL       __ARM_scalbnf ; 0x242
        0x00001cc6:    4604        .F      MOV      r4,r0
        0x00001cc8:    4628        (F      MOV      r0,r5
        0x00001cca:    f7fefac6    ....    BL       __aeabi_i2f ; 0x25a
        0x00001cce:    4631        1F      MOV      r1,r6
        0x00001cd0:    f7fefab7    ....    BL       __ARM_scalbnf ; 0x242
        0x00001cd4:    f7fefae5    ....    BL       __aeabi_f2d ; 0x2a2
        0x00001cd8:    4606        .F      MOV      r6,r0
        0x00001cda:    460f        .F      MOV      r7,r1
        0x00001cdc:    4620         F      MOV      r0,r4
        0x00001cde:    f7fefae0    ....    BL       __aeabi_f2d ; 0x2a2
        0x00001ce2:    4604        .F      MOV      r4,r0
        0x00001ce4:    460d        .F      MOV      r5,r1
        0x00001ce6:    9800        ..      LDR      r0,[sp,#0]
        0x00001ce8:    f7fefadb    ....    BL       __aeabi_f2d ; 0x2a2
        0x00001cec:    460b        .F      MOV      r3,r1
        0x00001cee:    4669        iF      MOV      r1,sp
        0x00001cf0:    c1f0        ..      STM      r1!,{r4-r7}
        0x00001cf2:    4602        .F      MOV      r2,r0
        0x00001cf4:    a05e        ^.      ADR      r0,{pc}+0x17c ; 0x1e70
        0x00001cf6:    f7fffae9    ....    BL       __0printf ; 0x12cc
        0x00001cfa:    4864        dH      LDR      r0,[pc,#400] ; [0x1e8c] = 0x7a120
        0x00001cfc:    f7fff8c6    ....    BL       CLK_SysTickDelay ; 0xe8c
        0x00001d00:    e7b1        ..      B        0x1c66 ; main + 118
    $d
        0x00001d02:    0000        ..      DCW    0
        0x00001d04:    50000100    ...P    DCD    1342177536
        0x00001d08:    0000000a    ....    DCD    10
        0x00001d0c:    2d2d2d2b    +---    DCD    757935403
        0x00001d10:    2d2d2d2d    ----    DCD    757935405
        0x00001d14:    2d2d2d2d    ----    DCD    757935405
        0x00001d18:    2d2d2d2d    ----    DCD    757935405
        0x00001d1c:    2d2d2d2d    ----    DCD    757935405
        0x00001d20:    2d2d2d2d    ----    DCD    757935405
        0x00001d24:    2d2d2d2d    ----    DCD    757935405
        0x00001d28:    2d2d2d2d    ----    DCD    757935405
        0x00001d2c:    2d2d2d2d    ----    DCD    757935405
        0x00001d30:    2d2d2d2d    ----    DCD    757935405
        0x00001d34:    2d2d2d2d    ----    DCD    757935405
        0x00001d38:    2d2d2d2d    ----    DCD    757935405
        0x00001d3c:    2d2d2d2d    ----    DCD    757935405
        0x00001d40:    2d2d2d2d    ----    DCD    757935405
        0x00001d44:    000a2b2d    -+..    DCD    666413
        0x00001d48:    554e207c    | NU    DCD    1431183484
        0x00001d4c:    30303143    C100    DCD    808464707
        0x00001d50:    43324920     I2C    DCD    1127368992
        0x00001d54:    69724420     Dri    DCD    1769096224
        0x00001d58:    20726576    ver     DCD    544367990
        0x00001d5c:    706d6153    Samp    DCD    1886216531
        0x00001d60:    4320656c    le C    DCD    1126196588
        0x00001d64:    2865646f    ode(    DCD    677733487
        0x00001d68:    7473614d    Mast    DCD    1953718605
        0x00001d6c:    20297265    er)     DCD    539587173
        0x00001d70:    20726f66    for     DCD    544370534
        0x00001d74:    65636361    acce    DCD    1701012321
        0x00001d78:    53207373    ss S    DCD    1394635635
        0x00001d7c:    6576616c    lave    DCD    1702257004
        0x00001d80:    000a7c20     |..    DCD    687136
        0x00001d84:    2020207c    |       DCD    538976380
        0x00001d88:    20202020            DCD    538976288
        0x00001d8c:    20202020            DCD    538976288
        0x00001d90:    20202020            DCD    538976288
        0x00001d94:    20202020            DCD    538976288
        0x00001d98:    20202020            DCD    538976288
        0x00001d9c:    20202020            DCD    538976288
        0x00001da0:    20202020            DCD    538976288
        0x00001da4:    20202020            DCD    538976288
        0x00001da8:    20202020            DCD    538976288
        0x00001dac:    20202020            DCD    538976288
        0x00001db0:    20202020            DCD    538976288
        0x00001db4:    20202020            DCD    538976288
        0x00001db8:    20202020            DCD    538976288
        0x00001dbc:    000a7c20     |..    DCD    687136
        0x00001dc0:    3249207c    | I2    DCD    843653244
        0x00001dc4:    614d2043    C Ma    DCD    1632444483
        0x00001dc8:    72657473    ster    DCD    1919251571
        0x00001dcc:    32492820     (I2    DCD    843655200
        0x00001dd0:    20293043    C0)     DCD    539570243
        0x00001dd4:    2d2d2d3c    <---    DCD    757935420
        0x00001dd8:    3249203e    > I2    DCD    843653182
        0x00001ddc:    6c532043    C Sl    DCD    1817387075
        0x00001de0:    28657661    ave(    DCD    677738081
        0x00001de4:    30433249    I2C0    DCD    809710153
        0x00001de8:    20202029    )       DCD    538976297
        0x00001dec:    20202020            DCD    538976288
        0x00001df0:    20202020            DCD    538976288
        0x00001df4:    20202020            DCD    538976288
        0x00001df8:    000a7c20     |..    DCD    687136
        0x00001dfc:    666e6f43    Conf    DCD    1718513475
        0x00001e00:    72756769    igur    DCD    1920296809
        0x00001e04:    32492065    e I2    DCD    843653221
        0x00001e08:    61203043    C0 a    DCD    1629499459
        0x00001e0c:    20612073    s a     DCD    543236211
        0x00001e10:    7473616d    mast    DCD    1953718637
        0x00001e14:    0a2e7265    er..    DCD    170816101
        0x00001e18:    00000000    ....    DCD    0
        0x00001e1c:    20656854    The     DCD    543516756
        0x00001e20:    204f2f49    I/O     DCD    542060361
        0x00001e24:    6e6e6f63    conn    DCD    1852731235
        0x00001e28:    69746365    ecti    DCD    1769235301
        0x00001e2c:    66206e6f    on f    DCD    1713401455
        0x00001e30:    4920726f    or I    DCD    1226863215
        0x00001e34:    3a304332    2C0:    DCD    976241458
        0x00001e38:    0000000a    ....    DCD    10
        0x00001e3c:    30433249    I2C0    DCD    809710153
        0x00001e40:    4144535f    _SDA    DCD    1094996831
        0x00001e44:    2e415028    (PA.    DCD    776032296
        0x00001e48:    202c2938    8),     DCD    539765048
        0x00001e4c:    30433249    I2C0    DCD    809710153
        0x00001e50:    4c43535f    _SCL    DCD    1279480671
        0x00001e54:    2e415028    (PA.    DCD    776032296
        0x00001e58:    000a2939    9)..    DCD    665913
        0x00001e5c:    7665640a    .dev    DCD    1986356234
        0x00001e60:    3a656369    ice:    DCD    979723113
        0x00001e64:    25783020     0x%    DCD    628633632
        0x00001e68:    0a583230    02X.    DCD    173552176
        0x00001e6c:    0000000a    ....    DCD    10
        0x00001e70:    25203a78    x: %    DCD    622869112
        0x00001e74:    2c66322e    .2f,    DCD    744895022
        0x00001e78:    203a7920     y:     DCD    540703008
        0x00001e7c:    66322e25    %.2f    DCD    1714564645
        0x00001e80:    3a7a202c    , z:    DCD    981082156
        0x00001e84:    322e2520     %.2    DCD    841884960
        0x00001e88:    00000a66    f...    DCD    2662
        0x00001e8c:    0007a120     ...    DCD    500000
    $t
    i.my_round
    my_round
        0x00001e90:    22ff        ."      MOVS     r2,#0xff
        0x00001e92:    213f        ?!      MOVS     r1,#0x3f
        0x00001e94:    b510        ..      PUSH     {r4,lr}
        0x00001e96:    05d2        ..      LSLS     r2,r2,#23
        0x00001e98:    0609        ..      LSLS     r1,r1,#24
        0x00001e9a:    42d0        .B      CMN      r0,r2
        0x00001e9c:    d202        ..      BCS      0x1ea4 ; my_round + 20
        0x00001e9e:    f7fef977    ..w.    BL       __aeabi_fadd ; 0x190
        0x00001ea2:    e001        ..      B        0x1ea8 ; my_round + 24
        0x00001ea4:    f7fef9c5    ....    BL       __aeabi_fsub ; 0x232
        0x00001ea8:    f7fef9e2    ....    BL       __aeabi_f2iz ; 0x270
        0x00001eac:    b240        @.      SXTB     r0,r0
        0x00001eae:    bd10        ..      POP      {r4,pc}
    i.stackDump
    stackDump
        0x00001eb0:    b510        ..      PUSH     {r4,lr}
        0x00001eb2:    4604        .F      MOV      r4,r0
        0x00001eb4:    6801        .h      LDR      r1,[r0,#0]
        0x00001eb6:    a010        ..      ADR      r0,{pc}+0x42 ; 0x1ef8
        0x00001eb8:    f7fffa08    ....    BL       __0printf ; 0x12cc
        0x00001ebc:    a011        ..      ADR      r0,{pc}+0x48 ; 0x1f04
        0x00001ebe:    6861        ah      LDR      r1,[r4,#4]
        0x00001ec0:    f7fffa04    ....    BL       __0printf ; 0x12cc
        0x00001ec4:    a012        ..      ADR      r0,{pc}+0x4c ; 0x1f10
        0x00001ec6:    68a1        .h      LDR      r1,[r4,#8]
        0x00001ec8:    f7fffa00    ....    BL       __0printf ; 0x12cc
        0x00001ecc:    a013        ..      ADR      r0,{pc}+0x50 ; 0x1f1c
        0x00001ece:    68e1        .h      LDR      r1,[r4,#0xc]
        0x00001ed0:    f7fff9fc    ....    BL       __0printf ; 0x12cc
        0x00001ed4:    a014        ..      ADR      r0,{pc}+0x54 ; 0x1f28
        0x00001ed6:    6921        !i      LDR      r1,[r4,#0x10]
        0x00001ed8:    f7fff9f8    ....    BL       __0printf ; 0x12cc
        0x00001edc:    a015        ..      ADR      r0,{pc}+0x58 ; 0x1f34
        0x00001ede:    6961        ai      LDR      r1,[r4,#0x14]
        0x00001ee0:    f7fff9f4    ....    BL       __0printf ; 0x12cc
        0x00001ee4:    a016        ..      ADR      r0,{pc}+0x5c ; 0x1f40
        0x00001ee6:    69a1        .i      LDR      r1,[r4,#0x18]
        0x00001ee8:    f7fff9f0    ....    BL       __0printf ; 0x12cc
        0x00001eec:    a017        ..      ADR      r0,{pc}+0x60 ; 0x1f4c
        0x00001eee:    69e1        .i      LDR      r1,[r4,#0x1c]
        0x00001ef0:    f7fff9ec    ....    BL       __0printf ; 0x12cc
        0x00001ef4:    bd10        ..      POP      {r4,pc}
    $d
        0x00001ef6:    0000        ..      DCW    0
        0x00001ef8:    20203072    r0      DCD    538980466
        0x00001efc:    7830203d    = 0x    DCD    2016419901
        0x00001f00:    000a7825    %x..    DCD    686117
        0x00001f04:    20203172    r1      DCD    538980722
        0x00001f08:    7830203d    = 0x    DCD    2016419901
        0x00001f0c:    000a7825    %x..    DCD    686117
        0x00001f10:    20203272    r2      DCD    538980978
        0x00001f14:    7830203d    = 0x    DCD    2016419901
        0x00001f18:    000a7825    %x..    DCD    686117
        0x00001f1c:    20203372    r3      DCD    538981234
        0x00001f20:    7830203d    = 0x    DCD    2016419901
        0x00001f24:    000a7825    %x..    DCD    686117
        0x00001f28:    20323172    r12     DCD    540160370
        0x00001f2c:    7830203d    = 0x    DCD    2016419901
        0x00001f30:    000a7825    %x..    DCD    686117
        0x00001f34:    2020726c    lr      DCD    538997356
        0x00001f38:    7830203d    = 0x    DCD    2016419901
        0x00001f3c:    000a7825    %x..    DCD    686117
        0x00001f40:    20206370    pc      DCD    538993520
        0x00001f44:    7830203d    = 0x    DCD    2016419901
        0x00001f48:    000a7825    %x..    DCD    686117
        0x00001f4c:    20727370    psr     DCD    544371568
        0x00001f50:    7830203d    = 0x    DCD    2016419901
        0x00001f54:    000a7825    %x..    DCD    686117
    $d.realdata
    .constdata
        0x00001f58:    00000000    ....    DCD    0
        0x00001f5c:    00000020     ...    DCD    32
        0x00001f60:    00000000    ....    DCD    0
        0x00001f64:    00000004    ....    DCD    4
        0x00001f68:    0000000c    ....    DCD    12
        0x00001f6c:    00000024    $...    DCD    36
        0x00001f70:    00000000    ....    DCD    0
        0x00001f74:    00000004    ....    DCD    4
        0x00001f78:    0000002c    ,...    DCD    44
        0x00001f7c:    00000000    ....    DCD    0
        0x00001f80:    00000000    ....    DCD    0
        0x00001f84:    00000004    ....    DCD    4
        0x00001f88:    0000002c    ,...    DCD    44
        0x00001f8c:    00000000    ....    DCD    0
    .constdata
        0x00001f90:    00b71b00    ....    DCD    12000000
        0x00001f94:    00000000    ....    DCD    0
        0x00001f98:    00000000    ....    DCD    0
        0x00001f9c:    01518000    ..Q.    DCD    22118400
        0x00001fa0:    00b71b00    ....    DCD    12000000
        0x00001fa4:    00000000    ....    DCD    0
        0x00001fa8:    00000000    ....    DCD    0
        0x00001fac:    01518000    ..Q.    DCD    22118400
        0x00001fb0:    00b71b00    ....    DCD    12000000
        0x00001fb4:    00000000    ....    DCD    0
        0x00001fb8:    00000000    ....    DCD    0
        0x00001fbc:    01518000    ..Q.    DCD    22118400
    Region$$Table$$Base
        0x00001fc0:    00001fe0    ....    DCD    8160
        0x00001fc4:    20000000    ...     DCD    536870912
        0x00001fc8:    00000044    D...    DCD    68
        0x00001fcc:    0000131a    ....    DCD    4890
        0x00001fd0:    00002024    $ ..    DCD    8228
        0x00001fd4:    20000044    D..     DCD    536870980
        0x00001fd8:    00000404    ....    DCD    1028
        0x00001fdc:    0000132a    *...    DCD    4906
    Region$$Table$$Limit

** Section #2 'ER_RW' (SHT_PROGBITS) [SHF_ALLOC + SHF_WRITE]
    Size   : 68 bytes (alignment 4)
    Address: 0x20000000


** Section #3 'ER_ZI' (SHT_NOBITS) [SHF_ALLOC + SHF_WRITE]
    Size   : 1028 bytes (alignment 8)
    Address: 0x20000044


** Section #4 '.debug_abbrev' (SHT_PROGBITS)
    Size   : 1476 bytes


** Section #5 '.debug_frame' (SHT_PROGBITS)
    Size   : 2280 bytes


** Section #6 '.debug_info' (SHT_PROGBITS)
    Size   : 29204 bytes


** Section #7 '.debug_line' (SHT_PROGBITS)
    Size   : 7376 bytes


** Section #8 '.debug_loc' (SHT_PROGBITS)
    Size   : 2804 bytes


** Section #9 '.debug_macinfo' (SHT_PROGBITS)
    Size   : 232752 bytes


** Section #10 '.debug_pubnames' (SHT_PROGBITS)
    Size   : 1517 bytes


** Section #11 '.symtab' (SHT_SYMTAB)
    Size   : 6656 bytes (alignment 4)
    String table #12 '.strtab'
    Last local symbol no. 236


** Section #12 '.strtab' (SHT_STRTAB)
    Size   : 4864 bytes


** Section #13 '.note' (SHT_NOTE)
    Size   : 28 bytes (alignment 4)


** Section #14 '.comment' (SHT_PROGBITS)
    Size   : 7868 bytes


** Section #15 '.shstrtab' (SHT_STRTAB)
    Size   : 156 bytes


